Certificate:
    Data:
        Version: 3 (0x2)
        Serial Number: 10 (0xa)
    Signature Algorithm: sha1WithRSAEncryption
        Issuer: DC=org, DC=mplane, OU=Root-CA, CN=Root-CA-1
        Validity
            Not Before: Dec 10 14:11:11 2014 GMT
            Not After : Dec  9 14:11:11 2016 GMT
        Subject: DC=org, DC=mplane, O=SSB, OU=Components, CN=Component-2
        Subject Public Key Info:
            Public Key Algorithm: rsaEncryption
                Public-Key: (2048 bit)
                Modulus:
                    00:bf:86:e7:0c:db:bb:93:3a:01:84:ca:99:ae:86:
                    a3:5a:b7:5b:4e:88:e8:44:52:cb:54:ef:96:c8:64:
                    c3:f2:8d:2b:fc:f4:30:34:d4:0f:fe:09:6d:4e:f5:
                    95:5e:33:3f:de:6e:63:d0:fc:64:1c:6f:26:b3:d9:
                    4d:2c:d1:99:5a:d9:0e:a4:a4:72:5c:f4:29:89:b5:
                    5b:3f:7f:68:bf:99:be:f7:e6:7a:ff:ed:3e:6f:af:
                    37:f0:e4:97:07:51:54:42:6f:47:9b:5d:ad:60:df:
                    21:2c:e9:0a:9f:79:9a:16:f9:77:59:76:f2:f8:cd:
                    fd:18:64:00:9c:4e:19:26:d6:54:24:3a:31:e9:a3:
                    78:a9:fc:70:b5:70:b4:58:97:13:08:2e:7b:d6:ce:
                    cb:11:ba:3e:e1:e5:b7:3a:13:af:a9:31:d4:a3:79:
                    d5:73:d6:95:ac:c5:e7:12:ff:4b:13:95:b6:50:d0:
                    72:c5:94:88:86:c2:d7:c7:e7:fb:3c:6e:57:9c:b7:
                    af:be:0b:91:fd:b8:8d:8d:27:c2:c4:52:94:3a:07:
                    26:a2:f1:15:5e:81:d8:98:7f:fc:d5:eb:83:cf:9b:
                    e7:82:a4:c2:ca:ec:8d:3a:96:ae:4b:7f:f7:88:72:
                    66:29:ce:da:af:fc:0d:f5:b5:fb:a2:25:47:d2:76:
                    5f:97
                Exponent: 65537 (0x10001)
        X509v3 extensions:
            X509v3 Key Usage: critical
                Digital Signature, Key Encipherment
            X509v3 Basic Constraints: 
                CA:FALSE
            X509v3 Extended Key Usage: 
                TLS Web Server Authentication, TLS Web Client Authentication
            X509v3 Subject Key Identifier: 
                B0:44:64:09:4B:94:15:DC:04:C3:4D:58:ED:39:C5:35:D5:05:43:B1
            X509v3 Authority Key Identifier: 
                keyid:5B:74:DB:A9:23:6B:AF:29:24:ED:21:13:BE:34:DB:94:CB:24:62:F0

            X509v3 Subject Alternative Name: 
                DNS:Component-2.SSB.mplane.org
    Signature Algorithm: sha1WithRSAEncryption
         35:b3:de:98:f4:f9:95:28:de:bf:ae:46:ed:73:87:b4:12:08:
         1d:9b:e9:27:8a:be:d1:9b:52:21:03:33:29:c1:f4:a3:1f:55:
         fc:7d:3e:30:8d:c7:26:ee:62:66:d5:03:38:7c:52:5e:aa:6d:
         1b:a4:1e:0e:09:0a:e1:f4:8c:16:c0:ee:22:f9:39:6e:a3:48:
         97:68:cb:50:8a:5d:be:76:d6:11:fa:80:f1:13:13:5b:02:79:
         20:38:4c:93:cc:11:9f:97:da:25:ee:3a:68:45:75:f3:be:34:
         24:4c:66:25:e5:eb:8a:84:8d:2c:db:ee:4e:3e:cc:be:f6:31:
         36:8a:a3:bf:fa:6c:ff:f8:bf:30:c8:74:00:92:55:03:ff:a2:
         db:1b:e3:8f:3c:45:bd:ef:15:c0:47:c3:77:69:a2:96:d1:91:
         61:e3:a4:c1:50:c7:c1:0f:a5:b7:e4:d8:f6:c6:78:da:bb:01:
         9a:08:6c:d1:98:aa:ec:47:db:a7:ed:a6:8b:c2:e5:01:39:fc:
         b6:29:53:72:a3:d2:6b:e8:c2:05:96:c9:64:5e:87:8e:1f:37:
         a5:f1:68:8d:9c:71:90:0a:83:4a:b0:ab:37:26:57:29:17:e6:
         97:57:78:5d:84:ae:49:6e:7f:f0:ea:dd:d5:c9:aa:aa:70:30:
         ec:4e:b6:64:14:6e:9a:3c:70:d7:3e:4a:93:cc:7e:15:f9:35:
         50:f1:de:fa:07:67:d2:f4:e3:a8:7c:d4:ad:a7:e6:a0:9b:57:
         1c:03:57:b0:eb:0d:6f:51:8d:82:33:9c:02:e6:1a:e3:0c:c6:
         f1:7c:d8:fa:23:65:0a:cc:95:01:1d:b6:03:9e:63:fb:c6:42:
         40:0d:4e:7a:f7:49:32:dc:ff:a2:fe:70:b1:93:15:44:30:55:
         69:9f:4d:e8:58:ca:7a:34:6b:13:0e:88:8a:7f:9a:88:b1:89:
         2f:86:b0:a7:be:3c:0c:42:36:31:b0:36:aa:a6:4d:09:b8:36:
         b2:c6:6c:55:49:99:2f:57:81:fd:44:02:c6:18:7c:26:7c:15:
         66:72:eb:b3:7f:4a:31:8c:eb:db:22:e7:fc:79:5f:2b:24:c3:
         8d:f9:e3:e8:cc:c9:47:40:a8:a2:47:64:d9:89:0e:b0:67:09:
         9a:71:e5:fd:31:ed:ba:fc:4a:73:a8:10:6a:14:02:3e:87:d9:
         97:b5:ec:0c:8f:79:f0:22:7a:87:58:8a:be:ac:13:28:f6:19:
         77:ea:b0:ee:be:70:ee:9e:1b:33:d3:c9:22:90:85:be:12:f1:
         b2:9e:e1:a9:ea:ee:17:fe:77:61:aa:ab:cd:c0:05:a5:b5:3d:
         15:18:49:75:ef:b6:dd:f4
-----BEGIN CERTIFICATE-----
MIIE2TCCAsGgAwIBAgIBCjANBgkqhkiG9w0BAQUFADBTMRMwEQYKCZImiZPyLGQB
GRYDb3JnMRYwFAYKCZImiZPyLGQBGRYGbXBsYW5lMRAwDgYDVQQLDAdSb290LUNB
MRIwEAYDVQQDDAlSb290LUNBLTEwHhcNMTQxMjEwMTQxMTExWhcNMTYxMjA5MTQx
MTExWjBmMRMwEQYKCZImiZPyLGQBGRYDb3JnMRYwFAYKCZImiZPyLGQBGRYGbXBs
YW5lMQwwCgYDVQQKDANTU0IxEzARBgNVBAsMCkNvbXBvbmVudHMxFDASBgNVBAMM
C0NvbXBvbmVudC0yMIIBIjANBgkqhkiG9w0BAQEFAAOCAQ8AMIIBCgKCAQEAv4bn
DNu7kzoBhMqZroajWrdbTojoRFLLVO+WyGTD8o0r/PQwNNQP/gltTvWVXjM/3m5j
0PxkHG8ms9lNLNGZWtkOpKRyXPQpibVbP39ov5m+9+Z6/+0+b6838OSXB1FUQm9H
m12tYN8hLOkKn3maFvl3WXby+M39GGQAnE4ZJtZUJDox6aN4qfxwtXC0WJcTCC57
1s7LEbo+4eW3OhOvqTHUo3nVc9aVrMXnEv9LE5W2UNByxZSIhsLXx+f7PG5XnLev
vguR/biNjSfCxFKUOgcmovEVXoHYmH/81euDz5vngqTCyuyNOpauS3/3iHJmKc7a
r/wN9bX7oiVH0nZflwIDAQABo4GkMIGhMA4GA1UdDwEB/wQEAwIFoDAJBgNVHRME
AjAAMB0GA1UdJQQWMBQGCCsGAQUFBwMBBggrBgEFBQcDAjAdBgNVHQ4EFgQUsERk
CUuUFdwEw01Y7TnFNdUFQ7EwHwYDVR0jBBgwFoAUW3TbqSNrrykk7SETvjTblMsk
YvAwJQYDVR0RBB4wHIIaQ29tcG9uZW50LTIuU1NCLm1wbGFuZS5vcmcwDQYJKoZI
hvcNAQEFBQADggIBADWz3pj0+ZUo3r+uRu1zh7QSCB2b6SeKvtGbUiEDMynB9KMf
Vfx9PjCNxybuYmbVAzh8Ul6qbRukHg4JCuH0jBbA7iL5OW6jSJdoy1CKXb521hH6
gPETE1sCeSA4TJPMEZ+X2iXuOmhFdfO+NCRMZiXl64qEjSzb7k4+zL72MTaKo7/6
bP/4vzDIdACSVQP/otsb4488Rb3vFcBHw3dpopbRkWHjpMFQx8EPpbfk2PbGeNq7
AZoIbNGYquxH26ftpovC5QE5/LYpU3Kj0mvowgWWyWReh44fN6XxaI2ccZAKg0qw
qzcmVykX5pdXeF2Erkluf/Dq3dXJqqpwMOxOtmQUbpo8cNc+SpPMfhX5NVDx3voH
Z9L046h81K2n5qCbVxwDV7DrDW9RjYIznALmGuMMxvF82PojZQrMlQEdtgOeY/vG
QkANTnr3STLc/6L+cLGTFUQwVWmfTehYyno0axMOiIp/moixiS+GsKe+PAxCNjGw
NqqmTQm4NrLGbFVJmS9Xgf1EAsYYfCZ8FWZy67N/SjGM69si5/x5Xyskw4354+jM
yUdAqKJHZNmJDrBnCZpx5f0x7br8SnOoEGoUAj6H2Ze17AyPefAieodYir6sEyj2
GXfqsO6+cO6eGzPTySKQhb4S8bKe4anq7hf+d2Gqq83ABaW1PRUYSXXvtt30
-----END CERTIFICATE-----
