Certificate:
    Data:
        Version: 3 (0x2)
        Serial Number: 1 (0x1)
    Signature Algorithm: sha1WithRSAEncryption
        Issuer: DC=org, DC=mplane, O=mPlane, OU=mPlane CA, CN=mPlane CA
        Validity
            Not Before: Feb 24 15:02:44 2014 GMT
            Not After : Feb 24 15:02:44 2024 GMT
        Subject: DC=org, DC=mplane, O=mPlane, OU=mPlane CA, CN=mPlane CA
        Subject Public Key Info:
            Public Key Algorithm: rsaEncryption
                Public-Key: (4096 bit)
                Modulus:
                    00:a1:46:bc:f6:35:78:4f:84:22:3c:74:79:5d:96:
                    08:d7:4a:91:8f:29:0f:e3:4a:32:2d:3a:08:64:7a:
                    08:fa:dd:fa:b9:d0:32:d0:42:d5:64:73:46:88:0d:
                    f3:52:e2:8a:e0:48:10:7c:a0:72:e0:80:54:d2:97:
                    24:f6:c1:f6:27:0a:68:0a:07:63:6d:f4:75:93:04:
                    e4:5c:7f:be:1b:9e:c1:0f:f3:a0:60:dc:98:88:2b:
                    77:ef:d5:42:07:53:5a:b1:f3:00:cd:03:1e:ce:72:
                    d5:2b:f5:77:5e:cb:5a:0a:da:7b:ae:8e:b2:15:aa:
                    d2:be:1d:b7:86:b2:39:62:c5:c1:3b:49:c9:f5:68:
                    84:7a:f9:b0:c9:ca:7b:05:ea:1a:73:7c:c6:27:0e:
                    6c:e1:0c:63:0c:2b:a3:77:41:35:a7:de:3b:8d:66:
                    51:d4:e9:b0:4e:1d:13:89:a4:a4:59:32:92:04:ec:
                    99:97:09:8b:91:6a:c1:0b:c9:6f:fe:dd:e5:ec:9d:
                    d6:f6:6c:9b:dd:e9:e4:cf:17:55:df:32:e9:cc:65:
                    ee:3c:9c:f6:b6:90:18:4c:44:d0:12:fb:d2:c8:96:
                    75:26:e6:ac:6c:38:7c:e9:34:fa:2f:53:ba:93:81:
                    5b:86:c9:96:36:1e:9a:82:7b:fd:69:8d:64:42:49:
                    e0:d4:3b:69:4d:99:e2:a3:6d:5b:48:a3:e1:c3:62:
                    ee:2f:37:ca:07:df:4b:64:d0:fa:a0:5d:cf:ee:73:
                    b0:22:01:25:87:2b:bc:26:2a:6f:18:3b:91:96:74:
                    92:c7:44:67:71:1c:62:17:17:6b:a2:9d:cc:f9:ac:
                    29:2b:a7:f6:4d:d3:2e:96:e9:71:11:3f:ea:3f:c4:
                    94:35:16:82:76:28:d6:ca:d1:e8:7b:50:4c:d9:a1:
                    aa:b2:e5:8e:01:e1:6e:60:51:79:ea:4b:98:da:33:
                    fd:15:96:e7:b8:b7:4b:6c:71:8f:2b:af:5e:89:06:
                    3e:4f:4d:b1:63:54:c4:9c:18:1f:77:e9:3d:ba:c5:
                    34:63:f4:0b:8a:71:d3:1e:99:15:23:3d:c0:95:9a:
                    c5:e5:1d:0b:43:c0:fc:54:94:14:ef:16:75:02:73:
                    c0:27:30:e5:8c:19:b3:d8:0f:19:d5:4c:22:b2:69:
                    14:2e:f4:3c:a2:3f:81:fb:1e:f5:97:25:0c:33:11:
                    2b:83:8f:2c:59:c5:86:94:60:8d:c5:aa:37:0e:90:
                    a4:13:b1:5e:61:6f:27:af:58:e3:68:10:62:ec:d1:
                    f9:fe:c9:a9:ae:57:92:c6:b5:65:c3:40:79:d2:89:
                    1c:eb:2b:db:a6:da:e8:ab:80:2f:4e:b0:68:5a:b5:
                    20:37:85
                Exponent: 65537 (0x10001)
        X509v3 extensions:
            X509v3 Key Usage: critical
                Certificate Sign, CRL Sign
            X509v3 Basic Constraints: critical
                CA:TRUE
            X509v3 Subject Key Identifier: 
                DA:8F:FC:72:5E:3B:F0:F2:ED:02:9A:78:7E:3D:DB:CD:13:69:A8:1D
            X509v3 Authority Key Identifier: 
                keyid:DA:8F:FC:72:5E:3B:F0:F2:ED:02:9A:78:7E:3D:DB:CD:13:69:A8:1D

    Signature Algorithm: sha1WithRSAEncryption
         3c:02:e5:79:b3:5a:db:d8:f4:1f:ed:b7:3d:b5:41:bd:42:84:
         02:e8:f5:ca:38:85:df:e4:48:a8:f0:da:81:0b:c1:35:a5:8d:
         d3:44:52:81:0c:ed:f4:49:71:b2:9b:04:d5:7e:eb:c6:00:7a:
         0f:8f:41:49:58:f1:3c:0a:f9:25:0f:41:f4:d1:b0:1d:ae:76:
         cc:3f:67:13:21:ec:fe:11:3e:d9:ff:3c:82:e4:31:49:6a:40:
         f1:46:fb:43:ea:fd:e4:3f:f9:8f:6d:a4:0f:a4:0c:2f:a4:6f:
         1e:8b:07:50:0a:9a:c4:bb:1e:ed:81:40:40:02:a2:ed:03:c0:
         01:e6:34:e6:ce:05:37:4e:1a:5f:72:70:cb:d5:40:a7:03:66:
         4e:89:a4:79:69:c9:18:17:87:15:84:f7:04:a6:ff:32:53:20:
         dc:bd:82:6d:51:bb:c6:db:53:58:b0:ee:bd:2c:0c:35:e9:fd:
         54:56:7f:ba:fa:ea:26:6b:08:cb:05:a5:e6:86:ff:e3:46:15:
         cf:f3:31:f6:d0:d3:66:70:50:a9:6c:5e:77:42:73:36:21:a0:
         0f:b4:1b:68:ed:b1:9d:92:be:54:4d:7f:7a:02:57:b8:e0:16:
         84:0d:30:dd:60:f8:31:88:de:ba:7b:ea:a4:4b:2b:af:58:66:
         64:85:a3:ed:42:19:42:e9:9b:7d:3f:7e:a6:52:ac:8b:37:67:
         ec:84:9d:39:f8:05:47:19:b4:83:36:05:30:35:c2:67:cd:5a:
         fa:7e:f7:bc:b8:e3:42:6f:c7:48:06:dd:07:0f:b5:07:b6:ce:
         29:5f:66:ab:e3:b5:30:57:63:4a:69:86:53:2a:db:02:15:7e:
         9f:5f:b4:2b:f8:12:31:96:86:92:e3:6d:ed:bf:f6:46:3d:c7:
         bb:91:0b:e1:1a:bf:2d:c9:3b:5f:06:74:cf:05:54:a1:b0:69:
         d3:c1:72:9c:67:38:9b:02:d1:41:93:28:9b:7a:3d:f8:f4:60:
         2a:2f:8d:69:ba:38:57:cf:e7:e0:f6:72:46:37:43:89:a9:c8:
         b2:d1:41:74:23:ce:4a:d4:80:cc:99:06:53:f4:4e:11:ae:f6:
         9d:8f:d8:6b:5f:f6:85:19:65:3e:b2:70:5a:a0:2a:3d:6e:86:
         2e:7f:aa:52:f7:29:e1:5a:f3:3d:e4:06:11:79:37:ff:4a:cb:
         a7:c8:3c:69:af:bb:02:d1:a1:ad:83:99:1e:81:17:a4:d4:57:
         8a:ab:6e:53:ab:e9:46:b6:3a:2a:ec:83:59:ab:8e:7b:de:f8:
         a4:a9:c7:62:90:74:3f:40:15:24:e0:44:ff:df:7d:e3:90:3a:
         74:46:56:8c:1c:91:8e:08
-----BEGIN CERTIFICATE-----
MIIFqjCCA5KgAwIBAgIBATANBgkqhkiG9w0BAQUFADBmMRMwEQYKCZImiZPyLGQB
GRYDb3JnMRYwFAYKCZImiZPyLGQBGRYGbXBsYW5lMQ8wDQYDVQQKDAZtUGxhbmUx
EjAQBgNVBAsMCW1QbGFuZSBDQTESMBAGA1UEAwwJbVBsYW5lIENBMB4XDTE0MDIy
NDE1MDI0NFoXDTI0MDIyNDE1MDI0NFowZjETMBEGCgmSJomT8ixkARkWA29yZzEW
MBQGCgmSJomT8ixkARkWBm1wbGFuZTEPMA0GA1UECgwGbVBsYW5lMRIwEAYDVQQL
DAltUGxhbmUgQ0ExEjAQBgNVBAMMCW1QbGFuZSBDQTCCAiIwDQYJKoZIhvcNAQEB
BQADggIPADCCAgoCggIBAKFGvPY1eE+EIjx0eV2WCNdKkY8pD+NKMi06CGR6CPrd
+rnQMtBC1WRzRogN81LiiuBIEHygcuCAVNKXJPbB9icKaAoHY230dZME5Fx/vhue
wQ/zoGDcmIgrd+/VQgdTWrHzAM0DHs5y1Sv1d17LWgrae66OshWq0r4dt4ayOWLF
wTtJyfVohHr5sMnKewXqGnN8xicObOEMYwwro3dBNafeO41mUdTpsE4dE4mkpFky
kgTsmZcJi5FqwQvJb/7d5eyd1vZsm93p5M8XVd8y6cxl7jyc9raQGExE0BL70siW
dSbmrGw4fOk0+i9TupOBW4bJljYemoJ7/WmNZEJJ4NQ7aU2Z4qNtW0ij4cNi7i83
ygffS2TQ+qBdz+5zsCIBJYcrvCYqbxg7kZZ0ksdEZ3EcYhcXa6KdzPmsKSun9k3T
LpbpcRE/6j/ElDUWgnYo1srR6HtQTNmhqrLljgHhbmBReepLmNoz/RWW57i3S2xx
jyuvXokGPk9NsWNUxJwYH3fpPbrFNGP0C4px0x6ZFSM9wJWaxeUdC0PA/FSUFO8W
dQJzwCcw5YwZs9gPGdVMIrJpFC70PKI/gfse9ZclDDMRK4OPLFnFhpRgjcWqNw6Q
pBOxXmFvJ69Y42gQYuzR+f7Jqa5Xksa1ZcNAedKJHOsr26ba6KuAL06waFq1IDeF
AgMBAAGjYzBhMA4GA1UdDwEB/wQEAwIBBjAPBgNVHRMBAf8EBTADAQH/MB0GA1Ud
DgQWBBTaj/xyXjvw8u0Cmnh+PdvNE2moHTAfBgNVHSMEGDAWgBTaj/xyXjvw8u0C
mnh+PdvNE2moHTANBgkqhkiG9w0BAQUFAAOCAgEAPALlebNa29j0H+23PbVBvUKE
Auj1yjiF3+RIqPDagQvBNaWN00RSgQzt9ElxspsE1X7rxgB6D49BSVjxPAr5JQ9B
9NGwHa52zD9nEyHs/hE+2f88guQxSWpA8Ub7Q+r95D/5j22kD6QML6RvHosHUAqa
xLse7YFAQAKi7QPAAeY05s4FN04aX3Jwy9VApwNmTomkeWnJGBeHFYT3BKb/MlMg
3L2CbVG7xttTWLDuvSwMNen9VFZ/uvrqJmsIywWl5ob/40YVz/Mx9tDTZnBQqWxe
d0JzNiGgD7QbaO2xnZK+VE1/egJXuOAWhA0w3WD4MYjeunvqpEsrr1hmZIWj7UIZ
QumbfT9+plKsizdn7ISdOfgFRxm0gzYFMDXCZ81a+n73vLjjQm/HSAbdBw+1B7bO
KV9mq+O1MFdjSmmGUyrbAhV+n1+0K/gSMZaGkuNt7b/2Rj3Hu5EL4Rq/Lck7XwZ0
zwVUobBp08FynGc4mwLRQZMom3o9+PRgKi+Nabo4V8/n4PZyRjdDianIstFBdCPO
StSAzJkGU/ROEa72nY/Ya1/2hRllPrJwWqAqPW6GLn+qUvcp4VrzPeQGEXk3/0rL
p8g8aa+7AtGhrYOZHoEXpNRXiqtuU6vpRrY6KuyDWauOe974pKnHYpB0P0AVJOBE
/99945A6dEZWjByRjgg=
-----END CERTIFICATE-----
