Certificate:
    Data:
        Version: 3 (0x2)
        Serial Number: 2 (0x2)
    Signature Algorithm: sha1WithRSAEncryption
        Issuer: DC=org, DC=mplane, O=mPlane, OU=mPlane CA, CN=mPlane CA
        Validity
            Not Before: Feb 24 16:25:38 2014 GMT
            Not After : Feb 24 16:25:38 2024 GMT
        Subject: DC=org, DC=mplane, O=mPlane, OU=mPlane Signing CA, CN=mPlane Signing CA
        Subject Public Key Info:
            Public Key Algorithm: rsaEncryption
                Public-Key: (4096 bit)
                Modulus:
                    00:be:65:ab:53:51:b2:d4:b4:79:22:0e:75:7c:e4:
                    69:b4:0c:d0:90:79:16:d1:5a:10:ca:59:d2:00:a7:
                    8c:26:ba:80:1d:db:9d:70:5a:63:04:a5:d9:02:d3:
                    1b:6b:73:0a:a0:76:fc:97:b1:5a:45:20:0f:c8:ab:
                    ef:18:1d:79:a6:c6:1e:31:6a:1d:8e:38:e4:c7:b2:
                    09:85:1d:38:8b:1f:84:ce:ae:ce:c7:e7:48:60:8b:
                    dd:6b:65:bd:db:24:f4:73:57:47:01:d8:5a:07:e2:
                    cc:ae:2f:2f:f6:7b:20:16:57:2d:2f:6c:47:84:fc:
                    ea:16:cf:65:1e:1f:8e:1a:cb:83:91:5e:57:90:bf:
                    a0:52:4d:e8:20:c7:04:c8:a6:5d:70:18:24:b8:06:
                    f3:f6:4f:ce:15:a6:14:ab:52:50:08:e8:51:1d:98:
                    26:d3:0d:6f:1f:e9:59:1a:00:22:0b:de:be:00:a5:
                    f4:a4:04:42:b9:f0:79:0e:85:bd:e4:e7:e2:3f:2f:
                    58:e3:2b:f6:d5:c1:92:12:fe:89:74:11:88:13:60:
                    60:45:94:7d:29:74:2f:f2:95:53:af:a3:8d:b4:f4:
                    86:72:90:d4:dd:dd:62:60:f8:42:be:f7:23:92:a2:
                    4d:9a:b8:6b:db:e1:89:45:ea:96:48:e1:57:d3:03:
                    ff:22:9d:44:b5:c3:12:0b:9d:8c:ca:5b:b9:bc:ab:
                    fd:aa:8a:6b:4e:b4:f0:06:cc:13:68:4b:09:93:d3:
                    35:9d:65:cf:14:b1:00:88:90:d2:7a:ca:a3:96:08:
                    ba:ad:ef:49:2e:89:e9:1b:ca:b0:6e:69:4d:06:4f:
                    ae:fd:f7:ac:e4:41:d4:ad:75:d9:30:b9:d7:7f:c3:
                    07:42:d1:b8:cb:9c:aa:e8:ec:84:45:e6:55:5c:63:
                    68:36:57:5f:4b:9b:d0:99:2b:77:3d:86:3e:93:3c:
                    5a:61:87:ba:1f:73:ca:f8:57:e4:04:b1:31:a5:64:
                    66:84:4c:94:82:3a:91:b4:6a:e2:98:a7:96:5c:69:
                    dd:b6:4e:c0:2f:a9:7b:8b:d1:a7:d0:e5:f9:d5:35:
                    3a:56:b9:6b:de:c7:90:23:44:b7:4a:9f:62:03:ef:
                    9d:87:38:37:f3:5a:c3:db:30:90:cc:ae:b3:60:e2:
                    96:d0:43:60:36:6f:3d:ea:5d:86:c6:2a:ec:ed:6d:
                    cf:3e:43:40:22:11:57:ff:67:ab:0f:7e:ea:4d:16:
                    e7:b5:f3:d8:71:c6:01:2a:4c:1c:f2:47:c6:0e:89:
                    01:30:59:f2:59:e6:ae:fa:da:95:b0:a5:72:bd:39:
                    62:b7:41:61:45:16:44:cd:72:38:36:19:37:26:b3:
                    c8:67:4b
                Exponent: 65537 (0x10001)
        X509v3 extensions:
            X509v3 Key Usage: critical
                Certificate Sign, CRL Sign
            X509v3 Basic Constraints: critical
                CA:TRUE, pathlen:0
            X509v3 Subject Key Identifier: 
                A5:E8:D3:21:71:D2:1A:C9:53:85:85:1D:2D:BC:87:17:2A:81:F2:F4
            X509v3 Authority Key Identifier: 
                keyid:DA:8F:FC:72:5E:3B:F0:F2:ED:02:9A:78:7E:3D:DB:CD:13:69:A8:1D

    Signature Algorithm: sha1WithRSAEncryption
         55:30:a4:04:5d:a9:c9:3e:e3:88:d8:1f:e4:2d:00:d7:4e:27:
         de:80:34:26:d4:2f:18:6a:62:b6:5a:38:de:de:c2:40:41:35:
         90:f1:ec:aa:53:6a:50:a3:5f:05:cc:0b:90:12:90:d3:b2:3a:
         69:ba:e1:ce:f2:24:46:86:c6:be:0f:cd:64:5e:03:03:58:e0:
         22:ed:37:fa:4e:25:5b:9d:2f:26:6d:43:2b:06:b1:cf:0b:16:
         dc:1a:2b:4c:0b:28:a4:25:e7:f8:e4:9a:ac:ca:4e:f3:70:b0:
         e8:12:88:ff:52:6e:10:ae:07:f3:c0:de:e9:ad:49:8a:ea:c2:
         82:7f:dd:1f:35:3a:ff:28:fb:86:cb:81:24:4e:3e:c5:25:38:
         38:81:92:80:e7:71:4b:c3:1e:d3:6f:85:1e:00:7a:5c:76:7a:
         3b:b4:9d:44:4a:86:37:e3:d7:04:fd:4d:40:2d:51:a6:37:92:
         87:d9:bd:0e:c0:fb:86:bd:e6:bf:b9:51:ee:15:d4:40:c5:38:
         fc:6c:e4:88:5b:98:ec:df:ad:71:b5:3e:2e:5c:40:77:06:72:
         45:e5:34:19:6d:9d:a6:91:a3:3a:cc:71:e2:99:06:6b:22:7d:
         60:9f:d8:b6:78:f7:21:ed:db:da:4d:21:96:da:94:54:18:d2:
         62:54:20:20:6e:fe:d4:6c:9a:96:0b:84:34:77:01:b4:4c:a5:
         9c:16:62:a2:db:d0:ca:ab:d1:9a:16:cf:83:c2:30:e4:cd:4b:
         bd:ec:64:d7:1a:60:91:21:ee:43:19:6d:a4:dd:92:13:e6:50:
         6b:d1:c7:85:3d:39:0a:89:57:e3:6f:d2:7b:7b:f1:aa:ee:c1:
         8d:63:cd:11:fa:d5:29:56:9e:f1:b6:fc:c8:5f:71:2f:3a:6b:
         70:a7:f6:b8:ac:77:d3:70:fd:d2:31:cc:6f:9d:ab:25:6e:90:
         ab:f2:af:73:f5:29:95:74:c1:af:12:1b:51:cd:42:13:8e:ff:
         2f:96:d8:4d:15:4c:42:b0:83:4c:02:2a:cf:89:b5:34:c2:58:
         60:c1:63:c4:9d:c8:9a:bf:91:5d:40:1f:00:11:66:f4:b4:f2:
         9f:aa:22:4e:c3:45:1f:b3:84:92:2a:f3:d7:d1:13:34:ca:e6:
         b8:2e:60:14:17:f5:02:d1:aa:d8:9c:dd:8e:e2:ef:ce:9f:92:
         e7:83:03:cf:03:3d:cb:db:26:47:63:af:dd:37:a7:0c:e3:fd:
         da:10:c1:4e:09:48:0c:5b:a3:e7:67:cb:a0:13:be:0a:84:67:
         a4:d4:f0:c7:e6:82:80:7b:4e:15:61:70:b2:b1:e1:57:30:b8:
         3e:52:c8:74:54:3e:56:00
-----BEGIN CERTIFICATE-----
MIIFvTCCA6WgAwIBAgIBAjANBgkqhkiG9w0BAQUFADBmMRMwEQYKCZImiZPyLGQB
GRYDb3JnMRYwFAYKCZImiZPyLGQBGRYGbXBsYW5lMQ8wDQYDVQQKDAZtUGxhbmUx
EjAQBgNVBAsMCW1QbGFuZSBDQTESMBAGA1UEAwwJbVBsYW5lIENBMB4XDTE0MDIy
NDE2MjUzOFoXDTI0MDIyNDE2MjUzOFowdjETMBEGCgmSJomT8ixkARkWA29yZzEW
MBQGCgmSJomT8ixkARkWBm1wbGFuZTEPMA0GA1UECgwGbVBsYW5lMRowGAYDVQQL
DBFtUGxhbmUgU2lnbmluZyBDQTEaMBgGA1UEAwwRbVBsYW5lIFNpZ25pbmcgQ0Ew
ggIiMA0GCSqGSIb3DQEBAQUAA4ICDwAwggIKAoICAQC+ZatTUbLUtHkiDnV85Gm0
DNCQeRbRWhDKWdIAp4wmuoAd251wWmMEpdkC0xtrcwqgdvyXsVpFIA/Iq+8YHXmm
xh4xah2OOOTHsgmFHTiLH4TOrs7H50hgi91rZb3bJPRzV0cB2FoH4syuLy/2eyAW
Vy0vbEeE/OoWz2UeH44ay4ORXleQv6BSTeggxwTIpl1wGCS4BvP2T84VphSrUlAI
6FEdmCbTDW8f6VkaACIL3r4ApfSkBEK58HkOhb3k5+I/L1jjK/bVwZIS/ol0EYgT
YGBFlH0pdC/ylVOvo4209IZykNTd3WJg+EK+9yOSok2auGvb4YlF6pZI4VfTA/8i
nUS1wxILnYzKW7m8q/2qimtOtPAGzBNoSwmT0zWdZc8UsQCIkNJ6yqOWCLqt70ku
iekbyrBuaU0GT67996zkQdStddkwudd/wwdC0bjLnKro7IRF5lVcY2g2V19Lm9CZ
K3c9hj6TPFphh7ofc8r4V+QEsTGlZGaETJSCOpG0auKYp5Zcad22TsAvqXuL0afQ
5fnVNTpWuWvex5AjRLdKn2ID752HODfzWsPbMJDMrrNg4pbQQ2A2bz3qXYbGKuzt
bc8+Q0AiEVf/Z6sPfupNFue189hxxgEqTBzyR8YOiQEwWfJZ5q762pWwpXK9OWK3
QWFFFkTNcjg2GTcms8hnSwIDAQABo2YwZDAOBgNVHQ8BAf8EBAMCAQYwEgYDVR0T
AQH/BAgwBgEB/wIBADAdBgNVHQ4EFgQUpejTIXHSGslThYUdLbyHFyqB8vQwHwYD
VR0jBBgwFoAU2o/8cl478PLtApp4fj3bzRNpqB0wDQYJKoZIhvcNAQEFBQADggIB
AFUwpARdqck+44jYH+QtANdOJ96ANCbULxhqYrZaON7ewkBBNZDx7KpTalCjXwXM
C5ASkNOyOmm64c7yJEaGxr4PzWReAwNY4CLtN/pOJVudLyZtQysGsc8LFtwaK0wL
KKQl5/jkmqzKTvNwsOgSiP9SbhCuB/PA3umtSYrqwoJ/3R81Ov8o+4bLgSROPsUl
ODiBkoDncUvDHtNvhR4Aelx2eju0nURKhjfj1wT9TUAtUaY3kofZvQ7A+4a95r+5
Ue4V1EDFOPxs5IhbmOzfrXG1Pi5cQHcGckXlNBltnaaRozrMceKZBmsifWCf2LZ4
9yHt29pNIZbalFQY0mJUICBu/tRsmpYLhDR3AbRMpZwWYqLb0Mqr0ZoWz4PCMOTN
S73sZNcaYJEh7kMZbaTdkhPmUGvRx4U9OQqJV+Nv0nt78aruwY1jzRH61SlWnvG2
/MhfcS86a3Cn9risd9Nw/dIxzG+dqyVukKvyr3P1KZV0wa8SG1HNQhOO/y+W2E0V
TEKwg0wCKs+JtTTCWGDBY8SdyJq/kV1AHwARZvS08p+qIk7DRR+zhJIq89fREzTK
5rguYBQX9QLRqtic3Y7i786fkueDA88DPcvbJkdjr903pwzj/doQwU4JSAxbo+dn
y6ATvgqEZ6TU8MfmgoB7ThVhcLKx4VcwuD5SyHRUPlYA
-----END CERTIFICATE-----
