Certificate:
    Data:
        Version: 3 (0x2)
        Serial Number: 1 (0x1)
    Signature Algorithm: sha1WithRSAEncryption
        Issuer: DC=org, DC=mplane, O=Test PKI, OU=Test Root CA, CN=Test Root CA
        Validity
            Not Before: Apr 29 08:43:53 2014 GMT
            Not After : Apr 28 08:43:53 2024 GMT
        Subject: DC=org, DC=mplane, O=Test PKI, OU=Test Root CA, CN=Test Root CA
        Subject Public Key Info:
            Public Key Algorithm: rsaEncryption
                Public-Key: (4096 bit)
                Modulus:
                    00:d3:a2:10:0f:ce:d3:fc:3c:d0:b0:65:03:0d:b9:
                    30:75:aa:4d:eb:e9:6d:f5:90:cc:59:e8:e0:fd:5a:
                    a3:df:ab:d3:88:00:c4:5f:ea:87:55:66:ed:d9:37:
                    8a:5c:2a:52:38:86:4e:d3:e4:34:69:cc:f3:be:d6:
                    c4:14:2d:34:1d:78:f4:92:37:fe:8c:98:52:a3:1b:
                    53:04:96:5c:86:cf:09:34:74:a0:41:8a:a3:d9:63:
                    e9:30:66:9f:1a:63:20:f5:0e:fe:05:18:49:16:e7:
                    cb:39:f8:6a:32:3b:cf:86:16:f6:12:a1:c7:21:6c:
                    b0:ed:fc:fb:4d:58:b1:45:b2:8f:8d:cf:20:26:34:
                    74:9a:09:69:fb:30:fb:aa:62:41:e9:96:fd:fc:69:
                    06:39:a7:96:4c:2e:b3:dd:cf:dc:e5:6c:cb:6f:d6:
                    69:54:d9:56:dd:13:ac:e7:98:e1:f0:b7:3d:f6:f3:
                    de:18:6d:f6:cd:ba:5c:70:72:a8:fa:24:73:da:4d:
                    a6:28:8e:b0:c5:14:77:94:36:b1:63:56:a8:d0:1d:
                    87:7d:71:b2:aa:f4:e7:23:e5:77:93:c0:b9:60:b6:
                    cf:c4:71:8a:43:53:9d:eb:ad:31:94:30:93:36:8c:
                    c6:c7:58:2d:b1:57:36:4a:7f:6d:46:9d:b2:0b:8f:
                    7f:35:a8:cc:4e:02:24:7a:d0:22:6b:09:40:74:1b:
                    8c:3d:56:07:f3:f0:76:aa:61:f5:0b:dd:08:40:a7:
                    cc:eb:2f:24:23:25:f4:cb:bd:4a:43:f5:f2:d6:ab:
                    08:20:98:cf:1b:66:70:06:45:71:b6:01:c0:e2:c4:
                    b4:76:bd:da:db:c1:50:90:ca:9e:d8:60:a8:83:d6:
                    1c:0c:d9:92:5f:b1:a1:be:70:0f:45:6e:4a:26:5d:
                    48:25:ea:5f:69:ba:7a:f8:3f:11:0d:5b:6e:47:36:
                    ba:65:9b:37:f4:a5:72:6e:07:30:82:bf:b4:55:54:
                    4d:24:28:48:a5:20:cb:2b:75:21:70:0e:01:47:fe:
                    d0:51:28:90:f6:3f:8e:33:a0:aa:97:1c:8c:de:a5:
                    02:03:eb:36:0e:70:33:54:b8:8a:cb:3d:96:a2:88:
                    4e:bc:49:d2:4b:87:4d:b4:b7:0e:36:56:8f:73:2f:
                    84:ab:e8:e6:fa:86:06:27:71:b3:e4:02:b2:7f:36:
                    89:5a:e1:14:3e:89:eb:15:32:a4:a7:14:7a:82:da:
                    e1:02:56:83:71:89:29:b9:8f:96:ca:9d:7f:1a:eb:
                    4e:8b:48:ef:f9:97:73:95:ad:6c:7d:9b:c4:f8:dd:
                    89:90:50:bb:89:70:c2:83:1f:6a:6c:42:c6:a6:d0:
                    94:41:f9
                Exponent: 65537 (0x10001)
        X509v3 extensions:
            X509v3 Key Usage: critical
                Certificate Sign, CRL Sign
            X509v3 Basic Constraints: critical
                CA:TRUE
            X509v3 Subject Key Identifier: 
                18:A8:D4:C1:82:39:3A:10:1C:AA:1E:25:0E:C9:7E:AD:70:3B:E0:1C
            X509v3 Authority Key Identifier: 
                keyid:18:A8:D4:C1:82:39:3A:10:1C:AA:1E:25:0E:C9:7E:AD:70:3B:E0:1C

    Signature Algorithm: sha1WithRSAEncryption
         90:4b:28:51:3f:de:70:e2:e9:2e:fd:e1:88:b7:ac:cd:87:98:
         db:dc:13:12:ff:d0:70:b2:27:a3:a9:66:34:06:e8:a8:9d:24:
         4f:e9:8b:26:0d:df:78:ff:03:27:1d:05:8e:1e:fd:09:dd:4a:
         c2:74:f7:82:f4:b0:dd:ed:c8:1e:cc:6c:42:d1:2b:96:ea:43:
         0c:c5:f1:51:f9:55:b1:1b:3b:73:7e:b5:61:e2:31:38:b0:66:
         3f:89:81:b0:dc:74:7c:97:24:f2:fe:da:b7:90:30:f2:81:11:
         de:70:cf:61:46:ef:2d:fa:45:78:67:62:8b:ce:70:13:83:d5:
         93:65:b5:cb:fa:79:da:4d:fe:07:67:d4:ab:c8:2d:94:ee:62:
         a6:d8:b9:5f:68:cb:32:4d:a6:a3:ff:3b:33:be:c0:ff:f3:10:
         a2:57:a5:6a:61:ac:2e:af:74:f0:0d:13:26:5f:42:5f:9d:dd:
         5b:1a:ca:ab:d3:81:b6:93:35:f1:23:28:91:49:d9:9c:76:8b:
         88:a9:6c:74:af:49:11:35:18:21:92:e5:fb:fa:92:72:ca:d1:
         92:78:55:39:60:25:0d:61:0c:e3:0a:b4:65:a5:9b:99:20:45:
         44:8a:0b:5c:93:82:ed:a9:a7:51:9e:07:fb:b1:b2:a2:53:1b:
         8b:44:4e:7b:bf:27:33:93:92:36:c8:9d:98:9a:6f:0c:b2:4a:
         03:01:62:ba:77:ed:f0:78:68:f0:0f:c5:91:3b:d6:ec:46:6c:
         5f:ba:9d:1f:6e:1d:22:9e:67:18:72:27:12:66:62:5d:52:53:
         d3:b0:0e:a5:49:25:43:32:d1:4d:ab:6a:54:25:0f:9b:b4:c4:
         ed:6b:23:0d:1e:77:84:c3:ab:e1:73:5e:5d:9e:39:e9:ff:65:
         15:d2:cd:3a:64:9f:8c:e5:6a:11:70:d3:94:b0:0a:48:c6:d7:
         3d:78:5a:10:d0:49:5d:ac:ae:40:6c:da:07:23:98:dc:0a:d7:
         a0:25:7f:3e:62:0a:6d:7a:37:2d:73:08:1c:ea:c0:06:87:59:
         ee:39:05:8e:04:12:9e:36:a5:df:42:e7:8a:ed:d8:2d:90:72:
         5b:e1:ee:68:d9:f2:a1:7e:ae:f0:97:77:75:95:85:36:40:03:
         11:4f:8c:d6:24:57:bf:5e:5a:9a:69:54:75:78:6d:1a:5f:44:
         a8:d9:f3:ad:06:7a:70:73:9e:f3:60:67:ff:a0:f6:93:13:4b:
         fc:79:0d:8a:b1:27:8e:62:ce:02:a6:08:c0:10:ad:2f:09:e3:
         d7:38:6a:91:74:7e:61:25:ad:dc:0e:aa:c4:3f:0d:50:89:0a:
         48:16:af:92:26:2d:64:d1
-----BEGIN CERTIFICATE-----
MIIFujCCA6KgAwIBAgIBATANBgkqhkiG9w0BAQUFADBuMRMwEQYKCZImiZPyLGQB
GRYDb3JnMRYwFAYKCZImiZPyLGQBGRYGbXBsYW5lMREwDwYDVQQKDAhUZXN0IFBL
STEVMBMGA1UECwwMVGVzdCBSb290IENBMRUwEwYDVQQDDAxUZXN0IFJvb3QgQ0Ew
HhcNMTQwNDI5MDg0MzUzWhcNMjQwNDI4MDg0MzUzWjBuMRMwEQYKCZImiZPyLGQB
GRYDb3JnMRYwFAYKCZImiZPyLGQBGRYGbXBsYW5lMREwDwYDVQQKDAhUZXN0IFBL
STEVMBMGA1UECwwMVGVzdCBSb290IENBMRUwEwYDVQQDDAxUZXN0IFJvb3QgQ0Ew
ggIiMA0GCSqGSIb3DQEBAQUAA4ICDwAwggIKAoICAQDTohAPztP8PNCwZQMNuTB1
qk3r6W31kMxZ6OD9WqPfq9OIAMRf6odVZu3ZN4pcKlI4hk7T5DRpzPO+1sQULTQd
ePSSN/6MmFKjG1MEllyGzwk0dKBBiqPZY+kwZp8aYyD1Dv4FGEkW58s5+GoyO8+G
FvYSocchbLDt/PtNWLFFso+NzyAmNHSaCWn7MPuqYkHplv38aQY5p5ZMLrPdz9zl
bMtv1mlU2VbdE6znmOHwtz32894YbfbNulxwcqj6JHPaTaYojrDFFHeUNrFjVqjQ
HYd9cbKq9Ocj5XeTwLlgts/EcYpDU53rrTGUMJM2jMbHWC2xVzZKf21GnbILj381
qMxOAiR60CJrCUB0G4w9Vgfz8HaqYfUL3QhAp8zrLyQjJfTLvUpD9fLWqwggmM8b
ZnAGRXG2AcDixLR2vdrbwVCQyp7YYKiD1hwM2ZJfsaG+cA9FbkomXUgl6l9punr4
PxENW25HNrplmzf0pXJuBzCCv7RVVE0kKEilIMsrdSFwDgFH/tBRKJD2P44zoKqX
HIzepQID6zYOcDNUuIrLPZaiiE68SdJLh020tw42Vo9zL4Sr6Ob6hgYncbPkArJ/
Nola4RQ+iesVMqSnFHqC2uECVoNxiSm5j5bKnX8a606LSO/5l3OVrWx9m8T43YmQ
ULuJcMKDH2psQsam0JRB+QIDAQABo2MwYTAOBgNVHQ8BAf8EBAMCAQYwDwYDVR0T
AQH/BAUwAwEB/zAdBgNVHQ4EFgQUGKjUwYI5OhAcqh4lDsl+rXA74BwwHwYDVR0j
BBgwFoAUGKjUwYI5OhAcqh4lDsl+rXA74BwwDQYJKoZIhvcNAQEFBQADggIBAJBL
KFE/3nDi6S794Yi3rM2HmNvcExL/0HCyJ6OpZjQG6KidJE/piyYN33j/AycdBY4e
/QndSsJ094L0sN3tyB7MbELRK5bqQwzF8VH5VbEbO3N+tWHiMTiwZj+JgbDcdHyX
JPL+2reQMPKBEd5wz2FG7y36RXhnYovOcBOD1ZNltcv6edpN/gdn1KvILZTuYqbY
uV9oyzJNpqP/OzO+wP/zEKJXpWphrC6vdPANEyZfQl+d3VsayqvTgbaTNfEjKJFJ
2Zx2i4ipbHSvSRE1GCGS5fv6knLK0ZJ4VTlgJQ1hDOMKtGWlm5kgRUSKC1yTgu2p
p1GeB/uxsqJTG4tETnu/JzOTkjbInZiabwyySgMBYrp37fB4aPAPxZE71uxGbF+6
nR9uHSKeZxhyJxJmYl1SU9OwDqVJJUMy0U2ralQlD5u0xO1rIw0ed4TDq+FzXl2e
Oen/ZRXSzTpkn4zlahFw05SwCkjG1z14WhDQSV2srkBs2gcjmNwK16Alfz5iCm16
Ny1zCBzqwAaHWe45BY4EEp42pd9C54rt2C2Qclvh7mjZ8qF+rvCXd3WVhTZAAxFP
jNYkV79eWpppVHV4bRpfRKjZ860GenBznvNgZ/+g9pMTS/x5DYqxJ45izgKmCMAQ
rS8J49c4apF0fmElrdwOqsQ/DVCJCkgWr5ImLWTR
-----END CERTIFICATE-----
