Certificate:
    Data:
        Version: 3 (0x2)
        Serial Number: 2 (0x2)
    Signature Algorithm: sha1WithRSAEncryption
        Issuer: DC=org, DC=monroe, OU=Root-CA, CN=Root-CA-1
        Validity
            Not Before: Oct  9 13:53:00 2015 GMT
            Not After : Oct  8 13:53:00 2017 GMT
        Subject: DC=org, DC=monroe, O=POLITO, OU=Components, CN=69
        Subject Public Key Info:
            Public Key Algorithm: rsaEncryption
                Public-Key: (2048 bit)
                Modulus:
                    00:bd:4b:38:0e:9c:b2:3d:77:bb:ed:b6:0b:36:b0:
                    38:07:7b:f0:6b:ca:ec:ae:d4:01:4a:20:fd:4a:2e:
                    81:2e:c4:e4:fe:39:3c:90:9c:6d:b9:97:7e:bd:b6:
                    19:cc:c8:b2:67:32:6c:63:22:00:7b:d4:ec:c4:fd:
                    d7:40:f7:9e:55:1b:d8:27:b4:a4:61:23:2a:01:7f:
                    d9:1d:97:8f:e9:f2:9c:6f:d9:96:39:33:6c:2b:01:
                    79:61:f0:35:b7:11:c5:20:79:87:9c:ea:fc:b2:78:
                    9c:a6:2c:eb:2e:31:77:34:a1:c4:9f:1e:e2:8f:13:
                    87:fa:0b:ca:a8:1c:e2:fa:57:fb:78:cd:f5:6e:31:
                    b3:37:52:41:c3:46:86:4e:01:bb:de:14:0f:9a:ff:
                    fa:45:c3:4f:fd:ac:0c:30:1f:34:f0:d6:c3:fc:90:
                    7e:80:50:fb:a2:aa:c0:8e:4e:a7:b5:5b:47:ea:37:
                    6c:00:d4:07:5d:84:c1:e0:67:c2:e0:2a:b3:17:bc:
                    08:60:fd:8a:8e:5a:dc:27:53:08:3d:b9:c5:da:2d:
                    25:f2:0e:74:f4:fd:c5:7f:7e:d0:24:5e:d5:21:79:
                    58:0d:d0:ff:93:e7:fe:71:71:38:a4:3c:33:32:55:
                    c2:0f:e7:45:8b:5a:a7:de:d6:2a:f4:30:e6:78:ac:
                    80:9f
                Exponent: 65537 (0x10001)
        X509v3 extensions:
            X509v3 Key Usage: critical
                Digital Signature, Key Encipherment
            X509v3 Basic Constraints: 
                CA:FALSE
            X509v3 Extended Key Usage: 
                TLS Web Server Authentication, TLS Web Client Authentication
            X509v3 Subject Key Identifier: 
                3D:FD:CB:CF:1C:F7:9D:F8:26:EB:83:73:16:49:4A:A4:71:F7:77:6A
            X509v3 Authority Key Identifier: 
                keyid:D8:E8:1C:37:D0:D4:F7:24:2C:84:56:E0:17:0A:E7:23:A9:94:CA:94

            X509v3 Subject Alternative Name: 
                DNS:Component-1.POLITO.monroe.org
    Signature Algorithm: sha1WithRSAEncryption
         55:65:06:01:b8:a7:0f:d9:e2:08:39:fe:8a:3b:bb:97:c3:b4:
         0e:ee:b1:81:50:1b:cc:88:f9:af:30:b0:93:1f:bf:96:5d:42:
         88:7a:78:22:0d:9e:b7:bf:6e:d7:f4:a8:85:8f:26:92:19:f9:
         e1:83:c9:da:82:88:3f:08:44:35:c4:17:54:10:02:63:e8:ed:
         1e:37:58:03:37:13:5a:f1:ff:85:ef:3c:76:a2:89:43:c7:7b:
         34:0a:a0:ad:b0:83:ed:30:93:f6:76:0c:de:d0:2b:07:fe:cf:
         b9:3d:5f:5a:f7:30:fc:a8:d2:0d:88:4b:60:78:a2:6b:27:dc:
         dd:46:0c:0a:ac:21:20:6a:66:5b:01:03:ba:39:66:65:bc:cf:
         3c:73:a8:57:37:7c:2a:58:07:fe:81:55:38:23:7c:3f:e5:a8:
         08:a1:e9:e3:b0:de:0d:1f:53:55:71:00:02:1e:46:a9:ea:f5:
         28:b4:51:a8:17:db:9c:5b:05:c9:d3:2b:af:16:c2:c4:eb:5f:
         4a:a0:98:b3:3b:0e:2a:57:2d:ca:5c:20:cf:54:42:1b:fd:f8:
         e4:1f:37:6c:c0:4e:82:0d:c6:a0:e4:f9:f2:5b:19:9a:08:3c:
         d0:57:b4:6d:52:60:44:32:8a:79:85:53:7f:53:b3:be:61:db:
         9f:d2:b9:a6:30:7a:4f:da:77:e3:ad:7e:df:6b:78:f1:72:e2:
         8d:1e:6e:66:3a:62:70:f9:2f:e2:3a:4d:ba:40:a5:e0:72:dc:
         af:48:ac:77:04:de:fb:41:be:36:97:6a:e3:b1:f8:9b:39:f8:
         12:be:b0:c7:68:be:12:f4:af:4a:eb:db:87:dd:02:6f:c8:c4:
         3f:d4:78:c5:83:b1:c0:01:2b:1a:67:6a:61:9d:46:f4:51:10:
         fa:9e:63:ec:37:3f:e2:c7:62:d4:07:4b:e3:92:45:23:1f:4a:
         96:1f:26:69:36:96:8b:40:d1:39:7e:0c:b2:85:12:97:c6:ce:
         6b:5d:c2:21:76:45:df:2b:77:c9:20:da:15:e7:45:e5:47:75:
         03:72:27:11:a1:f6:e7:68:f5:52:7d:aa:7d:c5:75:63:61:a6:
         6b:d0:9f:fb:73:0e:82:7f:3c:a1:4f:16:87:7e:23:55:12:28:
         c5:32:f7:bd:b0:a9:c1:b7:30:e2:d7:b3:23:73:0b:74:a7:a9:
         51:27:47:f2:13:da:6c:c0:c3:01:79:8a:8d:25:66:92:82:df:
         96:78:84:fe:e6:a0:48:31:91:03:93:ba:91:1f:bb:8f:de:6a:
         b5:b3:02:92:97:ff:c8:1a:76:57:50:b0:66:83:7b:a2:a6:98:
         fc:52:53:5e:52:03:69:59
-----BEGIN CERTIFICATE-----
MIIE1jCCAr6gAwIBAgIBAjANBgkqhkiG9w0BAQUFADBTMRMwEQYKCZImiZPyLGQB
GRYDb3JnMRYwFAYKCZImiZPyLGQBGRYGbW9ucm9lMRAwDgYDVQQLDAdSb290LUNB
MRIwEAYDVQQDDAlSb290LUNBLTEwHhcNMTUxMDA5MTM1MzAwWhcNMTcxMDA4MTM1
MzAwWjBgMRMwEQYKCZImiZPyLGQBGRYDb3JnMRYwFAYKCZImiZPyLGQBGRYGbW9u
cm9lMQ8wDQYDVQQKDAZQT0xJVE8xEzARBgNVBAsMCkNvbXBvbmVudHMxCzAJBgNV
BAMMAjY5MIIBIjANBgkqhkiG9w0BAQEFAAOCAQ8AMIIBCgKCAQEAvUs4DpyyPXe7
7bYLNrA4B3vwa8rsrtQBSiD9Si6BLsTk/jk8kJxtuZd+vbYZzMiyZzJsYyIAe9Ts
xP3XQPeeVRvYJ7SkYSMqAX/ZHZeP6fKcb9mWOTNsKwF5YfA1txHFIHmHnOr8snic
pizrLjF3NKHEnx7ijxOH+gvKqBzi+lf7eM31bjGzN1JBw0aGTgG73hQPmv/6RcNP
/awMMB808NbD/JB+gFD7oqrAjk6ntVtH6jdsANQHXYTB4GfC4CqzF7wIYP2Kjlrc
J1MIPbnF2i0l8g509P3Ff37QJF7VIXlYDdD/k+f+cXE4pDwzMlXCD+dFi1qn3tYq
9DDmeKyAnwIDAQABo4GnMIGkMA4GA1UdDwEB/wQEAwIFoDAJBgNVHRMEAjAAMB0G
A1UdJQQWMBQGCCsGAQUFBwMBBggrBgEFBQcDAjAdBgNVHQ4EFgQUPf3Lzxz3nfgm
64NzFklKpHH3d2owHwYDVR0jBBgwFoAU2OgcN9DU9yQshFbgFwrnI6mUypQwKAYD
VR0RBCEwH4IdQ29tcG9uZW50LTEuUE9MSVRPLm1vbnJvZS5vcmcwDQYJKoZIhvcN
AQEFBQADggIBAFVlBgG4pw/Z4gg5/oo7u5fDtA7usYFQG8yI+a8wsJMfv5ZdQoh6
eCINnre/btf0qIWPJpIZ+eGDydqCiD8IRDXEF1QQAmPo7R43WAM3E1rx/4XvPHai
iUPHezQKoK2wg+0wk/Z2DN7QKwf+z7k9X1r3MPyo0g2IS2B4omsn3N1GDAqsISBq
ZlsBA7o5ZmW8zzxzqFc3fCpYB/6BVTgjfD/lqAih6eOw3g0fU1VxAAIeRqnq9Si0
UagX25xbBcnTK68WwsTrX0qgmLM7DipXLcpcIM9UQhv9+OQfN2zAToINxqDk+fJb
GZoIPNBXtG1SYEQyinmFU39Ts75h25/SuaYwek/ad+Otft9rePFy4o0ebmY6YnD5
L+I6TbpApeBy3K9IrHcE3vtBvjaXauOx+Js5+BK+sMdovhL0r0rr24fdAm/IxD/U
eMWDscABKxpnamGdRvRREPqeY+w3P+LHYtQHS+OSRSMfSpYfJmk2lotA0Tl+DLKF
EpfGzmtdwiF2Rd8rd8kg2hXnReVHdQNyJxGh9udo9VJ9qn3FdWNhpmvQn/tzDoJ/
PKFPFod+I1USKMUy972wqcG3MOLXsyNzC3SnqVEnR/IT2mzAwwF5io0lZpKC35Z4
hP7moEgxkQOTupEfu4/earWzApKX/8gadldQsGaDe6KmmPxSU15SA2lZ
-----END CERTIFICATE-----
