Certificate:
    Data:
        Version: 3 (0x2)
        Serial Number: 3 (0x3)
    Signature Algorithm: sha1WithRSAEncryption
        Issuer: DC=org, DC=monroe, OU=Root-CA, CN=Root-CA-1
        Validity
            Not Before: Oct  9 14:23:54 2015 GMT
            Not After : Oct  8 14:23:54 2017 GMT
        Subject: DC=org, DC=monroe, O=POLITO, OU=Components, CN=1
        Subject Public Key Info:
            Public Key Algorithm: rsaEncryption
                Public-Key: (2048 bit)
                Modulus:
                    00:cc:65:10:ed:20:a1:9f:f7:31:cc:1b:24:33:19:
                    99:c7:eb:e1:c6:1c:88:86:4c:9f:73:1f:42:5d:82:
                    f6:81:f2:66:5f:73:44:ca:7b:1e:28:df:e1:b4:27:
                    4a:0e:c1:b6:34:97:b6:b6:43:64:57:d5:c8:14:4d:
                    93:0e:86:9f:d5:78:61:2c:ca:83:5f:db:8c:be:62:
                    ef:c6:f3:a8:a8:72:46:2c:35:4c:26:e7:b9:e6:c3:
                    f0:f8:02:32:a6:7a:bf:9a:fe:aa:7b:3e:84:81:cf:
                    c2:a9:0e:0d:03:bf:b7:af:03:42:8f:7f:04:68:f6:
                    cf:b6:cf:da:77:28:00:fc:39:1f:19:98:41:f6:d3:
                    94:d2:0a:20:2e:83:e5:d8:0c:23:a1:8d:15:8a:dd:
                    78:3d:9a:66:0d:42:88:c8:47:da:60:fd:b1:59:5c:
                    07:f6:b6:b2:60:1c:10:0a:4f:ca:88:eb:55:d9:1e:
                    5e:67:d5:8f:a2:fa:d1:e7:14:60:53:e5:46:d2:54:
                    ae:e3:61:ba:0f:12:3b:88:46:92:f7:a6:cf:fb:80:
                    30:7a:ce:1e:17:47:ec:d2:0c:f8:6c:e1:24:bf:ad:
                    40:4a:26:33:08:de:25:89:a6:1e:ef:c2:24:6a:c1:
                    34:75:dd:68:fb:59:f5:61:1d:e3:3b:ff:d2:af:bf:
                    b4:09
                Exponent: 65537 (0x10001)
        X509v3 extensions:
            X509v3 Key Usage: critical
                Digital Signature, Key Encipherment
            X509v3 Basic Constraints: 
                CA:FALSE
            X509v3 Extended Key Usage: 
                TLS Web Server Authentication, TLS Web Client Authentication
            X509v3 Subject Key Identifier: 
                CA:DF:29:84:35:71:F9:CB:7A:02:5D:5D:60:DB:8B:FA:79:E6:57:69
            X509v3 Authority Key Identifier: 
                keyid:D8:E8:1C:37:D0:D4:F7:24:2C:84:56:E0:17:0A:E7:23:A9:94:CA:94

            X509v3 Subject Alternative Name: 
                DNS:Component-1.POLITO.monroe.org
    Signature Algorithm: sha1WithRSAEncryption
         a7:5c:6d:44:36:a0:0c:e2:3c:0a:a1:65:ce:d3:ed:b2:73:cd:
         43:0c:3d:1d:26:3f:d3:7b:ea:2e:0a:0d:86:7e:45:d2:52:2e:
         db:cf:2d:5b:1d:96:ba:5e:a0:2e:89:7f:0e:99:b9:df:67:33:
         81:f4:31:48:94:5f:e2:5b:72:39:ac:2e:e2:52:ac:7a:4b:a4:
         94:ac:e2:39:04:99:e7:5f:d5:12:34:3b:18:1c:46:b4:24:98:
         04:59:a2:69:8e:a4:68:de:d2:15:42:e6:ae:ae:ff:fc:d4:73:
         ed:6f:fd:5d:8b:53:dc:46:f8:e9:1c:0a:8b:73:b5:4c:ff:21:
         b8:14:c5:46:bf:97:bd:99:7a:66:8f:06:6b:b5:1f:ce:53:6a:
         44:9f:7a:52:e8:cd:6c:78:81:9a:f7:cc:f2:f7:a9:ac:1d:c6:
         c0:1d:67:fa:92:f8:ac:eb:2d:da:83:ac:86:86:a6:93:0e:b8:
         f3:8b:5e:db:b2:f4:69:c2:fa:fb:c9:69:01:2f:3c:e2:2c:80:
         cd:f4:06:d6:fc:60:52:d2:c0:49:a2:1b:21:f7:34:0a:1e:ba:
         11:a9:d5:86:b2:90:05:2c:13:d6:99:66:84:a7:f8:5e:dc:bb:
         cb:3a:63:f6:88:12:17:a9:86:4d:4a:54:6b:cc:13:f6:b0:4f:
         c6:56:6b:8b:6e:d0:4c:bc:75:75:56:75:35:d7:d4:be:d6:dd:
         13:8f:6a:5c:6c:44:85:9e:79:64:1b:f3:09:40:24:4d:5e:2c:
         76:14:25:86:2e:21:4a:57:42:71:bf:d6:50:a6:16:50:d2:da:
         4b:43:5e:8b:7f:84:65:d4:42:d9:49:e4:22:d4:a9:1a:f5:f6:
         67:77:cf:20:62:ba:e9:0c:90:d9:5b:b2:4b:84:56:32:e4:d7:
         de:41:08:a0:80:d1:d1:f4:99:b4:f4:de:76:d9:02:61:af:7e:
         d6:71:38:8f:8c:96:bf:61:46:7c:6b:3c:da:a6:46:5e:7e:48:
         34:87:9b:32:6b:72:39:6b:50:e5:8e:9f:38:25:b4:8b:d6:06:
         0b:e8:74:cb:16:61:aa:d5:7c:da:3c:4a:a2:00:7a:52:aa:cd:
         59:3b:02:aa:6a:04:4c:85:0a:00:a9:4d:bf:84:55:88:45:6b:
         3e:31:e6:3b:12:cd:a4:5c:5e:6b:62:2b:84:e2:3f:ea:fc:f9:
         9e:99:6c:0c:34:41:2f:0e:31:a3:9b:e9:08:46:3c:b0:2f:c9:
         98:c4:0d:9e:21:8c:7e:ac:02:94:1a:9c:50:cc:a5:70:80:be:
         db:ec:9d:c7:a4:9f:86:af:50:95:57:e1:94:be:3e:a8:1c:fe:
         29:9f:97:9d:1c:27:a7:3e
-----BEGIN CERTIFICATE-----
MIIE1TCCAr2gAwIBAgIBAzANBgkqhkiG9w0BAQUFADBTMRMwEQYKCZImiZPyLGQB
GRYDb3JnMRYwFAYKCZImiZPyLGQBGRYGbW9ucm9lMRAwDgYDVQQLDAdSb290LUNB
MRIwEAYDVQQDDAlSb290LUNBLTEwHhcNMTUxMDA5MTQyMzU0WhcNMTcxMDA4MTQy
MzU0WjBfMRMwEQYKCZImiZPyLGQBGRYDb3JnMRYwFAYKCZImiZPyLGQBGRYGbW9u
cm9lMQ8wDQYDVQQKDAZQT0xJVE8xEzARBgNVBAsMCkNvbXBvbmVudHMxCjAIBgNV
BAMMATEwggEiMA0GCSqGSIb3DQEBAQUAA4IBDwAwggEKAoIBAQDMZRDtIKGf9zHM
GyQzGZnH6+HGHIiGTJ9zH0JdgvaB8mZfc0TKex4o3+G0J0oOwbY0l7a2Q2RX1cgU
TZMOhp/VeGEsyoNf24y+Yu/G86iockYsNUwm57nmw/D4AjKmer+a/qp7PoSBz8Kp
Dg0Dv7evA0KPfwRo9s+2z9p3KAD8OR8ZmEH205TSCiAug+XYDCOhjRWK3Xg9mmYN
QojIR9pg/bFZXAf2trJgHBAKT8qI61XZHl5n1Y+i+tHnFGBT5UbSVK7jYboPEjuI
RpL3ps/7gDB6zh4XR+zSDPhs4SS/rUBKJjMI3iWJph7vwiRqwTR13Wj7WfVhHeM7
/9Kvv7QJAgMBAAGjgacwgaQwDgYDVR0PAQH/BAQDAgWgMAkGA1UdEwQCMAAwHQYD
VR0lBBYwFAYIKwYBBQUHAwEGCCsGAQUFBwMCMB0GA1UdDgQWBBTK3ymENXH5y3oC
XV1g24v6eeZXaTAfBgNVHSMEGDAWgBTY6Bw30NT3JCyEVuAXCucjqZTKlDAoBgNV
HREEITAfgh1Db21wb25lbnQtMS5QT0xJVE8ubW9ucm9lLm9yZzANBgkqhkiG9w0B
AQUFAAOCAgEAp1xtRDagDOI8CqFlztPtsnPNQww9HSY/03vqLgoNhn5F0lIu288t
Wx2Wul6gLol/Dpm532czgfQxSJRf4ltyOawu4lKsekuklKziOQSZ51/VEjQ7GBxG
tCSYBFmiaY6kaN7SFULmrq7//NRz7W/9XYtT3Eb46RwKi3O1TP8huBTFRr+XvZl6
Zo8Ga7UfzlNqRJ96UujNbHiBmvfM8veprB3GwB1n+pL4rOst2oOshoamkw6484te
27L0acL6+8lpAS884iyAzfQG1vxgUtLASaIbIfc0Ch66EanVhrKQBSwT1plmhKf4
Xty7yzpj9ogSF6mGTUpUa8wT9rBPxlZri27QTLx1dVZ1NdfUvtbdE49qXGxEhZ55
ZBvzCUAkTV4sdhQlhi4hSldCcb/WUKYWUNLaS0Nei3+EZdRC2UnkItSpGvX2Z3fP
IGK66QyQ2VuyS4RWMuTX3kEIoIDR0fSZtPTedtkCYa9+1nE4j4yWv2FGfGs82qZG
Xn5INIebMmtyOWtQ5Y6fOCW0i9YGC+h0yxZhqtV82jxKogB6UqrNWTsCqmoETIUK
AKlNv4RViEVrPjHmOxLNpFxea2IrhOI/6vz5nplsDDRBLw4xo5vpCEY8sC/JmMQN
niGMfqwClBqcUMylcIC+2+ydx6Sfhq9QlVfhlL4+qBz+KZ+XnRwnpz4=
-----END CERTIFICATE-----
