Certificate:
    Data:
        Version: 3 (0x2)
        Serial Number: 4 (0x4)
    Signature Algorithm: sha1WithRSAEncryption
        Issuer: DC=org, DC=monroe, OU=Root-CA, CN=Root-CA-1
        Validity
            Not Before: Oct 12 08:13:13 2015 GMT
            Not After : Oct 11 08:13:13 2017 GMT
        Subject: DC=org, DC=monroe, O=POLITO, OU=Components, CN=Monroe_Node_1
        Subject Public Key Info:
            Public Key Algorithm: rsaEncryption
                Public-Key: (2048 bit)
                Modulus:
                    00:d0:1e:c5:d9:7a:d1:98:26:33:67:40:2d:75:97:
                    b7:2d:29:44:21:d8:68:c2:03:ad:eb:48:bf:96:d2:
                    20:28:0b:fb:67:c5:d2:c8:e5:27:4a:25:c3:18:9c:
                    8e:49:52:6f:ca:0e:16:bc:b2:e9:44:cd:cd:34:90:
                    30:fb:ce:a7:42:8f:3b:00:28:94:d1:d0:2a:35:ee:
                    5e:9c:7a:e2:6e:a9:b6:4c:eb:a8:1a:d4:d2:d8:15:
                    9b:77:69:5b:47:ba:d8:fc:2b:b2:e9:90:76:30:82:
                    dc:4f:7e:b5:ca:f9:08:7f:2d:f5:18:80:ef:dd:4b:
                    a6:f3:54:df:06:75:01:91:c3:93:0b:b8:35:25:89:
                    c2:95:13:54:ff:09:15:c4:98:51:b8:f4:f2:41:c6:
                    08:cd:82:2d:de:fc:85:6c:bd:52:41:18:d0:0e:1f:
                    c3:73:f0:79:fc:a7:d4:ad:52:95:86:a2:87:ab:90:
                    f0:98:db:ac:f6:8d:6f:3a:e1:82:54:c2:24:e6:9a:
                    83:09:df:e8:92:e4:b2:5d:84:2d:d0:32:78:db:6e:
                    11:ae:dc:ab:45:bb:9b:d2:9d:13:96:b9:fa:a4:a6:
                    f2:f3:7c:d9:27:5b:bd:d3:f0:e2:2b:58:fc:52:59:
                    ad:93:f4:3f:bf:cb:12:16:97:2b:70:6b:74:5c:58:
                    37:2b
                Exponent: 65537 (0x10001)
        X509v3 extensions:
            X509v3 Key Usage: critical
                Digital Signature, Key Encipherment
            X509v3 Basic Constraints: 
                CA:FALSE
            X509v3 Extended Key Usage: 
                TLS Web Server Authentication, TLS Web Client Authentication
            X509v3 Subject Key Identifier: 
                FA:DB:45:88:7B:E1:D2:66:E7:0E:3D:C4:91:5D:D1:9B:17:35:F7:96
            X509v3 Authority Key Identifier: 
                keyid:D8:E8:1C:37:D0:D4:F7:24:2C:84:56:E0:17:0A:E7:23:A9:94:CA:94

            X509v3 Subject Alternative Name: 
                DNS:Component-1.POLITO.monroe.org
    Signature Algorithm: sha1WithRSAEncryption
         66:03:89:1d:1f:3c:18:3e:dd:ee:d2:a5:3a:69:49:be:c6:cc:
         10:cc:ec:0c:f9:95:cc:1d:0a:b5:0e:0d:ce:9e:30:13:68:25:
         8c:d0:f5:c8:e0:84:80:34:eb:e0:f6:73:a3:46:20:39:13:e4:
         5e:02:cd:d1:2f:c4:ac:93:93:b7:a4:8e:95:27:0e:83:98:e5:
         c4:c6:21:f8:cf:62:ab:30:a3:d0:57:7d:32:f9:12:03:e8:51:
         83:6d:fa:f7:5b:5d:7d:5a:9a:50:73:dc:2f:aa:84:37:97:70:
         fc:4e:e8:f4:47:4e:9c:29:a0:8c:02:ca:a4:65:c2:49:cf:d2:
         0b:d6:c3:22:8d:54:ac:1d:f3:c0:54:b8:59:9a:a3:fc:55:a1:
         64:76:8b:c0:ce:ab:55:bd:a2:b1:8b:1d:af:35:46:87:a8:2f:
         2d:68:64:7a:93:75:18:9c:b8:9f:bb:18:64:35:e9:d3:3d:63:
         05:6e:21:c7:42:dc:5a:16:38:ae:d4:f8:1b:ef:81:da:66:b5:
         11:06:00:35:08:6b:d9:6d:98:ed:d9:c1:1a:dd:ab:30:dc:1e:
         ee:07:88:df:2c:18:d8:60:98:79:5a:8b:d5:37:96:6b:6c:03:
         ce:5c:e7:3a:c6:39:9b:f9:bf:82:fb:a3:5c:82:46:bd:65:ca:
         e7:3d:38:f4:e1:aa:a8:df:e9:ce:0a:07:f5:b5:5b:da:f3:5a:
         57:0f:18:3a:8b:55:0c:a1:08:1e:f0:42:32:58:84:22:dc:a9:
         87:0f:e8:60:cc:50:a2:26:56:56:e0:3a:69:10:c2:1f:5d:54:
         a7:15:76:45:38:65:73:b7:d8:68:2f:64:67:50:47:14:34:4b:
         43:88:f7:16:4e:44:b2:26:d5:e7:46:be:32:f6:69:8f:f0:55:
         15:f0:d8:ea:5f:b7:24:bb:fc:9a:92:50:5a:5b:34:bf:06:0c:
         8e:e2:38:2e:ea:ed:e1:e6:aa:f7:c7:3b:c2:62:7e:ba:df:c1:
         4e:3b:16:87:18:13:4b:9d:46:a3:80:fd:4a:b0:46:ed:4a:0e:
         50:6a:b1:99:1c:08:9e:2c:5c:fe:c1:8b:07:70:de:f0:8b:22:
         3d:cd:7b:20:57:b5:9e:87:93:12:cc:81:60:60:65:33:09:88:
         52:31:7c:62:e5:08:d0:f5:fd:9d:00:5c:64:9a:ec:94:ee:05:
         de:f0:f8:56:11:7d:43:ec:ed:4f:63:bd:ed:a2:8e:7f:29:70:
         80:00:51:91:de:22:62:11:46:06:08:15:bb:4d:5c:06:d9:cc:
         7a:e5:aa:b7:6c:43:b8:e7:ee:74:a9:7c:87:65:21:d3:bc:15:
         b8:ac:75:ac:e7:7a:f8:c9
-----BEGIN CERTIFICATE-----
MIIE4TCCAsmgAwIBAgIBBDANBgkqhkiG9w0BAQUFADBTMRMwEQYKCZImiZPyLGQB
GRYDb3JnMRYwFAYKCZImiZPyLGQBGRYGbW9ucm9lMRAwDgYDVQQLDAdSb290LUNB
MRIwEAYDVQQDDAlSb290LUNBLTEwHhcNMTUxMDEyMDgxMzEzWhcNMTcxMDExMDgx
MzEzWjBrMRMwEQYKCZImiZPyLGQBGRYDb3JnMRYwFAYKCZImiZPyLGQBGRYGbW9u
cm9lMQ8wDQYDVQQKDAZQT0xJVE8xEzARBgNVBAsMCkNvbXBvbmVudHMxFjAUBgNV
BAMMDU1vbnJvZV9Ob2RlXzEwggEiMA0GCSqGSIb3DQEBAQUAA4IBDwAwggEKAoIB
AQDQHsXZetGYJjNnQC11l7ctKUQh2GjCA63rSL+W0iAoC/tnxdLI5SdKJcMYnI5J
Um/KDha8sulEzc00kDD7zqdCjzsAKJTR0Co17l6ceuJuqbZM66ga1NLYFZt3aVtH
utj8K7LpkHYwgtxPfrXK+Qh/LfUYgO/dS6bzVN8GdQGRw5MLuDUlicKVE1T/CRXE
mFG49PJBxgjNgi3e/IVsvVJBGNAOH8Nz8Hn8p9StUpWGooerkPCY26z2jW864YJU
wiTmmoMJ3+iS5LJdhC3QMnjbbhGu3KtFu5vSnROWufqkpvLzfNknW73T8OIrWPxS
Wa2T9D+/yxIWlytwa3RcWDcrAgMBAAGjgacwgaQwDgYDVR0PAQH/BAQDAgWgMAkG
A1UdEwQCMAAwHQYDVR0lBBYwFAYIKwYBBQUHAwEGCCsGAQUFBwMCMB0GA1UdDgQW
BBT620WIe+HSZucOPcSRXdGbFzX3ljAfBgNVHSMEGDAWgBTY6Bw30NT3JCyEVuAX
CucjqZTKlDAoBgNVHREEITAfgh1Db21wb25lbnQtMS5QT0xJVE8ubW9ucm9lLm9y
ZzANBgkqhkiG9w0BAQUFAAOCAgEAZgOJHR88GD7d7tKlOmlJvsbMEMzsDPmVzB0K
tQ4Nzp4wE2gljND1yOCEgDTr4PZzo0YgORPkXgLN0S/ErJOTt6SOlScOg5jlxMYh
+M9iqzCj0Fd9MvkSA+hRg23691tdfVqaUHPcL6qEN5dw/E7o9EdOnCmgjALKpGXC
Sc/SC9bDIo1UrB3zwFS4WZqj/FWhZHaLwM6rVb2isYsdrzVGh6gvLWhkepN1GJy4
n7sYZDXp0z1jBW4hx0LcWhY4rtT4G++B2ma1EQYANQhr2W2Y7dnBGt2rMNwe7geI
3ywY2GCYeVqL1TeWa2wDzlznOsY5m/m/gvujXIJGvWXK5z049OGqqN/pzgoH9bVb
2vNaVw8YOotVDKEIHvBCMliEItyphw/oYMxQoiZWVuA6aRDCH11UpxV2RThlc7fY
aC9kZ1BHFDRLQ4j3Fk5EsibV50a+MvZpj/BVFfDY6l+3JLv8mpJQWls0vwYMjuI4
Lurt4eaq98c7wmJ+ut/BTjsWhxgTS51Go4D9SrBG7UoOUGqxmRwInixc/sGLB3De
8IsiPc17IFe1noeTEsyBYGBlMwmIUjF8YuUI0PX9nQBcZJrslO4F3vD4VhF9Q+zt
T2O97aKOfylwgABRkd4iYhFGBggVu01cBtnMeuWqt2xDuOfudKl8h2Uh07wVuKx1
rOd6+Mk=
-----END CERTIFICATE-----
