Certificate:
    Data:
        Version: 3 (0x2)
        Serial Number: 5 (0x5)
    Signature Algorithm: sha1WithRSAEncryption
        Issuer: DC=org, DC=mplane, OU=Root-CA, CN=Root-CA-1
        Validity
            Not Before: May 28 10:03:46 2015 GMT
            Not After : May 27 10:03:46 2017 GMT
        Subject: DC=org, DC=mplane, O=ULg, OU=Components, CN=scamper
        Subject Public Key Info:
            Public Key Algorithm: rsaEncryption
                Public-Key: (2048 bit)
                Modulus:
                    00:bc:09:50:43:a8:77:c6:bc:8f:11:02:42:fe:5d:
                    09:7d:53:06:d2:70:8f:d7:e6:b9:8b:58:9b:46:5b:
                    51:02:c7:e0:76:c1:b9:86:f9:25:96:b3:7e:71:fc:
                    ea:9b:ff:b6:28:71:f7:50:4b:f7:60:2d:7b:fc:19:
                    62:83:c9:87:ea:98:78:9b:67:86:c7:f7:1c:0e:3b:
                    91:1a:5b:77:5c:0d:55:74:97:22:98:76:92:f8:5c:
                    1b:8e:53:3c:85:50:83:d1:1f:9e:35:2a:54:8f:b7:
                    6e:4b:e0:1e:fa:cb:7e:74:15:f8:4c:0c:d1:dc:28:
                    37:76:52:3f:0c:59:c9:7b:82:57:df:9f:01:80:f6:
                    da:8d:da:1f:b4:a2:dc:97:4d:b5:78:85:6d:21:4e:
                    0e:d2:15:cb:42:2d:7e:8e:fb:7b:d3:32:d1:81:c8:
                    e7:3a:c9:e0:69:04:8a:35:5b:40:97:36:7f:65:90:
                    43:99:80:96:44:bd:d8:01:db:23:a3:a7:a9:0b:10:
                    43:e7:55:30:20:ee:82:1f:1e:8c:0e:f3:32:88:06:
                    33:81:fd:23:b1:bd:d0:50:ca:9f:c3:fd:73:9f:ff:
                    e1:6a:1d:5f:48:08:49:33:c7:52:76:11:0e:8a:49:
                    a9:db:d6:2d:5d:fa:9c:f8:9c:94:58:fb:0a:58:51:
                    9d:7f
                Exponent: 65537 (0x10001)
        X509v3 extensions:
            X509v3 Key Usage: critical
                Digital Signature, Key Encipherment
            X509v3 Basic Constraints: 
                CA:FALSE
            X509v3 Extended Key Usage: 
                TLS Web Server Authentication, TLS Web Client Authentication
            X509v3 Subject Key Identifier: 
                72:64:D2:39:7F:7A:46:4B:1B:71:55:77:1A:F7:81:1C:B2:16:07:E0
            X509v3 Authority Key Identifier: 
                keyid:5B:74:DB:A9:23:6B:AF:29:24:ED:21:13:BE:34:DB:94:CB:24:62:F0

            X509v3 Subject Alternative Name: 
                DNS:Component-1.ULg.mplane.org
    Signature Algorithm: sha1WithRSAEncryption
         8d:46:f8:76:db:54:95:41:3b:d4:9c:c3:b6:41:96:42:d5:14:
         47:28:7e:0d:99:82:97:e6:2f:dd:42:ae:1a:f2:6a:59:56:3f:
         5a:3e:53:48:c9:35:3e:54:8a:85:bf:ca:2f:db:af:22:ca:2b:
         d4:6c:c3:1d:c5:ce:21:fb:8e:bb:e6:cf:67:ec:b3:c5:b0:f9:
         d6:5b:86:55:85:4f:72:cc:31:2d:00:8a:2e:ba:48:54:04:49:
         11:93:be:6b:62:07:85:74:1c:5a:70:2f:e1:6a:cd:20:49:e5:
         8b:eb:32:de:0e:d7:ad:40:7e:6c:46:b7:05:56:5d:47:94:4c:
         57:bc:55:5f:0a:cd:da:93:74:6c:b2:9b:a1:74:ae:a1:c2:0e:
         59:0a:ce:27:8c:57:71:39:ba:c4:fb:d9:9f:4d:58:8e:80:2b:
         44:d8:06:64:b8:25:76:0d:f1:67:ac:5b:d4:96:37:91:4e:66:
         88:3c:82:2f:b3:70:ed:c8:27:3f:b6:42:74:87:c6:2b:2e:13:
         1c:e2:e6:8d:51:3c:e0:57:0b:bf:d9:6a:74:64:24:51:c7:b4:
         b6:4a:7f:1c:a2:20:a4:67:d1:9c:23:14:7c:9c:96:fa:05:88:
         4a:50:36:26:24:bd:93:7d:2f:88:7c:ce:89:19:67:25:97:b6:
         04:88:ba:32:ab:47:d7:fb:40:bb:29:6a:57:4b:06:91:80:b2:
         29:e7:38:d5:39:56:f3:85:fe:71:c4:9d:0e:b5:de:b3:c7:9c:
         70:17:38:83:1f:37:53:13:88:bc:29:81:b4:aa:b8:b9:76:cf:
         de:0a:8c:56:bd:f8:9a:9c:26:8e:d7:42:7e:0e:ed:8e:9c:8a:
         0a:d6:1c:6e:bc:98:1b:62:6f:1a:ca:5c:ff:9b:bc:10:78:39:
         c2:85:df:96:30:e0:00:a8:3a:f7:3a:13:07:67:51:f8:8a:b3:
         af:de:96:9c:3d:6a:f3:de:0b:e7:e2:90:bf:a6:22:cd:11:2f:
         3e:cc:37:dc:a2:db:f5:81:c6:e2:a0:d2:72:4d:68:f1:38:fd:
         0b:50:49:33:91:74:13:f6:45:0f:77:7a:7a:1b:fc:2f:af:ba:
         c9:2b:11:03:5f:14:b1:c3:4a:96:a9:14:bc:ac:09:c9:4d:3c:
         00:d8:88:25:13:bb:49:77:54:f2:07:25:58:a9:8c:19:4f:98:
         26:3d:45:4b:d7:61:e8:a6:f9:1e:eb:08:82:1d:3a:5d:1a:e5:
         41:6b:39:ec:56:48:1c:cf:5b:a4:30:b8:32:10:8e:2d:2c:82:
         b2:9f:91:4d:23:c3:f1:ba:25:e7:fc:c1:f0:94:88:3f:da:a7:
         6e:52:65:f4:6a:d7:86:eb
-----BEGIN CERTIFICATE-----
MIIE1TCCAr2gAwIBAgIBBTANBgkqhkiG9w0BAQUFADBTMRMwEQYKCZImiZPyLGQB
GRYDb3JnMRYwFAYKCZImiZPyLGQBGRYGbXBsYW5lMRAwDgYDVQQLDAdSb290LUNB
MRIwEAYDVQQDDAlSb290LUNBLTEwHhcNMTUwNTI4MTAwMzQ2WhcNMTcwNTI3MTAw
MzQ2WjBiMRMwEQYKCZImiZPyLGQBGRYDb3JnMRYwFAYKCZImiZPyLGQBGRYGbXBs
YW5lMQwwCgYDVQQKDANVTGcxEzARBgNVBAsMCkNvbXBvbmVudHMxEDAOBgNVBAMM
B3NjYW1wZXIwggEiMA0GCSqGSIb3DQEBAQUAA4IBDwAwggEKAoIBAQC8CVBDqHfG
vI8RAkL+XQl9UwbScI/X5rmLWJtGW1ECx+B2wbmG+SWWs35x/Oqb/7YocfdQS/dg
LXv8GWKDyYfqmHibZ4bH9xwOO5EaW3dcDVV0lyKYdpL4XBuOUzyFUIPRH541KlSP
t25L4B76y350FfhMDNHcKDd2Uj8MWcl7glffnwGA9tqN2h+0otyXTbV4hW0hTg7S
FctCLX6O+3vTMtGByOc6yeBpBIo1W0CXNn9lkEOZgJZEvdgB2yOjp6kLEEPnVTAg
7oIfHowO8zKIBjOB/SOxvdBQyp/D/XOf/+FqHV9ICEkzx1J2EQ6KSanb1i1d+pz4
nJRY+wpYUZ1/AgMBAAGjgaQwgaEwDgYDVR0PAQH/BAQDAgWgMAkGA1UdEwQCMAAw
HQYDVR0lBBYwFAYIKwYBBQUHAwEGCCsGAQUFBwMCMB0GA1UdDgQWBBRyZNI5f3pG
SxtxVXca94EcshYH4DAfBgNVHSMEGDAWgBRbdNupI2uvKSTtIRO+NNuUyyRi8DAl
BgNVHREEHjAcghpDb21wb25lbnQtMS5VTGcubXBsYW5lLm9yZzANBgkqhkiG9w0B
AQUFAAOCAgEAjUb4dttUlUE71JzDtkGWQtUURyh+DZmCl+Yv3UKuGvJqWVY/Wj5T
SMk1PlSKhb/KL9uvIsor1GzDHcXOIfuOu+bPZ+yzxbD51luGVYVPcswxLQCKLrpI
VARJEZO+a2IHhXQcWnAv4WrNIEnli+sy3g7XrUB+bEa3BVZdR5RMV7xVXwrN2pN0
bLKboXSuocIOWQrOJ4xXcTm6xPvZn01YjoArRNgGZLgldg3xZ6xb1JY3kU5miDyC
L7Nw7cgnP7ZCdIfGKy4THOLmjVE84FcLv9lqdGQkUce0tkp/HKIgpGfRnCMUfJyW
+gWISlA2JiS9k30viHzOiRlnJZe2BIi6MqtH1/tAuylqV0sGkYCyKec41TlW84X+
ccSdDrXes8eccBc4gx83UxOIvCmBtKq4uXbP3gqMVr34mpwmjtdCfg7tjpyKCtYc
bryYG2JvGspc/5u8EHg5woXfljDgAKg69zoTB2dR+Iqzr96WnD1q894L5+KQv6Yi
zREvPsw33KLb9YHG4qDSck1o8Tj9C1BJM5F0E/ZFD3d6ehv8L6+6ySsRA18UscNK
lqkUvKwJyU08ANiIJRO7SXdU8gclWKmMGU+YJj1FS9dh6Kb5HusIgh06XRrlQWs5
7FZIHM9bpDC4MhCOLSyCsp+RTSPD8bol5/zB8JSIP9qnblJl9GrXhus=
-----END CERTIFICATE-----
