Certificate:
    Data:
        Version: 3 (0x2)
        Serial Number: 5 (0x5)
    Signature Algorithm: sha1WithRSAEncryption
        Issuer: DC=org, DC=monroe, OU=Root-CA, CN=Root-CA-1
        Validity
            Not Before: Oct 12 08:30:05 2015 GMT
            Not After : Oct 11 08:30:05 2017 GMT
        Subject: DC=org, DC=monroe, O=SSB, OU=Components, CN=Monroe_Node_1
        Subject Public Key Info:
            Public Key Algorithm: rsaEncryption
                Public-Key: (2048 bit)
                Modulus:
                    00:ea:11:30:f8:c4:18:35:47:3e:b8:74:1c:84:2c:
                    ee:86:7a:b6:26:aa:a3:5b:e4:31:85:99:25:31:8f:
                    36:22:32:57:3e:ee:96:d4:05:68:37:d0:a1:c5:9f:
                    36:7c:2e:46:28:5e:ab:0d:5c:c5:f9:9f:c3:d3:69:
                    33:93:0e:1a:02:9d:2e:3a:00:57:aa:c5:fc:8b:ed:
                    32:d3:58:fa:5b:8a:b2:ae:71:5e:0a:d3:f0:bb:e6:
                    eb:b3:0c:8b:14:de:cb:92:6e:a2:ba:ba:18:ca:b6:
                    ae:73:ce:26:eb:b5:6a:06:71:15:46:af:e7:87:45:
                    fb:7b:d1:64:5a:b3:71:7c:19:13:b2:9f:8e:d7:73:
                    cf:ac:0d:7c:6b:36:81:ec:0e:c4:ac:0d:e3:20:92:
                    90:55:8b:28:5e:ac:4f:b6:29:e1:4f:31:65:c8:70:
                    75:94:71:ea:8d:12:8c:63:9d:89:35:68:e9:14:6f:
                    f3:a1:77:68:a3:ec:bc:bd:6a:07:83:4f:d6:10:eb:
                    5b:15:c3:fe:00:83:61:23:70:0e:13:fe:ce:6c:eb:
                    aa:04:78:ce:c4:de:c0:42:f7:b4:1e:e7:2b:1d:64:
                    de:89:13:68:52:c4:ab:16:6b:bd:c5:e6:ee:07:34:
                    60:3a:2a:b7:37:76:1b:ae:8f:67:37:95:21:24:9a:
                    c7:8b
                Exponent: 65537 (0x10001)
        X509v3 extensions:
            X509v3 Key Usage: critical
                Digital Signature, Key Encipherment
            X509v3 Basic Constraints: 
                CA:FALSE
            X509v3 Extended Key Usage: 
                TLS Web Server Authentication, TLS Web Client Authentication
            X509v3 Subject Key Identifier: 
                3A:11:E6:57:AF:F3:73:7B:91:26:4C:3A:29:20:E4:C9:14:B3:DD:5A
            X509v3 Authority Key Identifier: 
                keyid:D8:E8:1C:37:D0:D4:F7:24:2C:84:56:E0:17:0A:E7:23:A9:94:CA:94

            X509v3 Subject Alternative Name: 
                DNS:Component-1.POLITO.monroe.org
    Signature Algorithm: sha1WithRSAEncryption
         7b:75:cb:19:2c:64:3f:87:56:0f:ce:4d:f5:e1:1f:8d:0a:0d:
         69:99:65:1b:a4:50:14:4a:45:88:bb:29:d2:ad:4d:ff:70:0c:
         20:3a:db:99:30:df:fb:55:67:c2:f8:85:8e:f0:6f:6e:42:c2:
         f0:a8:f6:fe:68:ea:97:14:b8:b0:f6:a0:9b:c0:df:97:27:53:
         07:6d:30:46:ec:fa:3a:e9:3c:33:dd:04:35:55:59:7e:3f:80:
         da:0a:33:eb:b5:9f:b0:ee:bc:3b:c8:f8:50:03:b4:1a:cb:c1:
         3b:53:1f:24:c6:f4:e4:36:11:87:75:33:b2:a7:00:2c:57:ed:
         14:4a:89:bb:ea:b9:31:dc:22:63:0e:33:ab:9a:58:90:5e:d1:
         79:8e:87:ab:b0:12:83:c0:e3:1c:b8:23:b1:74:aa:eb:07:24:
         25:c6:fb:61:31:5c:fe:0b:32:07:7d:93:81:9c:fd:00:74:1f:
         dc:4d:b6:3e:bd:03:70:fc:ac:c5:b2:60:91:5e:ae:e3:a9:39:
         db:33:14:61:ff:16:93:fc:4c:be:fa:71:a5:9f:e3:aa:34:a0:
         3f:e5:a4:33:cd:dc:20:c8:18:19:9c:f3:48:7c:2f:6a:9f:02:
         54:ac:6e:e8:5f:0d:6f:7d:ac:12:47:98:36:27:e5:75:fd:df:
         20:43:18:1b:5b:d7:67:f3:31:59:78:6a:c8:0b:66:a3:95:a7:
         d0:e6:a2:c6:23:2b:8b:75:ff:6a:6b:21:2f:d7:40:05:17:c5:
         08:aa:22:32:5f:8d:18:f6:29:d9:f0:40:ed:3e:21:36:62:a4:
         bc:14:5d:24:42:2e:c7:0c:47:3e:b2:17:29:b2:f8:b7:bf:e2:
         8e:41:9f:c0:2c:45:77:22:f9:9e:0b:58:ea:0e:39:e3:d1:83:
         38:52:4d:85:e2:ed:b3:05:49:6c:0b:0b:eb:a5:e7:ce:54:e0:
         98:5a:82:bb:b8:63:d3:8a:22:82:71:e4:31:be:7a:d5:5c:fe:
         40:3f:6c:57:cb:0f:62:6b:76:19:f7:22:8b:42:3f:41:94:04:
         94:95:45:0f:27:90:a7:af:07:e0:6a:b6:70:3e:94:4a:f9:98:
         0e:f7:66:de:a9:a1:27:39:45:96:cb:2a:09:c6:40:3a:61:49:
         fe:53:d9:6b:c5:ea:7f:16:52:5c:cb:42:2e:d5:a3:2b:81:ca:
         91:22:15:e5:57:aa:1d:07:c7:04:02:fc:1b:dd:5b:f7:19:63:
         06:51:df:a1:1e:8e:80:b8:82:7a:69:2d:5d:a1:82:7b:03:35:
         d6:32:47:9c:ae:21:f6:97:bf:3f:a8:93:2e:4c:69:7a:86:50:
         30:06:b9:8e:96:b6:dc:cc
-----BEGIN CERTIFICATE-----
MIIE3jCCAsagAwIBAgIBBTANBgkqhkiG9w0BAQUFADBTMRMwEQYKCZImiZPyLGQB
GRYDb3JnMRYwFAYKCZImiZPyLGQBGRYGbW9ucm9lMRAwDgYDVQQLDAdSb290LUNB
MRIwEAYDVQQDDAlSb290LUNBLTEwHhcNMTUxMDEyMDgzMDA1WhcNMTcxMDExMDgz
MDA1WjBoMRMwEQYKCZImiZPyLGQBGRYDb3JnMRYwFAYKCZImiZPyLGQBGRYGbW9u
cm9lMQwwCgYDVQQKDANTU0IxEzARBgNVBAsMCkNvbXBvbmVudHMxFjAUBgNVBAMM
DU1vbnJvZV9Ob2RlXzEwggEiMA0GCSqGSIb3DQEBAQUAA4IBDwAwggEKAoIBAQDq
ETD4xBg1Rz64dByELO6GerYmqqNb5DGFmSUxjzYiMlc+7pbUBWg30KHFnzZ8LkYo
XqsNXMX5n8PTaTOTDhoCnS46AFeqxfyL7TLTWPpbirKucV4K0/C75uuzDIsU3suS
bqK6uhjKtq5zzibrtWoGcRVGr+eHRft70WRas3F8GROyn47Xc8+sDXxrNoHsDsSs
DeMgkpBViyherE+2KeFPMWXIcHWUceqNEoxjnYk1aOkUb/Ohd2ij7Ly9ageDT9YQ
61sVw/4Ag2EjcA4T/s5s66oEeM7E3sBC97Qe5ysdZN6JE2hSxKsWa73F5u4HNGA6
Krc3dhuuj2c3lSEkmseLAgMBAAGjgacwgaQwDgYDVR0PAQH/BAQDAgWgMAkGA1Ud
EwQCMAAwHQYDVR0lBBYwFAYIKwYBBQUHAwEGCCsGAQUFBwMCMB0GA1UdDgQWBBQ6
EeZXr/Nze5EmTDopIOTJFLPdWjAfBgNVHSMEGDAWgBTY6Bw30NT3JCyEVuAXCucj
qZTKlDAoBgNVHREEITAfgh1Db21wb25lbnQtMS5QT0xJVE8ubW9ucm9lLm9yZzAN
BgkqhkiG9w0BAQUFAAOCAgEAe3XLGSxkP4dWD85N9eEfjQoNaZllG6RQFEpFiLsp
0q1N/3AMIDrbmTDf+1VnwviFjvBvbkLC8Kj2/mjqlxS4sPagm8DflydTB20wRuz6
Ouk8M90ENVVZfj+A2goz67WfsO68O8j4UAO0GsvBO1MfJMb05DYRh3UzsqcALFft
FEqJu+q5MdwiYw4zq5pYkF7ReY6Hq7ASg8DjHLgjsXSq6wckJcb7YTFc/gsyB32T
gZz9AHQf3E22Pr0DcPysxbJgkV6u46k52zMUYf8Wk/xMvvpxpZ/jqjSgP+WkM83c
IMgYGZzzSHwvap8CVKxu6F8Nb32sEkeYNifldf3fIEMYG1vXZ/MxWXhqyAtmo5Wn
0OaixiMri3X/amshL9dABRfFCKoiMl+NGPYp2fBA7T4hNmKkvBRdJEIuxwxHPrIX
KbL4t7/ijkGfwCxFdyL5ngtY6g4549GDOFJNheLtswVJbAsL66XnzlTgmFqCu7hj
04oignHkMb561Vz+QD9sV8sPYmt2Gfcii0I/QZQElJVFDyeQp68H4Gq2cD6USvmY
Dvdm3qmhJzlFlssqCcZAOmFJ/lPZa8XqfxZSXMtCLtWjK4HKkSIV5VeqHQfHBAL8
G91b9xljBlHfoR6OgLiCemktXaGCewM11jJHnK4h9pe/P6iTLkxpeoZQMAa5jpa2
3Mw=
-----END CERTIFICATE-----
