Certificate:
    Data:
        Version: 3 (0x2)
        Serial Number: 6 (0x6)
    Signature Algorithm: sha1WithRSAEncryption
        Issuer: DC=org, DC=monroe, OU=Root-CA, CN=Root-CA-1
        Validity
            Not Before: Oct 12 08:47:13 2015 GMT
            Not After : Oct 11 08:47:13 2017 GMT
        Subject: DC=org, DC=monroe, O=SSB, OU=Components, CN=Monroe_Node_1
        Subject Public Key Info:
            Public Key Algorithm: rsaEncryption
                Public-Key: (2048 bit)
                Modulus:
                    00:ec:e3:40:97:1c:91:d8:02:e9:8e:0f:aa:bc:d2:
                    4a:ea:97:0b:80:d7:42:36:de:e3:c6:06:93:98:89:
                    8e:04:06:59:f1:b1:15:a2:c5:90:5a:26:65:5c:c6:
                    54:1f:13:6b:dd:c2:84:4e:74:7f:35:70:68:a5:47:
                    55:58:98:4c:c6:a9:ac:16:e2:1f:d4:f6:15:37:07:
                    5c:53:b1:76:85:e7:d9:f2:dc:4f:96:67:62:e8:fc:
                    58:b5:1c:b5:b6:16:cf:20:95:f7:c3:34:73:83:58:
                    32:f6:e2:e9:30:86:7b:fd:e1:a2:df:bf:e2:1e:5f:
                    15:f3:75:dd:57:66:4f:30:5e:f6:70:d8:63:8c:9b:
                    7e:97:a3:2a:e6:e6:5c:78:c6:cf:1a:33:01:1b:36:
                    d1:76:da:74:4d:b1:84:ae:7e:b0:e0:82:06:9e:75:
                    8c:29:19:c4:69:31:c0:b0:3c:dd:fe:c1:19:b3:09:
                    cc:eb:d4:c8:f3:f9:67:cc:2e:dc:1b:ce:be:93:01:
                    1c:ca:36:cd:4d:42:09:2f:0d:79:e7:18:35:60:49:
                    39:47:aa:68:82:b3:e4:8b:b7:1b:e1:11:f0:38:2f:
                    51:0c:9a:d4:94:0e:a1:3d:4b:c1:c8:58:cc:ea:e7:
                    6c:19:3d:17:48:46:cf:61:07:ba:0e:04:b1:51:ea:
                    d2:4d
                Exponent: 65537 (0x10001)
        X509v3 extensions:
            X509v3 Key Usage: critical
                Digital Signature, Key Encipherment
            X509v3 Basic Constraints: 
                CA:FALSE
            X509v3 Extended Key Usage: 
                TLS Web Server Authentication, TLS Web Client Authentication
            X509v3 Subject Key Identifier: 
                D9:12:25:A3:74:54:F5:E6:31:28:2F:F7:A4:90:C6:A5:D4:A2:22:14
            X509v3 Authority Key Identifier: 
                keyid:D8:E8:1C:37:D0:D4:F7:24:2C:84:56:E0:17:0A:E7:23:A9:94:CA:94

            X509v3 Subject Alternative Name: 
                DNS:Component-1.POLITO.monroe.org
    Signature Algorithm: sha1WithRSAEncryption
         98:e5:04:4b:99:4a:90:1d:20:1d:36:b6:99:16:18:6b:e6:65:
         69:16:9e:80:1e:6b:42:d9:39:6f:37:ef:6c:4d:8b:61:d7:ab:
         6b:21:e3:80:7e:ca:e4:79:87:c5:9b:61:50:98:59:6a:08:be:
         5c:0c:df:de:e8:c5:02:57:e9:57:6a:ff:62:e6:64:74:e8:3b:
         93:62:3c:43:df:c6:c3:c4:fd:dd:5e:ef:91:9c:8c:cd:b5:04:
         81:aa:37:6c:d7:6a:eb:95:2b:80:3f:7d:f5:28:6f:72:2b:20:
         fc:c6:4e:56:2d:a9:b1:44:6c:3d:17:ca:01:bb:ff:0b:2b:d4:
         86:43:24:e7:52:fb:9c:36:8a:59:9a:7c:f9:d8:1f:3b:de:5a:
         e8:1a:4a:4d:16:d5:99:30:06:67:3b:d9:92:8c:11:ea:2a:e6:
         c4:8e:d1:c1:a0:c8:86:2d:2d:f4:48:63:6e:04:c2:3c:5a:b4:
         af:37:9b:ad:0c:8b:75:c5:43:21:87:01:7d:0f:1a:f6:1c:d2:
         12:ec:1f:da:9d:56:e5:e6:47:5d:6f:78:6e:4e:97:66:cb:25:
         84:31:78:61:77:ae:a4:3a:80:a6:e9:de:ba:d6:0b:e5:5e:9e:
         09:bf:f7:f1:09:0c:80:c4:31:3e:e4:0b:47:67:11:22:85:07:
         6c:5a:ef:0e:40:8c:de:15:b6:3c:8b:6a:5c:ed:b2:1b:d8:49:
         e9:32:17:60:7b:19:26:59:75:5c:d6:40:0e:aa:bc:ee:8d:13:
         d1:42:5f:44:c9:8c:d1:98:f5:4f:79:7b:2f:fe:11:54:56:e3:
         ed:ea:e4:d9:a4:c1:ec:26:9c:bf:62:35:aa:cd:31:1a:3f:80:
         ca:fe:b3:98:bb:03:f5:55:c8:bc:62:99:a9:95:85:e7:ae:ee:
         f3:9e:33:fc:9b:99:75:8b:1d:58:e8:26:1a:cd:59:49:1f:90:
         d9:ca:74:f5:20:05:ea:46:34:75:d3:3e:12:fb:59:a9:6a:e7:
         49:cd:87:a4:0c:39:d5:c6:1b:ed:82:0e:a4:83:80:89:7c:3b:
         44:49:ce:dc:a0:fd:62:79:7a:f0:07:2d:6b:71:49:1e:6b:9b:
         c5:bc:e0:be:4b:9e:22:7c:83:aa:a8:b3:32:60:15:8a:f2:56:
         d2:4c:29:bf:06:c2:1b:64:24:3f:b3:af:18:c0:f9:b9:b9:3c:
         59:d5:c5:9b:da:b6:51:0a:97:58:7f:93:54:26:63:4c:c1:5d:
         51:9f:fd:8a:cf:d9:ee:db:04:eb:00:5d:2c:91:31:6a:55:00:
         b5:fb:5c:55:41:d3:fe:1a:98:af:e0:35:b3:44:ad:c6:f2:a2:
         d4:55:b4:87:72:60:02:69
-----BEGIN CERTIFICATE-----
MIIE3jCCAsagAwIBAgIBBjANBgkqhkiG9w0BAQUFADBTMRMwEQYKCZImiZPyLGQB
GRYDb3JnMRYwFAYKCZImiZPyLGQBGRYGbW9ucm9lMRAwDgYDVQQLDAdSb290LUNB
MRIwEAYDVQQDDAlSb290LUNBLTEwHhcNMTUxMDEyMDg0NzEzWhcNMTcxMDExMDg0
NzEzWjBoMRMwEQYKCZImiZPyLGQBGRYDb3JnMRYwFAYKCZImiZPyLGQBGRYGbW9u
cm9lMQwwCgYDVQQKDANTU0IxEzARBgNVBAsMCkNvbXBvbmVudHMxFjAUBgNVBAMM
DU1vbnJvZV9Ob2RlXzEwggEiMA0GCSqGSIb3DQEBAQUAA4IBDwAwggEKAoIBAQDs
40CXHJHYAumOD6q80krqlwuA10I23uPGBpOYiY4EBlnxsRWixZBaJmVcxlQfE2vd
woROdH81cGilR1VYmEzGqawW4h/U9hU3B1xTsXaF59ny3E+WZ2Lo/Fi1HLW2Fs8g
lffDNHODWDL24ukwhnv94aLfv+IeXxXzdd1XZk8wXvZw2GOMm36Xoyrm5lx4xs8a
MwEbNtF22nRNsYSufrDgggaedYwpGcRpMcCwPN3+wRmzCczr1Mjz+WfMLtwbzr6T
ARzKNs1NQgkvDXnnGDVgSTlHqmiCs+SLtxvhEfA4L1EMmtSUDqE9S8HIWMzq52wZ
PRdIRs9hB7oOBLFR6tJNAgMBAAGjgacwgaQwDgYDVR0PAQH/BAQDAgWgMAkGA1Ud
EwQCMAAwHQYDVR0lBBYwFAYIKwYBBQUHAwEGCCsGAQUFBwMCMB0GA1UdDgQWBBTZ
EiWjdFT15jEoL/ekkMal1KIiFDAfBgNVHSMEGDAWgBTY6Bw30NT3JCyEVuAXCucj
qZTKlDAoBgNVHREEITAfgh1Db21wb25lbnQtMS5QT0xJVE8ubW9ucm9lLm9yZzAN
BgkqhkiG9w0BAQUFAAOCAgEAmOUES5lKkB0gHTa2mRYYa+ZlaRaegB5rQtk5bzfv
bE2LYderayHjgH7K5HmHxZthUJhZagi+XAzf3ujFAlfpV2r/YuZkdOg7k2I8Q9/G
w8T93V7vkZyMzbUEgao3bNdq65UrgD999Shvcisg/MZOVi2psURsPRfKAbv/CyvU
hkMk51L7nDaKWZp8+dgfO95a6BpKTRbVmTAGZzvZkowR6irmxI7RwaDIhi0t9Ehj
bgTCPFq0rzebrQyLdcVDIYcBfQ8a9hzSEuwf2p1W5eZHXW94bk6XZsslhDF4YXeu
pDqApuneutYL5V6eCb/38QkMgMQxPuQLR2cRIoUHbFrvDkCM3hW2PItqXO2yG9hJ
6TIXYHsZJll1XNZADqq87o0T0UJfRMmM0Zj1T3l7L/4RVFbj7erk2aTB7Cacv2I1
qs0xGj+Ayv6zmLsD9VXIvGKZqZWF567u854z/JuZdYsdWOgmGs1ZSR+Q2cp09SAF
6kY0ddM+EvtZqWrnSc2HpAw51cYb7YIOpIOAiXw7REnO3KD9Ynl68Acta3FJHmub
xbzgvkueInyDqqizMmAVivJW0kwpvwbCG2QkP7OvGMD5ubk8WdXFm9q2UQqXWH+T
VCZjTMFdUZ/9is/Z7tsE6wBdLJExalUAtftcVUHT/hqYr+A1s0StxvKi1FW0h3Jg
Amk=
-----END CERTIFICATE-----
