Certificate:
    Data:
        Version: 3 (0x2)
        Serial Number: 6 (0x6)
    Signature Algorithm: sha1WithRSAEncryption
        Issuer: DC=org, DC=mplane, OU=Root-CA, CN=Root-CA-1
        Validity
            Not Before: May 28 10:07:03 2015 GMT
            Not After : May 27 10:07:03 2017 GMT
        Subject: DC=org, DC=mplane, O=ULg, OU=Components, CN=scamper
        Subject Public Key Info:
            Public Key Algorithm: rsaEncryption
                Public-Key: (2048 bit)
                Modulus:
                    00:e8:72:7f:b3:50:70:1b:84:7f:74:34:eb:08:1f:
                    89:63:2d:26:5e:b8:7d:a0:62:a8:00:22:f1:79:17:
                    c4:96:57:13:09:ec:66:21:2c:6e:aa:aa:31:c4:fc:
                    f6:1e:71:55:58:bd:9b:61:98:8b:c5:a6:91:0c:83:
                    fb:9e:9d:c9:54:41:5b:dc:14:48:c6:66:28:aa:40:
                    7a:b8:54:5c:9f:63:5d:78:75:4d:9d:47:88:f8:b4:
                    c3:47:8a:3f:67:28:65:ef:97:35:1d:2f:8a:a2:86:
                    1b:b8:ee:63:38:0d:b3:f5:c4:0e:1f:0a:ec:6b:74:
                    46:a9:70:5a:a8:7d:bf:2e:1d:60:24:08:2c:bf:0e:
                    9c:0a:80:88:c2:10:e0:b4:71:d5:72:a1:b0:c3:2c:
                    6b:91:50:0a:dd:c5:51:cc:f0:5a:d5:f2:24:7d:54:
                    c0:96:11:b5:b8:f1:4f:f5:97:14:6b:9c:f2:e3:36:
                    e3:10:db:37:e4:e7:de:48:16:cc:95:9d:fe:f8:ea:
                    52:4c:7b:bd:99:47:b9:0d:9e:e1:96:56:18:1f:0c:
                    34:8e:b1:db:86:55:c0:31:85:00:4b:89:95:ff:b5:
                    64:6a:77:ff:2a:e3:77:c4:46:af:7e:ca:52:da:b1:
                    ff:52:7a:d6:60:9b:5a:4d:f7:5a:a7:8f:39:80:8c:
                    71:ab
                Exponent: 65537 (0x10001)
        X509v3 extensions:
            X509v3 Key Usage: critical
                Digital Signature, Key Encipherment
            X509v3 Basic Constraints: 
                CA:FALSE
            X509v3 Extended Key Usage: 
                TLS Web Server Authentication, TLS Web Client Authentication
            X509v3 Subject Key Identifier: 
                0F:18:47:6C:68:C5:C6:CA:85:44:81:74:DC:C9:A5:34:B7:A9:81:3D
            X509v3 Authority Key Identifier: 
                keyid:5B:74:DB:A9:23:6B:AF:29:24:ED:21:13:BE:34:DB:94:CB:24:62:F0

            X509v3 Subject Alternative Name: 
                DNS:Component-1.ULg.mplane.org
    Signature Algorithm: sha1WithRSAEncryption
         bb:06:4a:6c:96:a7:41:e6:95:c3:f9:d5:f1:87:56:cb:d7:95:
         a8:37:bb:68:24:f5:c2:bf:b2:b6:2d:86:49:9e:bb:ae:9b:c7:
         63:6e:2e:3e:a6:c3:e9:e9:e2:00:72:d4:93:00:28:7c:2e:d8:
         07:22:6d:ed:e5:8a:6a:5c:9c:17:e5:df:b5:23:5b:e1:70:19:
         ab:3a:46:5e:f2:e4:bb:2b:31:eb:20:6d:1c:0d:21:35:61:3e:
         63:64:46:9a:fd:f6:21:9d:c1:63:c1:b2:07:fb:38:39:e0:5b:
         a2:8c:a4:4c:cd:9a:f8:8b:7b:f7:c3:6c:fe:00:05:13:14:05:
         1a:0a:15:65:a2:a3:7a:f8:33:8d:2b:4e:de:9f:29:91:ed:08:
         28:51:4b:2f:26:2c:4c:22:79:66:ea:fc:f3:61:7f:ef:fe:43:
         fc:3e:36:19:b5:5a:9f:c3:81:8b:6c:0c:98:ea:38:7d:03:d6:
         c8:78:e2:5f:56:cf:f0:ba:84:30:a7:00:ff:99:6b:f9:c1:dd:
         90:84:6b:78:45:1b:a1:d8:75:6a:9f:66:fa:e5:f2:a6:64:a4:
         15:a9:dc:96:39:2e:0a:17:8d:ed:ae:a4:29:ca:a6:c1:fa:c3:
         fa:31:b8:73:5b:ec:76:d6:0c:b1:c4:92:2a:e4:5d:ea:a2:a4:
         ff:54:19:4a:ca:3f:d6:9f:25:9d:ec:34:ef:b1:fe:d1:75:ff:
         13:df:cd:15:5f:d5:ff:81:52:bf:65:30:ed:c0:45:0c:e4:95:
         ef:af:b1:e6:63:06:f6:37:e5:26:86:af:b7:43:7d:05:18:5e:
         73:c3:f1:dd:50:87:20:1f:dd:9f:19:d6:8b:77:3b:e6:eb:35:
         cb:91:78:13:21:16:62:4d:63:95:59:ce:a8:48:79:36:9f:b5:
         2a:52:ce:8f:b4:0f:8d:31:8b:5a:20:c0:b6:b0:69:9a:12:ad:
         19:48:ef:86:b5:64:74:5a:7c:2f:30:df:7e:c8:86:ad:71:a2:
         36:3e:56:e6:b9:c0:24:52:53:30:62:26:2f:e4:81:44:0d:25:
         43:d1:ef:bb:62:af:f5:77:f6:39:ce:8f:2e:13:cf:fe:32:a0:
         c6:c8:64:e3:9f:00:32:9a:0d:69:34:b2:6d:4f:01:e3:cd:40:
         cb:43:27:48:f2:27:91:41:0f:b6:f3:b6:22:cc:59:dc:2a:40:
         a8:56:9b:8a:b2:8b:c5:a5:4e:dc:71:01:b0:db:44:1b:88:23:
         39:1a:d2:5a:cc:f4:2b:5a:d8:8e:e0:fa:8d:a2:9a:82:17:da:
         b8:ab:7d:70:9f:68:03:b6:55:ca:8b:88:cb:54:83:3a:fa:d2:
         c8:e4:b7:d9:49:fe:58:14
-----BEGIN CERTIFICATE-----
MIIE1TCCAr2gAwIBAgIBBjANBgkqhkiG9w0BAQUFADBTMRMwEQYKCZImiZPyLGQB
GRYDb3JnMRYwFAYKCZImiZPyLGQBGRYGbXBsYW5lMRAwDgYDVQQLDAdSb290LUNB
MRIwEAYDVQQDDAlSb290LUNBLTEwHhcNMTUwNTI4MTAwNzAzWhcNMTcwNTI3MTAw
NzAzWjBiMRMwEQYKCZImiZPyLGQBGRYDb3JnMRYwFAYKCZImiZPyLGQBGRYGbXBs
YW5lMQwwCgYDVQQKDANVTGcxEzARBgNVBAsMCkNvbXBvbmVudHMxEDAOBgNVBAMM
B3NjYW1wZXIwggEiMA0GCSqGSIb3DQEBAQUAA4IBDwAwggEKAoIBAQDocn+zUHAb
hH90NOsIH4ljLSZeuH2gYqgAIvF5F8SWVxMJ7GYhLG6qqjHE/PYecVVYvZthmIvF
ppEMg/uenclUQVvcFEjGZiiqQHq4VFyfY114dU2dR4j4tMNHij9nKGXvlzUdL4qi
hhu47mM4DbP1xA4fCuxrdEapcFqofb8uHWAkCCy/DpwKgIjCEOC0cdVyobDDLGuR
UArdxVHM8FrV8iR9VMCWEbW48U/1lxRrnPLjNuMQ2zfk595IFsyVnf746lJMe72Z
R7kNnuGWVhgfDDSOsduGVcAxhQBLiZX/tWRqd/8q43fERq9+ylLasf9SetZgm1pN
91qnjzmAjHGrAgMBAAGjgaQwgaEwDgYDVR0PAQH/BAQDAgWgMAkGA1UdEwQCMAAw
HQYDVR0lBBYwFAYIKwYBBQUHAwEGCCsGAQUFBwMCMB0GA1UdDgQWBBQPGEdsaMXG
yoVEgXTcyaU0t6mBPTAfBgNVHSMEGDAWgBRbdNupI2uvKSTtIRO+NNuUyyRi8DAl
BgNVHREEHjAcghpDb21wb25lbnQtMS5VTGcubXBsYW5lLm9yZzANBgkqhkiG9w0B
AQUFAAOCAgEAuwZKbJanQeaVw/nV8YdWy9eVqDe7aCT1wr+yti2GSZ67rpvHY24u
PqbD6eniAHLUkwAofC7YByJt7eWKalycF+XftSNb4XAZqzpGXvLkuysx6yBtHA0h
NWE+Y2RGmv32IZ3BY8GyB/s4OeBbooykTM2a+It798Ns/gAFExQFGgoVZaKjevgz
jStO3p8pke0IKFFLLyYsTCJ5Zur882F/7/5D/D42GbVan8OBi2wMmOo4fQPWyHji
X1bP8LqEMKcA/5lr+cHdkIRreEUbodh1ap9m+uXypmSkFancljkuCheN7a6kKcqm
wfrD+jG4c1vsdtYMscSSKuRd6qKk/1QZSso/1p8lnew077H+0XX/E9/NFV/V/4FS
v2Uw7cBFDOSV76+x5mMG9jflJoavt0N9BRhec8Px3VCHIB/dnxnWi3c75us1y5F4
EyEWYk1jlVnOqEh5Np+1KlLOj7QPjTGLWiDAtrBpmhKtGUjvhrVkdFp8LzDffsiG
rXGiNj5W5rnAJFJTMGImL+SBRA0lQ9Hvu2Kv9Xf2Oc6PLhPP/jKgxshk458AMpoN
aTSybU8B481Ay0MnSPInkUEPtvO2IsxZ3CpAqFabirKLxaVO3HEBsNtEG4gjORrS
Wsz0K1rYjuD6jaKaghfauKt9cJ9oA7ZVyouIy1SDOvrSyOS32Un+WBQ=
-----END CERTIFICATE-----
