Certificate:
    Data:
        Version: 3 (0x2)
        Serial Number: 6 (0x6)
    Signature Algorithm: sha1WithRSAEncryption
        Issuer: DC=org, DC=mplane, OU=Root-CA, CN=Root-CA-1
        Validity
            Not Before: Dec 10 11:33:18 2014 GMT
            Not After : Dec  9 11:33:18 2016 GMT
        Subject: DC=org, DC=mplane, O=SSB, OU=Clients, CN=Client-2
        Subject Public Key Info:
            Public Key Algorithm: rsaEncryption
                Public-Key: (1024 bit)
                Modulus:
                    00:e3:c1:f9:c8:1d:81:13:84:b7:24:f3:49:75:94:
                    46:8c:7d:54:5f:1b:a9:af:25:c0:0d:f9:c4:0f:88:
                    3d:5f:e7:3d:6c:62:29:17:9b:c7:30:c2:7f:8d:e5:
                    79:06:29:e3:40:05:f6:4d:90:a9:c0:0f:2b:55:59:
                    cf:89:76:a7:91:f7:c2:5b:71:df:ea:91:d5:f6:4e:
                    94:50:c4:4e:10:64:04:9a:3c:3a:0c:b6:df:19:f8:
                    65:ef:0d:90:af:cd:9a:c1:90:ae:ef:3a:f0:9a:af:
                    91:67:df:d3:76:16:bf:73:4b:fd:1d:cc:1e:25:58:
                    97:a9:7f:38:67:4d:ca:ab:87
                Exponent: 65537 (0x10001)
        X509v3 extensions:
            X509v3 Key Usage: critical
                Digital Signature, Key Encipherment
            X509v3 Basic Constraints: 
                CA:FALSE
            X509v3 Extended Key Usage: 
                E-mail Protection, TLS Web Client Authentication
            X509v3 Subject Key Identifier: 
                7A:D9:44:05:DA:0C:F7:D6:CB:83:AA:F3:EA:E8:F5:37:C6:57:FD:39
            X509v3 Authority Key Identifier: 
                keyid:5B:74:DB:A9:23:6B:AF:29:24:ED:21:13:BE:34:DB:94:CB:24:62:F0

            X509v3 Subject Alternative Name: 
                DNS:Client-1.SSB.mplane.org
    Signature Algorithm: sha1WithRSAEncryption
         6b:0b:64:b8:11:9e:6d:cd:ab:b4:5f:ef:7f:49:79:ae:97:f5:
         5f:2e:1c:e9:db:6b:d4:47:23:07:bb:86:98:bd:eb:41:bc:36:
         7a:79:0a:b7:12:cb:ab:82:e0:80:bb:3c:34:39:9c:3c:28:ca:
         89:87:f6:88:64:2e:4c:29:fe:e8:c1:c7:73:a4:43:84:a9:2d:
         7e:91:57:60:c5:8b:b5:85:d5:49:06:3b:7b:f0:bd:cc:fa:b3:
         55:11:84:aa:65:bb:94:8f:1d:23:9d:f7:44:ae:b8:57:ee:5b:
         49:a9:c6:d5:78:bf:bb:ec:92:f0:d5:ac:f7:7b:04:41:c4:32:
         0c:94:4c:a3:d7:6b:ff:65:b8:e5:2b:d7:51:4f:66:ba:f6:93:
         1d:2e:44:7d:fb:90:9b:23:83:40:26:d1:aa:16:33:29:3e:28:
         7f:7f:d9:84:60:e0:ab:6c:7e:32:09:ff:7b:ab:b5:37:f6:0d:
         d7:8b:30:c9:c0:64:41:8b:4c:88:ec:15:7c:ef:e6:f8:2c:8e:
         6a:63:8c:37:43:eb:8f:10:d0:c2:b6:95:13:a3:6e:78:55:e2:
         c1:79:e6:d6:cd:2e:8f:12:9b:a6:a9:7b:cf:95:ce:d5:14:b9:
         41:e1:cc:dd:f8:a2:2b:97:53:a9:b3:84:39:dc:6e:05:83:a4:
         3b:8b:02:89:5b:51:72:13:06:14:74:90:5d:89:7e:56:d7:87:
         b9:04:2b:a0:f1:25:87:04:20:d8:3c:81:f2:95:58:bf:7a:89:
         d8:7a:45:e8:0e:1b:52:1f:f1:e6:3f:be:f5:25:34:6f:7c:fb:
         52:ac:c6:80:b8:75:e1:ef:4b:b7:d7:4f:1a:2a:32:a9:dd:45:
         a4:66:f7:5c:f3:f5:1a:0b:85:ab:8a:5a:fd:2b:6e:d2:5b:20:
         5e:de:30:d2:22:36:ed:c2:04:ef:93:38:66:2d:42:a3:6d:a8:
         2d:b8:98:c6:00:16:94:8d:9e:e3:ab:bd:70:4b:78:1f:67:e1:
         28:c4:01:cc:29:06:3e:19:c5:dd:06:c7:62:73:53:1e:d8:28:
         41:52:4f:85:7a:91:40:ee:21:9c:a9:1b:bf:72:b1:d0:86:f9:
         22:d5:75:7b:a2:19:f6:65:b8:05:5b:82:72:26:d8:5f:94:2e:
         04:06:68:ef:65:e0:de:6e:ee:cd:ca:05:93:c9:b4:1b:5d:cf:
         d8:90:b0:c0:de:be:52:4a:4a:f4:a3:d5:40:76:8c:fd:9a:39:
         e2:0b:96:63:14:eb:89:2d:55:fd:94:4c:ce:5b:41:94:e5:6d:
         89:30:f4:e8:ba:36:02:4b:ec:02:eb:31:70:a1:1b:9c:b0:39:
         02:a1:49:43:93:88:6b:2e
-----BEGIN CERTIFICATE-----
MIIETDCCAjSgAwIBAgIBBjANBgkqhkiG9w0BAQUFADBTMRMwEQYKCZImiZPyLGQB
GRYDb3JnMRYwFAYKCZImiZPyLGQBGRYGbXBsYW5lMRAwDgYDVQQLDAdSb290LUNB
MRIwEAYDVQQDDAlSb290LUNBLTEwHhcNMTQxMjEwMTEzMzE4WhcNMTYxMjA5MTEz
MzE4WjBgMRMwEQYKCZImiZPyLGQBGRYDb3JnMRYwFAYKCZImiZPyLGQBGRYGbXBs
YW5lMQwwCgYDVQQKDANTU0IxEDAOBgNVBAsMB0NsaWVudHMxETAPBgNVBAMMCENs
aWVudC0yMIGfMA0GCSqGSIb3DQEBAQUAA4GNADCBiQKBgQDjwfnIHYEThLck80l1
lEaMfVRfG6mvJcAN+cQPiD1f5z1sYikXm8cwwn+N5XkGKeNABfZNkKnADytVWc+J
dqeR98Jbcd/qkdX2TpRQxE4QZASaPDoMtt8Z+GXvDZCvzZrBkK7vOvCar5Fn39N2
Fr9zS/0dzB4lWJepfzhnTcqrhwIDAQABo4GhMIGeMA4GA1UdDwEB/wQEAwIFoDAJ
BgNVHRMEAjAAMB0GA1UdJQQWMBQGCCsGAQUFBwMEBggrBgEFBQcDAjAdBgNVHQ4E
FgQUetlEBdoM99bLg6rz6uj1N8ZX/TkwHwYDVR0jBBgwFoAUW3TbqSNrrykk7SET
vjTblMskYvAwIgYDVR0RBBswGYIXQ2xpZW50LTEuU1NCLm1wbGFuZS5vcmcwDQYJ
KoZIhvcNAQEFBQADggIBAGsLZLgRnm3Nq7Rf739Jea6X9V8uHOnba9RHIwe7hpi9
60G8Nnp5CrcSy6uC4IC7PDQ5nDwoyomH9ohkLkwp/ujBx3OkQ4SpLX6RV2DFi7WF
1UkGO3vwvcz6s1URhKplu5SPHSOd90SuuFfuW0mpxtV4v7vskvDVrPd7BEHEMgyU
TKPXa/9luOUr11FPZrr2kx0uRH37kJsjg0Am0aoWMyk+KH9/2YRg4KtsfjIJ/3ur
tTf2DdeLMMnAZEGLTIjsFXzv5vgsjmpjjDdD648Q0MK2lROjbnhV4sF55tbNLo8S
m6ape8+VztUUuUHhzN34oiuXU6mzhDncbgWDpDuLAolbUXITBhR0kF2JflbXh7kE
K6DxJYcEINg8gfKVWL96idh6RegOG1If8eY/vvUlNG98+1KsxoC4deHvS7fXTxoq
MqndRaRm91zz9RoLhauKWv0rbtJbIF7eMNIiNu3CBO+TOGYtQqNtqC24mMYAFpSN
nuOrvXBLeB9n4SjEAcwpBj4Zxd0Gx2JzUx7YKEFST4V6kUDuIZypG79ysdCG+SLV
dXuiGfZluAVbgnIm2F+ULgQGaO9l4N5u7s3KBZPJtBtdz9iQsMDevlJKSvSj1UB2
jP2aOeILlmMU64ktVf2UTM5bQZTlbYkw9Oi6NgJL7ALrMXChG5ywOQKhSUOTiGsu
-----END CERTIFICATE-----
