Certificate:
    Data:
        Version: 3 (0x2)
        Serial Number: 7 (0x7)
    Signature Algorithm: sha1WithRSAEncryption
        Issuer: DC=org, DC=mplane, OU=Root-CA, CN=Root-CA-1
        Validity
            Not Before: Dec 10 11:37:05 2014 GMT
            Not After : Dec  9 11:37:05 2016 GMT
        Subject: DC=org, DC=mplane, O=SSB, OU=Components, CN=Component-2
        Subject Public Key Info:
            Public Key Algorithm: rsaEncryption
                Public-Key: (1024 bit)
                Modulus:
                    00:e4:0c:b2:4b:9a:45:ac:c9:15:9a:61:a2:76:70:
                    8d:47:e9:bb:9b:cd:cd:5c:b9:e6:a5:85:c3:7d:e4:
                    57:f3:ad:7f:54:4c:1a:f7:5f:0a:a5:86:f4:2f:99:
                    b8:58:87:da:1c:38:fb:a1:c2:75:40:2a:16:60:67:
                    18:be:ac:2d:cd:cc:4e:58:f2:b3:a0:69:cb:ec:a2:
                    aa:0e:f5:18:d8:0d:60:3c:69:e2:ff:07:41:9f:89:
                    49:35:13:65:b3:c4:57:28:60:9d:df:af:db:31:58:
                    0e:25:46:04:88:d4:d6:24:2c:c1:b4:c0:f4:59:9c:
                    2e:bd:c1:e2:3c:77:24:e8:b7
                Exponent: 65537 (0x10001)
        X509v3 extensions:
            X509v3 Key Usage: critical
                Digital Signature, Key Encipherment
            X509v3 Basic Constraints: 
                CA:FALSE
            X509v3 Extended Key Usage: 
                E-mail Protection, TLS Web Client Authentication
            X509v3 Subject Key Identifier: 
                A8:82:22:42:6C:12:1D:B1:5C:D2:59:7A:27:B4:3E:37:75:79:9C:25
            X509v3 Authority Key Identifier: 
                keyid:5B:74:DB:A9:23:6B:AF:29:24:ED:21:13:BE:34:DB:94:CB:24:62:F0

            X509v3 Subject Alternative Name: 
                DNS:Component-1.SSB.mplane.org
    Signature Algorithm: sha1WithRSAEncryption
         a6:7f:b7:ae:b1:1d:3b:2d:38:fd:a6:36:a0:91:61:73:ff:e9:
         61:84:e2:1b:da:99:ed:26:74:75:fa:f1:1f:07:a7:ce:00:38:
         1e:3c:9c:53:05:ef:f6:59:95:dd:a7:e7:ce:4a:5c:ad:2c:32:
         58:01:38:ca:8d:6b:20:35:8c:d6:b2:c3:7b:a4:78:35:b9:57:
         95:56:1e:16:9c:92:a8:87:9d:23:53:37:f3:e8:1b:44:08:d6:
         6c:54:92:e9:36:dd:b9:bd:7e:81:e5:bd:ab:d7:95:62:f9:4e:
         28:b9:77:fb:bd:3b:35:84:f5:6f:cd:20:1d:18:8c:60:8e:94:
         7c:f5:a2:49:0a:90:cf:ec:bc:8a:a4:fa:5e:ea:41:8c:66:d2:
         81:37:5e:a5:03:47:58:c2:e2:22:6a:9c:0d:7d:ae:e2:9e:7f:
         0d:ad:72:e3:fd:1f:e3:6c:da:62:27:17:0b:18:04:1c:5d:93:
         61:78:91:37:5b:05:e1:ca:1b:0d:c4:ec:4d:b0:ac:40:74:ba:
         07:64:3a:ef:38:fc:de:0f:95:b7:4d:42:14:2e:8b:3b:65:5a:
         7b:8e:f9:60:9c:f8:b5:d5:26:19:b4:f6:31:bd:4e:fd:1a:bd:
         c3:12:c8:bc:18:d6:b4:3d:a1:23:27:af:fe:d3:24:e6:2b:99:
         00:4c:04:66:e1:bd:e6:23:5e:45:aa:11:cf:84:ae:20:9a:42:
         31:ad:85:51:cc:67:14:41:5e:87:cf:43:a0:d8:6e:a1:88:7a:
         c3:5d:82:c7:ca:6a:56:38:c8:c3:43:f8:47:27:02:53:9e:70:
         37:b4:85:43:3e:99:0c:9c:bd:60:0b:a6:a6:95:a5:92:68:89:
         1e:fb:88:b2:34:70:b4:1a:62:ec:8c:1f:30:c3:7c:21:c9:db:
         73:6e:31:1b:10:7e:b8:c7:04:c2:ad:7a:49:33:53:33:72:14:
         7f:1d:9a:03:9a:79:54:2f:c4:5e:ee:ba:f2:63:4c:6f:02:91:
         a5:61:86:35:71:94:34:d3:d1:0a:69:d9:45:4f:db:df:b4:e0:
         ee:86:9d:53:a3:3b:c8:2a:1e:a0:61:f8:bf:f2:39:9f:0d:0c:
         7d:33:1d:06:3c:11:db:5c:db:f7:5c:68:77:8c:0a:fe:0c:b6:
         a9:73:88:40:72:c5:c8:b1:9c:d3:33:b3:5c:79:c0:68:37:e7:
         30:0c:36:d7:d0:41:7f:47:06:b9:fd:97:14:cc:6a:fc:0a:6b:
         ec:a8:7d:41:df:06:f0:cc:7d:2f:b0:cb:ba:1c:1e:2e:8b:e1:
         c5:a5:f6:10:69:4a:e1:3e:d6:8b:36:d0:e1:e1:c2:43:d2:62:
         fa:a6:dc:d0:60:48:6d:35
-----BEGIN CERTIFICATE-----
MIIEVTCCAj2gAwIBAgIBBzANBgkqhkiG9w0BAQUFADBTMRMwEQYKCZImiZPyLGQB
GRYDb3JnMRYwFAYKCZImiZPyLGQBGRYGbXBsYW5lMRAwDgYDVQQLDAdSb290LUNB
MRIwEAYDVQQDDAlSb290LUNBLTEwHhcNMTQxMjEwMTEzNzA1WhcNMTYxMjA5MTEz
NzA1WjBmMRMwEQYKCZImiZPyLGQBGRYDb3JnMRYwFAYKCZImiZPyLGQBGRYGbXBs
YW5lMQwwCgYDVQQKDANTU0IxEzARBgNVBAsMCkNvbXBvbmVudHMxFDASBgNVBAMM
C0NvbXBvbmVudC0yMIGfMA0GCSqGSIb3DQEBAQUAA4GNADCBiQKBgQDkDLJLmkWs
yRWaYaJ2cI1H6bubzc1cuealhcN95FfzrX9UTBr3XwqlhvQvmbhYh9ocOPuhwnVA
KhZgZxi+rC3NzE5Y8rOgacvsoqoO9RjYDWA8aeL/B0GfiUk1E2WzxFcoYJ3fr9sx
WA4lRgSI1NYkLMG0wPRZnC69weI8dyTotwIDAQABo4GkMIGhMA4GA1UdDwEB/wQE
AwIFoDAJBgNVHRMEAjAAMB0GA1UdJQQWMBQGCCsGAQUFBwMEBggrBgEFBQcDAjAd
BgNVHQ4EFgQUqIIiQmwSHbFc0ll6J7Q+N3V5nCUwHwYDVR0jBBgwFoAUW3TbqSNr
rykk7SETvjTblMskYvAwJQYDVR0RBB4wHIIaQ29tcG9uZW50LTEuU1NCLm1wbGFu
ZS5vcmcwDQYJKoZIhvcNAQEFBQADggIBAKZ/t66xHTstOP2mNqCRYXP/6WGE4hva
me0mdHX68R8Hp84AOB48nFMF7/ZZld2n585KXK0sMlgBOMqNayA1jNayw3ukeDW5
V5VWHhackqiHnSNTN/PoG0QI1mxUkuk23bm9foHlvavXlWL5Tii5d/u9OzWE9W/N
IB0YjGCOlHz1okkKkM/svIqk+l7qQYxm0oE3XqUDR1jC4iJqnA19ruKefw2tcuP9
H+Ns2mInFwsYBBxdk2F4kTdbBeHKGw3E7E2wrEB0ugdkOu84/N4PlbdNQhQuiztl
WnuO+WCc+LXVJhm09jG9Tv0avcMSyLwY1rQ9oSMnr/7TJOYrmQBMBGbhveYjXkWq
Ec+EriCaQjGthVHMZxRBXofPQ6DYbqGIesNdgsfKalY4yMND+EcnAlOecDe0hUM+
mQycvWALpqaVpZJoiR77iLI0cLQaYuyMHzDDfCHJ23NuMRsQfrjHBMKtekkzUzNy
FH8dmgOaeVQvxF7uuvJjTG8CkaVhhjVxlDTT0Qpp2UVP29+04O6GnVOjO8gqHqBh
+L/yOZ8NDH0zHQY8Edtc2/dcaHeMCv4MtqlziEByxcixnNMzs1x5wGg35zAMNtfQ
QX9HBrn9lxTMavwKa+yofUHfBvDMfS+wy7ocHi6L4cWl9hBpSuE+1os20OHhwkPS
Yvqm3NBgSG01
-----END CERTIFICATE-----
