Certificate:
    Data:
        Version: 3 (0x2)
        Serial Number: 7 (0x7)
    Signature Algorithm: sha1WithRSAEncryption
        Issuer: DC=org, DC=monroe, OU=Root-CA, CN=Root-CA-1
        Validity
            Not Before: Oct 12 08:52:30 2015 GMT
            Not After : Oct 11 08:52:30 2017 GMT
        Subject: DC=org, DC=monroe, O=SSB, OU=Components, CN=Monroe_Node_1
        Subject Public Key Info:
            Public Key Algorithm: rsaEncryption
                Public-Key: (2048 bit)
                Modulus:
                    00:c2:7c:c5:b1:27:69:56:02:70:b8:df:52:da:4a:
                    bd:33:a5:95:67:b0:04:0c:8f:08:f4:56:3f:73:4d:
                    b5:bc:55:6e:1b:e1:20:ba:b8:bb:c2:0b:b9:d5:d5:
                    91:96:2b:68:58:34:57:f2:ef:5e:2a:09:62:94:01:
                    64:37:17:33:63:ec:e0:8a:7d:3f:24:0c:42:25:e1:
                    f4:25:1e:fe:17:5d:9a:9e:f9:02:19:17:8e:e5:d1:
                    e1:0b:81:39:0f:53:a2:35:11:97:9c:e3:cf:16:92:
                    5f:fd:8b:5c:fb:69:c7:82:96:bc:6c:47:01:ba:13:
                    c9:41:a3:93:fa:d3:3f:4f:ae:2c:d9:a3:bd:f8:58:
                    c2:0d:d7:ff:f2:d2:ae:bb:af:30:96:cc:da:ea:b6:
                    89:80:6a:b6:de:53:47:3d:ec:5a:91:e5:00:de:b8:
                    18:8e:93:38:e0:51:73:77:b3:04:95:26:a8:61:68:
                    b9:32:fb:a6:71:7d:6f:25:d2:3e:44:80:65:9d:12:
                    e3:8d:24:7d:b2:17:8c:34:9e:ba:67:a4:ac:29:40:
                    ff:8f:e7:b6:78:cc:04:30:a6:c0:8c:ee:e1:e6:63:
                    4d:1e:2a:9f:ce:be:64:ae:ed:a1:11:a6:65:03:93:
                    3a:0c:fb:bd:6e:90:f3:cb:f7:19:36:18:ec:1b:54:
                    3e:fd
                Exponent: 65537 (0x10001)
        X509v3 extensions:
            X509v3 Key Usage: critical
                Digital Signature, Key Encipherment
            X509v3 Basic Constraints: 
                CA:FALSE
            X509v3 Extended Key Usage: 
                TLS Web Server Authentication, TLS Web Client Authentication
            X509v3 Subject Key Identifier: 
                A0:46:65:3E:15:1F:56:15:1E:32:28:C8:2D:AC:69:4A:B3:EC:DC:9C
            X509v3 Authority Key Identifier: 
                keyid:D8:E8:1C:37:D0:D4:F7:24:2C:84:56:E0:17:0A:E7:23:A9:94:CA:94

            X509v3 Subject Alternative Name: 
                DNS:Component-1.POLITO.monroe.org
    Signature Algorithm: sha1WithRSAEncryption
         0a:96:6b:7d:fa:87:6c:e6:3a:c5:d3:e2:cb:ff:1c:5e:95:89:
         5a:3d:20:98:f3:38:e0:34:2b:80:f9:0a:cb:7e:28:6a:83:30:
         da:ab:71:e0:d6:8c:b0:38:7b:ba:7f:ff:48:67:02:75:82:61:
         1e:cf:04:15:da:68:d0:69:2f:b2:67:eb:28:3d:00:db:b2:88:
         97:96:ff:6b:59:29:49:69:8d:d2:1f:db:0d:31:08:13:ef:b0:
         e3:d4:17:08:f8:37:58:5e:39:83:b5:05:9e:19:98:47:89:d3:
         f3:fc:ac:cc:7a:3e:56:45:07:5b:e4:c4:12:5b:1d:df:85:00:
         84:e8:3a:d0:36:40:e8:b4:ec:45:4a:d3:be:5a:cf:b8:4c:ac:
         06:b5:c8:58:c4:0d:b3:df:20:58:a5:e5:06:ed:ec:93:91:c2:
         9d:5b:61:44:c4:91:5b:bc:a3:29:d9:89:0b:49:7c:ed:38:a8:
         45:92:00:20:48:10:f6:e9:c9:67:d1:f4:f6:56:1e:a7:2f:65:
         18:d6:95:25:8d:13:7c:d1:d4:74:36:07:a2:02:18:e9:a0:bf:
         10:19:c2:5b:6a:a0:df:7a:7a:cd:db:af:9a:ff:cd:b7:22:cc:
         1d:e2:38:c4:64:49:fc:4b:ac:ec:3b:a2:19:08:81:7f:04:6e:
         48:6f:fb:53:45:a2:1d:0d:55:c1:4d:31:91:b9:fb:bf:bc:76:
         4e:1a:d5:6a:6b:3a:31:03:46:e5:e6:90:c8:2a:2e:f6:0d:d1:
         6c:a2:2d:e4:95:62:f4:06:34:dc:71:a9:9b:fa:f7:72:15:e3:
         b4:57:99:ed:b5:b8:35:dd:95:59:91:d0:6c:9e:1f:91:f4:91:
         1e:d6:72:6a:f5:3f:2f:27:2a:a2:66:1d:d4:03:09:12:0b:ba:
         44:d4:2f:de:8c:d9:d5:1a:31:77:ca:28:79:c8:46:03:54:f7:
         10:25:ac:e1:69:1e:7d:01:1a:6a:78:9c:68:c6:c1:bf:25:f9:
         e3:c3:91:bc:c8:5c:23:e8:af:44:18:69:0a:b4:0b:3e:1d:1e:
         83:06:da:c2:45:49:88:0f:4b:e4:c6:81:db:2b:f3:8c:53:1a:
         6c:9a:5a:5f:51:3d:1f:30:6b:15:d9:3f:b0:ff:99:91:47:40:
         cb:a4:9f:3c:be:58:99:a8:b9:04:e9:2e:09:bf:70:16:ca:9a:
         d9:31:1d:c1:60:9d:ca:e4:7b:16:eb:be:f1:15:a0:3d:40:fc:
         eb:ff:aa:4b:58:3d:52:ed:60:c2:ea:b8:ce:43:67:3e:62:7b:
         44:dc:f1:a2:58:54:7c:26:d7:1f:55:3a:3c:e5:6a:47:ac:ea:
         b6:26:19:f6:50:81:47:f8
-----BEGIN CERTIFICATE-----
MIIE3jCCAsagAwIBAgIBBzANBgkqhkiG9w0BAQUFADBTMRMwEQYKCZImiZPyLGQB
GRYDb3JnMRYwFAYKCZImiZPyLGQBGRYGbW9ucm9lMRAwDgYDVQQLDAdSb290LUNB
MRIwEAYDVQQDDAlSb290LUNBLTEwHhcNMTUxMDEyMDg1MjMwWhcNMTcxMDExMDg1
MjMwWjBoMRMwEQYKCZImiZPyLGQBGRYDb3JnMRYwFAYKCZImiZPyLGQBGRYGbW9u
cm9lMQwwCgYDVQQKDANTU0IxEzARBgNVBAsMCkNvbXBvbmVudHMxFjAUBgNVBAMM
DU1vbnJvZV9Ob2RlXzEwggEiMA0GCSqGSIb3DQEBAQUAA4IBDwAwggEKAoIBAQDC
fMWxJ2lWAnC431LaSr0zpZVnsAQMjwj0Vj9zTbW8VW4b4SC6uLvCC7nV1ZGWK2hY
NFfy714qCWKUAWQ3FzNj7OCKfT8kDEIl4fQlHv4XXZqe+QIZF47l0eELgTkPU6I1
EZec488Wkl/9i1z7aceClrxsRwG6E8lBo5P60z9PrizZo734WMIN1//y0q67rzCW
zNrqtomAarbeU0c97FqR5QDeuBiOkzjgUXN3swSVJqhhaLky+6ZxfW8l0j5EgGWd
EuONJH2yF4w0nrpnpKwpQP+P57Z4zAQwpsCM7uHmY00eKp/OvmSu7aERpmUDkzoM
+71ukPPL9xk2GOwbVD79AgMBAAGjgacwgaQwDgYDVR0PAQH/BAQDAgWgMAkGA1Ud
EwQCMAAwHQYDVR0lBBYwFAYIKwYBBQUHAwEGCCsGAQUFBwMCMB0GA1UdDgQWBBSg
RmU+FR9WFR4yKMgtrGlKs+zcnDAfBgNVHSMEGDAWgBTY6Bw30NT3JCyEVuAXCucj
qZTKlDAoBgNVHREEITAfgh1Db21wb25lbnQtMS5QT0xJVE8ubW9ucm9lLm9yZzAN
BgkqhkiG9w0BAQUFAAOCAgEACpZrffqHbOY6xdPiy/8cXpWJWj0gmPM44DQrgPkK
y34oaoMw2qtx4NaMsDh7un//SGcCdYJhHs8EFdpo0GkvsmfrKD0A27KIl5b/a1kp
SWmN0h/bDTEIE++w49QXCPg3WF45g7UFnhmYR4nT8/yszHo+VkUHW+TEElsd34UA
hOg60DZA6LTsRUrTvlrPuEysBrXIWMQNs98gWKXlBu3sk5HCnVthRMSRW7yjKdmJ
C0l87TioRZIAIEgQ9unJZ9H09lYepy9lGNaVJY0TfNHUdDYHogIY6aC/EBnCW2qg
33p6zduvmv/NtyLMHeI4xGRJ/Eus7DuiGQiBfwRuSG/7U0WiHQ1VwU0xkbn7v7x2
ThrVams6MQNG5eaQyCou9g3RbKIt5JVi9AY03HGpm/r3chXjtFeZ7bW4Nd2VWZHQ
bJ4fkfSRHtZyavU/LycqomYd1AMJEgu6RNQv3ozZ1Roxd8ooechGA1T3ECWs4Wke
fQEaanicaMbBvyX548ORvMhcI+ivRBhpCrQLPh0egwbawkVJiA9L5MaB2yvzjFMa
bJpaX1E9HzBrFdk/sP+ZkUdAy6SfPL5Ymai5BOkuCb9wFsqa2TEdwWCdyuR7Fuu+
8RWgPUD86/+qS1g9Uu1gwuq4zkNnPmJ7RNzxolhUfCbXH1U6POVqR6zqtiYZ9lCB
R/g=
-----END CERTIFICATE-----
