Certificate:
    Data:
        Version: 3 (0x2)
        Serial Number: 8 (0x8)
    Signature Algorithm: sha1WithRSAEncryption
        Issuer: DC=org, DC=mplane, OU=Root-CA, CN=Root-CA-1
        Validity
            Not Before: Dec 10 14:03:04 2014 GMT
            Not After : Dec  9 14:03:04 2016 GMT
        Subject: DC=org, DC=mplane, O=SSB, OU=Clients, CN=Client-2
        Subject Public Key Info:
            Public Key Algorithm: rsaEncryption
                Public-Key: (1024 bit)
                Modulus:
                    00:c0:a5:10:2b:74:4b:1c:f6:16:51:1c:bc:bb:2a:
                    85:a3:82:6c:69:0f:7c:79:c5:f9:64:63:06:d7:92:
                    8e:01:62:e2:3d:56:8d:74:37:10:e1:51:11:31:e7:
                    87:38:e3:a9:04:28:fe:34:e9:c7:5f:e9:4c:15:b7:
                    6d:3e:8c:12:20:7b:57:f3:bf:b8:19:1f:46:cf:28:
                    60:98:43:c1:f7:06:83:42:c7:36:2c:f8:f4:18:c0:
                    0d:7b:66:08:3f:2a:ed:aa:59:88:75:b4:34:5d:b6:
                    ee:a5:08:0e:2f:97:ae:c2:4b:f0:60:8d:56:6c:c2:
                    2d:6b:8d:d3:15:ae:23:db:8d
                Exponent: 65537 (0x10001)
        X509v3 extensions:
            X509v3 Key Usage: critical
                Digital Signature, Key Encipherment
            X509v3 Basic Constraints: 
                CA:FALSE
            X509v3 Extended Key Usage: 
                E-mail Protection, TLS Web Client Authentication
            X509v3 Subject Key Identifier: 
                54:8D:10:38:54:C3:7E:78:46:28:41:C9:94:EE:07:85:0B:55:0B:39
            X509v3 Authority Key Identifier: 
                keyid:5B:74:DB:A9:23:6B:AF:29:24:ED:21:13:BE:34:DB:94:CB:24:62:F0

            X509v3 Subject Alternative Name: 
                DNS:Client-2.SSB.mplane.org
    Signature Algorithm: sha1WithRSAEncryption
         09:a1:6c:17:aa:ff:be:0f:91:78:23:52:5b:2d:56:81:d2:c8:
         1c:d7:1a:da:8d:ff:6d:01:74:d3:33:4d:01:b9:e9:cf:64:4a:
         3e:86:fe:a8:72:89:ed:98:a9:31:f5:bf:b9:88:47:d5:57:4a:
         97:d4:ac:8b:92:b5:87:75:43:39:10:22:95:69:96:ec:a7:b2:
         00:c8:4b:87:71:b6:89:72:03:b8:15:3f:47:31:62:94:f1:33:
         2f:00:db:64:6b:75:08:00:66:60:a2:64:0b:15:d1:8d:ef:d1:
         87:8c:79:33:41:f3:30:48:94:be:2f:5b:7c:d1:67:89:ae:69:
         6f:99:4f:2a:ef:6b:6a:e5:00:ca:36:f3:15:84:45:7b:5e:ab:
         c2:d5:84:45:50:de:27:4c:03:3f:2c:84:32:ff:dd:a9:42:02:
         f5:cd:f9:35:93:cc:39:d7:65:9e:14:07:4b:cf:0c:4d:80:a5:
         6d:05:e1:8a:b2:5f:c7:25:19:f2:97:3f:4c:5a:91:34:b5:3e:
         e1:b1:44:53:2c:56:75:21:fa:b4:4a:6f:4a:d0:f8:f2:c6:ff:
         08:f5:f9:df:0d:97:30:7a:05:4c:b4:d1:d9:3a:bf:56:40:12:
         1e:ed:55:59:c0:99:c8:01:ee:20:9d:c2:1e:c3:1d:c8:23:23:
         66:8c:a1:51:0a:f8:79:1b:d4:ab:68:0c:e6:1d:00:1f:f6:eb:
         1a:a0:96:40:1c:1f:96:ae:3c:b8:1b:e8:dd:d4:f0:8a:2e:85:
         91:44:99:bb:cc:93:77:f3:f8:c9:6e:7a:04:69:04:be:be:8d:
         d7:84:8a:aa:37:4b:16:c8:7e:2c:8c:71:4e:2d:0e:95:6e:0e:
         fa:57:9d:7c:02:e9:ae:3b:d4:ac:49:e8:23:56:a8:95:83:e4:
         05:51:0e:c3:86:5d:9e:ed:10:68:9d:ce:e9:67:c7:cd:a6:89:
         31:af:cf:b0:ba:7a:c9:b9:e8:dc:8c:8d:24:d0:cf:f6:93:6a:
         2c:bc:b8:7d:a5:2a:3d:2d:e2:27:54:10:8a:96:fe:68:33:09:
         f4:77:90:eb:40:21:e7:6d:e2:56:28:16:8e:a7:04:90:e1:20:
         15:2c:e0:34:5c:2b:9f:f2:3d:ef:10:80:fa:28:5c:0f:d3:0e:
         63:16:d7:4c:d0:90:99:8d:9f:78:1e:e4:1d:53:d9:01:08:a1:
         52:8d:b4:68:d9:c2:1a:80:bb:bb:c5:ad:5f:0b:96:b2:73:d5:
         3f:84:07:f2:2a:72:0e:b2:a9:bf:57:8b:94:e3:f1:dc:3a:d8:
         83:4a:30:06:51:ef:67:42:00:91:5c:52:8d:2f:fb:ba:7e:0b:
         85:62:70:21:ba:2c:6a:7e
-----BEGIN CERTIFICATE-----
MIIETDCCAjSgAwIBAgIBCDANBgkqhkiG9w0BAQUFADBTMRMwEQYKCZImiZPyLGQB
GRYDb3JnMRYwFAYKCZImiZPyLGQBGRYGbXBsYW5lMRAwDgYDVQQLDAdSb290LUNB
MRIwEAYDVQQDDAlSb290LUNBLTEwHhcNMTQxMjEwMTQwMzA0WhcNMTYxMjA5MTQw
MzA0WjBgMRMwEQYKCZImiZPyLGQBGRYDb3JnMRYwFAYKCZImiZPyLGQBGRYGbXBs
YW5lMQwwCgYDVQQKDANTU0IxEDAOBgNVBAsMB0NsaWVudHMxETAPBgNVBAMMCENs
aWVudC0yMIGfMA0GCSqGSIb3DQEBAQUAA4GNADCBiQKBgQDApRArdEsc9hZRHLy7
KoWjgmxpD3x5xflkYwbXko4BYuI9Vo10NxDhUREx54c446kEKP406cdf6UwVt20+
jBIge1fzv7gZH0bPKGCYQ8H3BoNCxzYs+PQYwA17Zgg/Ku2qWYh1tDRdtu6lCA4v
l67CS/BgjVZswi1rjdMVriPbjQIDAQABo4GhMIGeMA4GA1UdDwEB/wQEAwIFoDAJ
BgNVHRMEAjAAMB0GA1UdJQQWMBQGCCsGAQUFBwMEBggrBgEFBQcDAjAdBgNVHQ4E
FgQUVI0QOFTDfnhGKEHJlO4HhQtVCzkwHwYDVR0jBBgwFoAUW3TbqSNrrykk7SET
vjTblMskYvAwIgYDVR0RBBswGYIXQ2xpZW50LTIuU1NCLm1wbGFuZS5vcmcwDQYJ
KoZIhvcNAQEFBQADggIBAAmhbBeq/74PkXgjUlstVoHSyBzXGtqN/20BdNMzTQG5
6c9kSj6G/qhyie2YqTH1v7mIR9VXSpfUrIuStYd1QzkQIpVpluynsgDIS4dxtoly
A7gVP0cxYpTxMy8A22RrdQgAZmCiZAsV0Y3v0YeMeTNB8zBIlL4vW3zRZ4muaW+Z
Tyrva2rlAMo28xWERXteq8LVhEVQ3idMAz8shDL/3alCAvXN+TWTzDnXZZ4UB0vP
DE2ApW0F4YqyX8clGfKXP0xakTS1PuGxRFMsVnUh+rRKb0rQ+PLG/wj1+d8NlzB6
BUy00dk6v1ZAEh7tVVnAmcgB7iCdwh7DHcgjI2aMoVEK+Hkb1KtoDOYdAB/26xqg
lkAcH5auPLgb6N3U8IouhZFEmbvMk3fz+MluegRpBL6+jdeEiqo3SxbIfiyMcU4t
DpVuDvpXnXwC6a471KxJ6CNWqJWD5AVRDsOGXZ7tEGidzulnx82miTGvz7C6esm5
6NyMjSTQz/aTaiy8uH2lKj0t4idUEIqW/mgzCfR3kOtAIedt4lYoFo6nBJDhIBUs
4DRcK5/yPe8QgPooXA/TDmMW10zQkJmNn3ge5B1T2QEIoVKNtGjZwhqAu7vFrV8L
lrJz1T+EB/Iqcg6yqb9Xi5Tj8dw62INKMAZR72dCAJFcUo0v+7p+C4VicCG6LGp+
-----END CERTIFICATE-----
