Certificate:
    Data:
        Version: 3 (0x2)
        Serial Number: 8 (0x8)
    Signature Algorithm: sha1WithRSAEncryption
        Issuer: DC=org, DC=mplane, OU=Root-CA, CN=Root-CA-1
        Validity
            Not Before: May 29 07:48:20 2015 GMT
            Not After : May 28 07:48:20 2017 GMT
        Subject: DC=org, DC=mplane, O=ULg, OU=Supervisors, CN=scamper
        Subject Public Key Info:
            Public Key Algorithm: rsaEncryption
                Public-Key: (2048 bit)
                Modulus:
                    00:c0:80:33:d6:07:d0:60:c6:f0:1e:cb:c3:44:31:
                    3a:ef:e1:0d:3d:89:f1:a4:ca:1a:72:51:0d:b9:5e:
                    30:f4:96:10:a7:dd:cb:3b:fb:38:ad:d2:6a:31:30:
                    9a:e0:4a:18:2d:dc:a2:5f:41:6d:bc:28:ff:89:66:
                    5e:22:43:76:3b:14:5b:b6:11:57:4d:60:00:e9:cd:
                    96:c0:e9:e8:e9:1b:30:c3:20:37:35:a5:a5:52:68:
                    79:43:71:87:4e:d7:bf:3c:9e:00:99:b6:4e:bb:3d:
                    c4:1a:d7:e6:59:83:e5:b9:4a:3c:a1:9e:29:8d:86:
                    7c:df:e0:81:ce:d0:c7:36:6d:c2:49:88:3f:44:c7:
                    91:65:5c:80:fc:bf:b5:02:5f:43:a2:dc:c2:1c:57:
                    d9:18:e7:cc:da:94:80:0a:89:71:83:49:7c:4d:e2:
                    43:eb:61:ea:ed:c4:06:26:01:cc:88:d6:97:c3:12:
                    5b:f0:2e:a1:d9:14:ff:0e:2a:c1:8f:cf:b8:ea:b5:
                    fc:d3:58:c5:3e:0a:c9:b8:da:bb:3e:70:14:83:04:
                    14:84:45:f5:6e:75:ed:03:96:01:d8:d7:b5:c6:1c:
                    ea:30:60:12:b3:5e:54:9c:30:1f:45:e0:86:96:ef:
                    9a:0e:70:81:7c:41:ab:ba:4e:b7:2d:7c:b7:b0:2a:
                    ce:a5
                Exponent: 65537 (0x10001)
        X509v3 extensions:
            X509v3 Key Usage: critical
                Digital Signature, Key Encipherment
            X509v3 Basic Constraints: 
                CA:FALSE
            X509v3 Extended Key Usage: 
                TLS Web Server Authentication, TLS Web Client Authentication
            X509v3 Subject Key Identifier: 
                8C:7B:43:26:1F:97:A9:88:1A:38:B0:41:11:65:C2:89:4E:1C:43:3D
            X509v3 Authority Key Identifier: 
                keyid:5B:74:DB:A9:23:6B:AF:29:24:ED:21:13:BE:34:DB:94:CB:24:62:F0

            X509v3 Subject Alternative Name: 
                DNS:Supervisor-1.SSB.mplane.org
    Signature Algorithm: sha1WithRSAEncryption
         32:7a:0b:4f:6d:7b:47:62:e1:9b:78:3f:b2:1d:de:6b:15:f6:
         8c:ee:56:48:cb:ea:83:e7:f5:21:af:41:cc:28:b1:79:e6:b9:
         9a:13:15:4d:17:53:c1:0f:c5:be:e4:f9:91:3f:11:f1:fa:f8:
         40:ef:fd:bf:7d:3f:ca:26:1c:d0:3c:45:99:90:49:ce:02:3b:
         43:bd:bb:79:b1:ac:d5:89:52:3d:97:a0:8f:03:07:c9:98:07:
         80:44:aa:33:6d:b4:d8:13:1d:96:0e:5a:98:2d:ea:2a:94:3d:
         7b:85:8b:0a:2f:5c:2a:3a:ee:83:1e:a2:d7:32:86:5f:ab:97:
         0f:38:b2:2e:89:13:ec:76:3b:72:35:4d:2a:ca:a7:9d:81:02:
         c5:4d:d3:52:6a:16:0f:78:cd:dc:ca:4d:77:01:b0:6a:04:d8:
         e6:64:3a:e6:3a:d2:61:00:0c:44:cc:9d:99:c3:88:4b:03:f8:
         92:4a:39:8f:d3:bc:0f:c5:6d:c0:99:b7:7a:da:6f:9c:61:c2:
         4c:e3:7b:93:2b:3d:b5:a6:c2:74:27:ac:bb:c7:d1:29:5a:64:
         cc:2a:57:e3:0e:ff:30:f7:46:72:87:69:b3:ef:f4:97:a2:74:
         dc:25:cb:d2:de:85:37:e7:3d:db:06:75:1a:6e:e0:35:29:18:
         05:7d:4b:4a:6b:3b:4b:ce:1f:11:82:60:57:50:e6:d7:4e:58:
         4d:fb:6d:62:f3:af:a5:89:30:21:7a:66:12:f5:62:f4:5e:d5:
         43:8c:fa:87:04:52:af:90:6a:16:82:1c:a9:6d:bf:c9:2a:2d:
         99:ea:ce:43:65:b3:4d:61:df:28:96:b0:0d:e5:29:fb:83:40:
         dd:89:42:ef:46:99:a8:a3:a9:2a:6d:5d:ee:72:98:e9:b2:f9:
         47:16:59:75:75:83:07:f4:ea:d4:45:fb:c9:35:1d:ac:56:ce:
         80:61:b2:39:2e:8d:f0:24:35:45:c4:ff:c6:6d:60:87:2a:72:
         bc:18:21:0d:cd:ab:49:dc:5b:4b:3b:f7:ae:f6:0f:32:24:51:
         50:a7:77:fe:c5:e7:bf:d8:57:5b:27:62:97:7e:db:62:6c:06:
         9b:dc:fa:b3:5e:11:e7:bf:d3:d2:d4:97:94:34:18:27:3c:81:
         44:dc:0e:37:78:09:71:b3:86:a8:d9:b0:29:c7:7b:33:68:96:
         b2:c8:f8:48:56:f9:06:36:30:6f:96:5d:9a:4c:64:0b:cc:04:
         1b:96:61:f1:0e:ae:d8:39:51:04:fe:79:10:e1:49:fe:0a:eb:
         f9:4a:35:e0:17:47:56:bb:c2:af:31:45:ad:93:9f:b5:2a:ce:
         92:2c:9d:16:0b:d1:62:21
-----BEGIN CERTIFICATE-----
MIIE1zCCAr+gAwIBAgIBCDANBgkqhkiG9w0BAQUFADBTMRMwEQYKCZImiZPyLGQB
GRYDb3JnMRYwFAYKCZImiZPyLGQBGRYGbXBsYW5lMRAwDgYDVQQLDAdSb290LUNB
MRIwEAYDVQQDDAlSb290LUNBLTEwHhcNMTUwNTI5MDc0ODIwWhcNMTcwNTI4MDc0
ODIwWjBjMRMwEQYKCZImiZPyLGQBGRYDb3JnMRYwFAYKCZImiZPyLGQBGRYGbXBs
YW5lMQwwCgYDVQQKDANVTGcxFDASBgNVBAsMC1N1cGVydmlzb3JzMRAwDgYDVQQD
DAdzY2FtcGVyMIIBIjANBgkqhkiG9w0BAQEFAAOCAQ8AMIIBCgKCAQEAwIAz1gfQ
YMbwHsvDRDE67+ENPYnxpMoaclENuV4w9JYQp93LO/s4rdJqMTCa4EoYLdyiX0Ft
vCj/iWZeIkN2OxRbthFXTWAA6c2WwOno6RswwyA3NaWlUmh5Q3GHTte/PJ4AmbZO
uz3EGtfmWYPluUo8oZ4pjYZ83+CBztDHNm3CSYg/RMeRZVyA/L+1Al9DotzCHFfZ
GOfM2pSAColxg0l8TeJD62Hq7cQGJgHMiNaXwxJb8C6h2RT/DirBj8+46rX801jF
PgrJuNq7PnAUgwQUhEX1bnXtA5YB2Ne1xhzqMGASs15UnDAfReCGlu+aDnCBfEGr
uk63LXy3sCrOpQIDAQABo4GlMIGiMA4GA1UdDwEB/wQEAwIFoDAJBgNVHRMEAjAA
MB0GA1UdJQQWMBQGCCsGAQUFBwMBBggrBgEFBQcDAjAdBgNVHQ4EFgQUjHtDJh+X
qYgaOLBBEWXCiU4cQz0wHwYDVR0jBBgwFoAUW3TbqSNrrykk7SETvjTblMskYvAw
JgYDVR0RBB8wHYIbU3VwZXJ2aXNvci0xLlNTQi5tcGxhbmUub3JnMA0GCSqGSIb3
DQEBBQUAA4ICAQAyegtPbXtHYuGbeD+yHd5rFfaM7lZIy+qD5/Uhr0HMKLF55rma
ExVNF1PBD8W+5PmRPxHx+vhA7/2/fT/KJhzQPEWZkEnOAjtDvbt5sazViVI9l6CP
AwfJmAeARKozbbTYEx2WDlqYLeoqlD17hYsKL1wqOu6DHqLXMoZfq5cPOLIuiRPs
djtyNU0qyqedgQLFTdNSahYPeM3cyk13AbBqBNjmZDrmOtJhAAxEzJ2Zw4hLA/iS
SjmP07wPxW3Ambd62m+cYcJM43uTKz21psJ0J6y7x9EpWmTMKlfjDv8w90Zyh2mz
7/SXonTcJcvS3oU35z3bBnUabuA1KRgFfUtKaztLzh8RgmBXUObXTlhN+21i86+l
iTAhemYS9WL0XtVDjPqHBFKvkGoWghypbb/JKi2Z6s5DZbNNYd8olrAN5Sn7g0Dd
iULvRpmoo6kqbV3ucpjpsvlHFll1dYMH9OrURfvJNR2sVs6AYbI5Lo3wJDVFxP/G
bWCHKnK8GCENzatJ3FtLO/eu9g8yJFFQp3f+xee/2FdbJ2KXfttibAab3PqzXhHn
v9PS1JeUNBgnPIFE3A43eAlxs4ao2bApx3szaJayyPhIVvkGNjBvll2aTGQLzAQb
lmHxDq7YOVEE/nkQ4Un+Cuv5SjXgF0dWu8KvMUWtk5+1Ks6SLJ0WC9FiIQ==
-----END CERTIFICATE-----
