Certificate:
    Data:
        Version: 3 (0x2)
        Serial Number: 8 (0x8)
    Signature Algorithm: sha1WithRSAEncryption
        Issuer: DC=org, DC=monroe, OU=Root-CA, CN=Root-CA-1
        Validity
            Not Before: Oct 12 08:53:48 2015 GMT
            Not After : Oct 11 08:53:48 2017 GMT
        Subject: DC=org, DC=monroe, O=SSB, OU=Components, CN=Monroe_Node_1
        Subject Public Key Info:
            Public Key Algorithm: rsaEncryption
                Public-Key: (2048 bit)
                Modulus:
                    00:f5:89:07:76:c1:39:f3:b9:3b:6f:81:e4:e3:b5:
                    74:71:55:19:76:ba:38:16:f3:99:03:b5:e9:04:b4:
                    cf:2e:20:e5:66:78:1c:f7:e8:a6:a5:c8:16:b5:79:
                    9d:a3:98:5a:86:b8:9f:f0:af:bc:ab:58:ba:52:fd:
                    09:bf:b5:d9:19:d3:45:22:53:ae:a4:ef:43:34:e4:
                    50:3b:7a:ea:f6:3c:35:92:89:18:67:c8:7a:4a:46:
                    45:32:d8:32:ad:28:cf:5a:1f:d7:46:f6:98:91:49:
                    a6:6f:1e:a0:43:4a:df:80:47:90:40:de:43:99:68:
                    33:55:43:3f:83:5d:01:0d:22:53:20:4b:32:b2:34:
                    20:e8:f6:a5:0c:ab:0a:8a:f1:1c:d1:13:1f:1d:e5:
                    d0:ab:5f:4c:4a:d4:df:7e:0f:e3:82:51:74:cf:30:
                    97:76:b6:22:1b:e9:c7:c8:35:bf:54:8f:54:5b:dc:
                    c4:14:0f:82:d0:4a:42:5f:aa:30:0e:0f:bd:c0:a8:
                    f4:78:43:5a:e4:26:ab:fd:3f:55:72:2f:47:44:f3:
                    46:31:20:62:9b:a3:81:0f:b2:61:d2:06:b2:22:1d:
                    52:5f:57:79:e3:ff:54:e4:a2:2e:2f:a7:2f:c9:9f:
                    d7:2e:70:47:8a:9a:21:ad:a4:13:f2:fa:1e:77:8c:
                    ae:3f
                Exponent: 65537 (0x10001)
        X509v3 extensions:
            X509v3 Key Usage: critical
                Digital Signature, Key Encipherment
            X509v3 Basic Constraints: 
                CA:FALSE
            X509v3 Extended Key Usage: 
                TLS Web Server Authentication, TLS Web Client Authentication
            X509v3 Subject Key Identifier: 
                C5:86:4A:47:62:0A:CC:AF:E0:20:64:70:71:E0:1B:76:97:0D:9D:56
            X509v3 Authority Key Identifier: 
                keyid:D8:E8:1C:37:D0:D4:F7:24:2C:84:56:E0:17:0A:E7:23:A9:94:CA:94

            X509v3 Subject Alternative Name: 
                DNS:Component-1.POLITO.monroe.org
    Signature Algorithm: sha1WithRSAEncryption
         38:27:c0:d8:b6:46:8c:78:fe:61:19:20:d6:bc:77:57:4b:ce:
         10:12:bf:07:5a:83:19:84:d6:e7:97:12:72:78:62:6c:70:06:
         80:0c:cf:8c:59:ff:d2:ae:a4:ed:72:b0:79:b5:de:c2:d8:f9:
         3a:e6:ca:99:b3:9f:54:42:45:10:6d:29:b4:a6:ac:e3:ef:19:
         fd:ff:51:4f:4f:a3:9f:df:2c:dc:c4:a5:ae:48:a8:61:1a:ee:
         84:b4:ab:36:63:53:eb:e1:3c:54:0d:a6:14:ae:0c:e6:e8:1c:
         fb:98:8a:e6:49:ca:1d:11:c7:c1:7b:78:ae:f0:db:4d:09:e9:
         87:bb:4f:20:ee:9c:e8:b7:1c:9b:e1:4a:25:9a:45:d3:f3:49:
         4b:d4:bd:e8:34:b4:c3:94:ef:ef:75:43:09:c0:fc:31:d9:00:
         09:5b:ed:4c:af:b3:2e:b3:9f:24:db:cf:18:93:fd:a7:73:df:
         b7:bb:bd:93:a1:6e:83:e1:3c:89:98:ea:ef:29:98:7e:46:51:
         f0:c4:78:03:85:c5:44:8b:05:cc:7f:7e:27:94:4e:e5:88:17:
         89:ae:b1:53:c2:03:24:f2:ba:8a:49:6e:30:92:4d:e4:eb:11:
         6b:43:8b:fd:c3:a2:d0:35:b0:64:31:84:47:81:58:07:93:69:
         7d:14:e6:15:96:3c:51:34:05:01:36:54:60:50:5d:50:54:9e:
         41:8d:56:62:aa:97:de:9e:03:04:39:d4:86:20:85:8e:a1:9b:
         7c:f5:47:d5:61:12:b9:e5:d7:b9:86:a4:46:47:71:cf:99:83:
         b8:0f:cd:51:8a:60:0f:bd:34:ff:05:73:ab:b5:2a:fa:03:bd:
         5e:7e:16:d7:ef:81:82:d9:7e:97:b8:1c:94:03:05:94:ed:db:
         2c:78:b0:17:fe:4b:ca:70:e5:64:cd:21:a5:b6:d4:4c:2c:b2:
         2e:61:37:3b:06:33:78:93:5d:ad:e4:09:32:07:2e:5c:f0:8b:
         c2:f7:46:49:50:11:d3:59:b2:a7:c5:9a:df:c5:08:6c:5c:8d:
         c4:4c:25:d2:67:10:30:b7:db:75:3a:79:ea:b3:bc:f6:93:8a:
         ad:fc:f0:00:c9:5a:36:f6:bd:af:4b:1a:a1:8f:1f:21:b7:c4:
         07:0b:3b:f9:d2:2e:8a:ad:b7:69:4f:9c:8e:bf:d3:82:81:81:
         79:92:5c:81:af:d8:f8:5a:02:14:6b:7c:96:ba:72:99:f9:32:
         0f:fd:ae:39:36:21:b4:94:47:f9:0c:30:df:c1:d0:2c:01:ea:
         52:d7:78:ec:7c:17:ba:60:6c:4d:12:a3:0c:77:aa:49:1e:d7:
         3d:99:df:7d:6a:17:a3:8d
-----BEGIN CERTIFICATE-----
MIIE3jCCAsagAwIBAgIBCDANBgkqhkiG9w0BAQUFADBTMRMwEQYKCZImiZPyLGQB
GRYDb3JnMRYwFAYKCZImiZPyLGQBGRYGbW9ucm9lMRAwDgYDVQQLDAdSb290LUNB
MRIwEAYDVQQDDAlSb290LUNBLTEwHhcNMTUxMDEyMDg1MzQ4WhcNMTcxMDExMDg1
MzQ4WjBoMRMwEQYKCZImiZPyLGQBGRYDb3JnMRYwFAYKCZImiZPyLGQBGRYGbW9u
cm9lMQwwCgYDVQQKDANTU0IxEzARBgNVBAsMCkNvbXBvbmVudHMxFjAUBgNVBAMM
DU1vbnJvZV9Ob2RlXzEwggEiMA0GCSqGSIb3DQEBAQUAA4IBDwAwggEKAoIBAQD1
iQd2wTnzuTtvgeTjtXRxVRl2ujgW85kDtekEtM8uIOVmeBz36KalyBa1eZ2jmFqG
uJ/wr7yrWLpS/Qm/tdkZ00UiU66k70M05FA7eur2PDWSiRhnyHpKRkUy2DKtKM9a
H9dG9piRSaZvHqBDSt+AR5BA3kOZaDNVQz+DXQENIlMgSzKyNCDo9qUMqwqK8RzR
Ex8d5dCrX0xK1N9+D+OCUXTPMJd2tiIb6cfINb9Uj1Rb3MQUD4LQSkJfqjAOD73A
qPR4Q1rkJqv9P1VyL0dE80YxIGKbo4EPsmHSBrIiHVJfV3nj/1Tkoi4vpy/Jn9cu
cEeKmiGtpBPy+h53jK4/AgMBAAGjgacwgaQwDgYDVR0PAQH/BAQDAgWgMAkGA1Ud
EwQCMAAwHQYDVR0lBBYwFAYIKwYBBQUHAwEGCCsGAQUFBwMCMB0GA1UdDgQWBBTF
hkpHYgrMr+AgZHBx4Bt2lw2dVjAfBgNVHSMEGDAWgBTY6Bw30NT3JCyEVuAXCucj
qZTKlDAoBgNVHREEITAfgh1Db21wb25lbnQtMS5QT0xJVE8ubW9ucm9lLm9yZzAN
BgkqhkiG9w0BAQUFAAOCAgEAOCfA2LZGjHj+YRkg1rx3V0vOEBK/B1qDGYTW55cS
cnhibHAGgAzPjFn/0q6k7XKwebXewtj5OubKmbOfVEJFEG0ptKas4+8Z/f9RT0+j
n98s3MSlrkioYRruhLSrNmNT6+E8VA2mFK4M5ugc+5iK5knKHRHHwXt4rvDbTQnp
h7tPIO6c6Lccm+FKJZpF0/NJS9S96DS0w5Tv73VDCcD8MdkACVvtTK+zLrOfJNvP
GJP9p3Pft7u9k6Fug+E8iZjq7ymYfkZR8MR4A4XFRIsFzH9+J5RO5YgXia6xU8ID
JPK6ikluMJJN5OsRa0OL/cOi0DWwZDGER4FYB5NpfRTmFZY8UTQFATZUYFBdUFSe
QY1WYqqX3p4DBDnUhiCFjqGbfPVH1WESueXXuYakRkdxz5mDuA/NUYpgD700/wVz
q7Uq+gO9Xn4W1++Bgtl+l7gclAMFlO3bLHiwF/5LynDlZM0hpbbUTCyyLmE3OwYz
eJNdreQJMgcuXPCLwvdGSVAR01myp8Wa38UIbFyNxEwl0mcQMLfbdTp56rO89pOK
rfzwAMlaNva9r0saoY8fIbfEBws7+dIuiq23aU+cjr/TgoGBeZJcga/Y+FoCFGt8
lrpymfkyD/2uOTYhtJRH+Qww38HQLAHqUtd47HwXumBsTRKjDHeqSR7XPZnffWoX
o40=
-----END CERTIFICATE-----
