Certificate:
    Data:
        Version: 3 (0x2)
        Serial Number: 9 (0x9)
    Signature Algorithm: sha1WithRSAEncryption
        Issuer: DC=org, DC=mplane, OU=Root-CA, CN=Root-CA-1
        Validity
            Not Before: Dec 10 14:04:48 2014 GMT
            Not After : Dec  9 14:04:48 2016 GMT
        Subject: DC=org, DC=mplane, O=SSB, OU=Components, CN=Component-2
        Subject Public Key Info:
            Public Key Algorithm: rsaEncryption
                Public-Key: (1024 bit)
                Modulus:
                    00:f5:4d:8b:72:34:9f:e8:6a:48:4a:bb:e7:c1:b7:
                    a9:44:6c:cf:6d:84:33:28:7c:1a:c3:d7:a0:ee:43:
                    d0:8e:ad:e3:34:96:cf:ff:5c:7d:fb:fa:c6:e0:86:
                    85:b3:d0:14:9e:e1:a7:a6:bc:3a:85:88:e4:52:d6:
                    0e:ed:9e:8e:78:37:ac:85:2c:2b:75:20:14:c2:7f:
                    6b:bc:04:42:f6:d4:bb:04:21:2f:d5:38:d8:b9:2f:
                    dd:42:2a:5c:bf:ac:ed:ec:88:92:75:a2:66:7e:50:
                    a1:2e:8f:32:22:2f:b9:42:34:90:a2:a3:20:19:e4:
                    ac:fd:6a:0f:c6:e9:ab:7a:35
                Exponent: 65537 (0x10001)
        X509v3 extensions:
            X509v3 Key Usage: critical
                Digital Signature, Key Encipherment
            X509v3 Basic Constraints: 
                CA:FALSE
            X509v3 Extended Key Usage: 
                E-mail Protection, TLS Web Client Authentication
            X509v3 Subject Key Identifier: 
                B2:D7:8E:E8:C2:02:FC:AD:EC:C1:57:73:0E:16:B1:D4:78:18:C1:4C
            X509v3 Authority Key Identifier: 
                keyid:5B:74:DB:A9:23:6B:AF:29:24:ED:21:13:BE:34:DB:94:CB:24:62:F0

            X509v3 Subject Alternative Name: 
                DNS:Component-2.SSB.mplane.org
    Signature Algorithm: sha1WithRSAEncryption
         3e:e8:a3:ad:e6:a1:15:7b:84:4b:b5:16:0d:7b:0a:64:2d:94:
         f3:bc:b7:cd:dc:30:31:13:2a:48:1b:a1:a1:ed:ec:30:65:23:
         3f:d4:c6:93:5b:00:e0:bc:44:7e:ab:84:2c:f4:c4:2d:72:fa:
         98:a5:c5:48:2e:7d:5b:c1:1a:89:68:fa:1d:cc:75:9f:74:37:
         19:a4:1d:e3:e6:39:91:4a:ca:5f:54:d5:8c:56:b0:c5:12:a7:
         a8:a8:d4:2f:81:74:d6:b2:a9:d2:c6:09:29:b7:9a:4e:6b:10:
         a0:ce:f9:8d:2d:16:06:03:c6:6b:f7:33:aa:8f:ed:9d:0a:99:
         79:47:6b:31:67:7d:ec:81:32:c8:2d:14:e9:6a:3a:29:45:52:
         23:21:3d:6e:3d:28:17:a5:69:b3:90:7f:c3:55:32:2b:49:73:
         08:06:4f:04:cd:d0:85:ac:e9:62:12:f3:df:4e:70:40:71:be:
         14:5e:a6:76:a8:72:75:8f:c7:8b:5f:ec:26:d1:b6:4f:4a:2e:
         da:3a:95:b4:7e:e7:ad:ff:1d:d7:08:12:b6:6b:93:c5:54:11:
         b0:bd:b6:64:fa:d3:02:f9:2f:cc:31:9d:67:07:c1:d2:f5:66:
         4a:ff:df:31:f6:c5:06:53:55:8c:b0:46:c2:f4:94:90:53:d3:
         0b:e0:f0:2b:a8:6c:8b:72:8f:6a:9b:2c:f1:7e:0c:39:ed:75:
         2b:4f:31:a8:7f:0d:00:a4:5b:c0:90:c8:30:fd:fa:14:a2:21:
         18:04:39:15:16:ed:74:92:08:aa:50:eb:11:3a:d7:2e:68:e1:
         c3:1f:e8:6f:9e:6c:90:c9:33:aa:4e:e0:0a:76:4b:72:97:fa:
         81:da:65:07:4a:a0:2d:56:70:ff:6f:6a:25:cf:bf:63:3e:22:
         da:75:54:b0:7b:64:73:52:e0:e5:ca:da:b1:66:e2:ba:04:27:
         42:74:12:11:27:20:9d:04:fc:b8:d9:36:64:2e:73:86:78:be:
         12:77:2c:e2:a0:69:85:63:f4:a8:4f:ce:5a:b7:b2:98:8a:9f:
         54:17:30:33:15:13:d4:26:e9:2c:04:a3:fa:7a:16:43:e9:34:
         e2:cf:7f:0f:cd:47:9e:ca:85:51:96:e9:3f:25:31:42:ca:3e:
         0b:92:b8:e9:18:5e:2a:00:86:6b:d1:81:88:e1:fc:f0:77:25:
         10:2d:af:f6:cd:26:03:45:77:80:2f:db:f2:ea:af:3c:d9:2e:
         39:31:06:54:42:69:47:e6:7d:a7:6f:d0:3b:fa:74:99:c0:9c:
         ff:47:b5:df:a2:42:e0:1f:c3:2b:fb:7b:f7:f4:c8:74:3e:cc:
         a7:03:4c:ab:05:4b:67:65
-----BEGIN CERTIFICATE-----
MIIEVTCCAj2gAwIBAgIBCTANBgkqhkiG9w0BAQUFADBTMRMwEQYKCZImiZPyLGQB
GRYDb3JnMRYwFAYKCZImiZPyLGQBGRYGbXBsYW5lMRAwDgYDVQQLDAdSb290LUNB
MRIwEAYDVQQDDAlSb290LUNBLTEwHhcNMTQxMjEwMTQwNDQ4WhcNMTYxMjA5MTQw
NDQ4WjBmMRMwEQYKCZImiZPyLGQBGRYDb3JnMRYwFAYKCZImiZPyLGQBGRYGbXBs
YW5lMQwwCgYDVQQKDANTU0IxEzARBgNVBAsMCkNvbXBvbmVudHMxFDASBgNVBAMM
C0NvbXBvbmVudC0yMIGfMA0GCSqGSIb3DQEBAQUAA4GNADCBiQKBgQD1TYtyNJ/o
akhKu+fBt6lEbM9thDMofBrD16DuQ9COreM0ls//XH37+sbghoWz0BSe4aemvDqF
iORS1g7tno54N6yFLCt1IBTCf2u8BEL21LsEIS/VONi5L91CKly/rO3siJJ1omZ+
UKEujzIiL7lCNJCioyAZ5Kz9ag/G6at6NQIDAQABo4GkMIGhMA4GA1UdDwEB/wQE
AwIFoDAJBgNVHRMEAjAAMB0GA1UdJQQWMBQGCCsGAQUFBwMEBggrBgEFBQcDAjAd
BgNVHQ4EFgQUsteO6MIC/K3swVdzDhax1HgYwUwwHwYDVR0jBBgwFoAUW3TbqSNr
rykk7SETvjTblMskYvAwJQYDVR0RBB4wHIIaQ29tcG9uZW50LTIuU1NCLm1wbGFu
ZS5vcmcwDQYJKoZIhvcNAQEFBQADggIBAD7oo63moRV7hEu1Fg17CmQtlPO8t83c
MDETKkgboaHt7DBlIz/UxpNbAOC8RH6rhCz0xC1y+pilxUgufVvBGolo+h3MdZ90
NxmkHePmOZFKyl9U1YxWsMUSp6io1C+BdNayqdLGCSm3mk5rEKDO+Y0tFgYDxmv3
M6qP7Z0KmXlHazFnfeyBMsgtFOlqOilFUiMhPW49KBelabOQf8NVMitJcwgGTwTN
0IWs6WIS899OcEBxvhRepnaocnWPx4tf7CbRtk9KLto6lbR+563/HdcIErZrk8VU
EbC9tmT60wL5L8wxnWcHwdL1Zkr/3zH2xQZTVYywRsL0lJBT0wvg8CuobItyj2qb
LPF+DDntdStPMah/DQCkW8CQyDD9+hSiIRgEORUW7XSSCKpQ6xE61y5o4cMf6G+e
bJDJM6pO4Ap2S3KX+oHaZQdKoC1WcP9vaiXPv2M+Itp1VLB7ZHNS4OXK2rFm4roE
J0J0EhEnIJ0E/LjZNmQuc4Z4vhJ3LOKgaYVj9KhPzlq3spiKn1QXMDMVE9Qm6SwE
o/p6FkPpNOLPfw/NR57KhVGW6T8lMULKPguSuOkYXioAhmvRgYjh/PB3JRAtr/bN
JgNFd4Av2/LqrzzZLjkxBlRCaUfmfadv0Dv6dJnAnP9Htd+iQuAfwyv7e/f0yHQ+
zKcDTKsFS2dl
-----END CERTIFICATE-----
