Certificate:
    Data:
        Version: 3 (0x2)
        Serial Number: 9 (0x9)
    Signature Algorithm: sha1WithRSAEncryption
        Issuer: DC=org, DC=monroe, OU=Root-CA, CN=Root-CA-1
        Validity
            Not Before: Oct 12 08:56:01 2015 GMT
            Not After : Oct 11 08:56:01 2017 GMT
        Subject: DC=org, DC=monroe, O=SSB, OU=Components, CN=Monroe_Node_1
        Subject Public Key Info:
            Public Key Algorithm: rsaEncryption
                Public-Key: (2048 bit)
                Modulus:
                    00:b3:55:64:d5:53:e9:76:f2:7e:25:e6:41:b3:91:
                    b6:8b:15:52:58:7d:57:40:2b:a1:33:ff:5c:86:a7:
                    6a:f8:a8:8b:2c:29:87:ff:ef:12:1f:fb:99:8e:d5:
                    97:5d:64:35:27:8e:25:95:d1:ad:16:20:bf:8d:bc:
                    bf:5d:40:a0:18:24:4b:3e:7e:25:9e:76:4a:38:e1:
                    ee:b0:19:12:68:42:2c:15:58:f4:28:54:3b:cf:d0:
                    00:55:d5:dc:73:13:59:68:f5:ec:aa:66:a4:05:b5:
                    bc:56:de:b3:6e:f2:47:69:17:73:f0:ec:5f:63:c2:
                    98:36:19:2f:1d:50:67:3f:ae:66:3b:17:ba:3d:44:
                    ed:79:e3:15:b8:2f:67:5f:67:c8:a7:87:6e:68:d8:
                    f0:f1:12:74:29:d4:dd:cd:ab:aa:f6:fe:30:33:d4:
                    28:46:52:a3:30:6d:5c:43:2b:1b:34:47:e7:41:a6:
                    12:c8:02:1e:2d:87:c0:78:f2:c7:54:35:cb:fe:ab:
                    9f:12:17:2e:06:a0:1e:d0:59:f7:6d:64:db:4c:e6:
                    9e:4a:48:25:8f:9e:6d:49:4d:36:ea:94:83:a0:db:
                    fd:29:67:f1:17:9f:c5:f2:56:2a:ad:7e:6f:b1:91:
                    4e:75:6b:c0:2b:90:1c:c6:d0:39:ab:05:9a:37:b5:
                    f5:87
                Exponent: 65537 (0x10001)
        X509v3 extensions:
            X509v3 Key Usage: critical
                Digital Signature, Key Encipherment
            X509v3 Basic Constraints: 
                CA:FALSE
            X509v3 Extended Key Usage: 
                TLS Web Server Authentication, TLS Web Client Authentication
            X509v3 Subject Key Identifier: 
                A0:B6:62:6B:3D:9E:50:74:01:BF:F4:A1:65:9E:73:7C:99:33:5B:62
            X509v3 Authority Key Identifier: 
                keyid:D8:E8:1C:37:D0:D4:F7:24:2C:84:56:E0:17:0A:E7:23:A9:94:CA:94

            X509v3 Subject Alternative Name: 
                DNS:Monroe_Node_1.POLITO.monroe.org
    Signature Algorithm: sha1WithRSAEncryption
         05:8e:8d:a1:38:cd:b3:11:8e:81:39:77:1c:fd:3a:0d:94:15:
         6b:70:b4:68:77:21:0f:3f:2a:c9:33:29:96:cf:7b:8e:b1:4f:
         d1:4f:a9:78:39:46:1c:90:fb:5a:71:84:f0:95:c9:65:54:29:
         43:b2:9a:50:ea:37:27:f0:65:b3:c4:97:59:36:8a:a2:fb:db:
         9c:16:c9:d6:28:95:70:67:18:14:9b:0d:30:fa:c0:4c:76:eb:
         d6:66:17:07:95:a4:7b:54:14:96:da:50:72:b0:7a:fc:e9:64:
         81:7e:08:94:db:bd:14:bd:ab:be:54:79:52:a4:e4:9e:88:da:
         fc:90:dd:31:ba:92:17:5a:a3:58:a8:68:10:78:a8:a2:ae:8a:
         3f:45:d3:7e:69:bc:88:9e:7b:32:66:7c:6a:07:f8:ef:b5:4a:
         a5:eb:f6:8b:b4:64:fe:a5:de:13:7d:ca:58:e5:33:02:dc:8a:
         0c:99:0d:ca:c0:25:1f:86:b5:af:75:e0:82:ce:c1:18:93:74:
         cb:03:d1:ab:4e:0f:0b:2b:18:53:6e:c4:6e:1d:4e:6e:3b:32:
         46:d5:7a:e1:45:9d:e3:eb:0b:e6:c9:4e:ff:40:eb:a4:9e:16:
         2f:e2:71:5c:7f:bc:b4:8e:6b:88:ec:4d:ed:42:a5:03:ac:fb:
         9e:1f:58:c3:cf:18:2c:9e:76:7e:e1:b5:88:61:93:fd:b0:05:
         09:6b:bd:db:6d:95:ec:75:28:de:14:8f:08:85:72:0f:1e:0d:
         d1:9c:a6:e1:a4:33:4d:61:bb:3f:0e:35:3f:b8:a9:34:32:1c:
         7e:64:40:25:f8:ec:51:72:e5:9d:4d:8d:57:ce:be:9b:11:dd:
         d5:8d:7c:4a:74:31:01:46:24:d9:86:e9:ff:a3:0f:01:f6:78:
         bf:cf:7b:d1:6d:61:b9:f9:a3:bd:ad:57:a7:1a:dd:10:73:30:
         29:32:5c:17:13:a3:d1:28:e9:6c:c5:1e:ab:9a:79:35:0f:7c:
         af:bc:7b:fa:f3:61:e8:11:6a:cb:c9:4f:9c:ea:24:6d:81:3f:
         7d:87:27:37:98:c4:9d:b9:23:82:90:51:35:77:da:ae:87:7a:
         ef:23:44:12:5b:90:99:ec:b5:86:9f:14:cc:83:05:2e:e0:85:
         82:6d:37:99:61:d6:3a:19:48:2b:c8:7a:72:ae:e8:04:61:c4:
         8d:d6:48:a1:c0:04:18:9f:12:7e:1f:fb:54:dc:15:69:6c:9f:
         ad:fd:fb:e2:d0:75:14:38:5d:77:62:aa:75:bc:74:e5:33:55:
         83:e4:b2:b7:b9:e1:05:be:ed:ec:fb:33:ee:33:35:9a:cf:e2:
         b9:66:3b:8e:c9:a9:76:93
-----BEGIN CERTIFICATE-----
MIIE4DCCAsigAwIBAgIBCTANBgkqhkiG9w0BAQUFADBTMRMwEQYKCZImiZPyLGQB
GRYDb3JnMRYwFAYKCZImiZPyLGQBGRYGbW9ucm9lMRAwDgYDVQQLDAdSb290LUNB
MRIwEAYDVQQDDAlSb290LUNBLTEwHhcNMTUxMDEyMDg1NjAxWhcNMTcxMDExMDg1
NjAxWjBoMRMwEQYKCZImiZPyLGQBGRYDb3JnMRYwFAYKCZImiZPyLGQBGRYGbW9u
cm9lMQwwCgYDVQQKDANTU0IxEzARBgNVBAsMCkNvbXBvbmVudHMxFjAUBgNVBAMM
DU1vbnJvZV9Ob2RlXzEwggEiMA0GCSqGSIb3DQEBAQUAA4IBDwAwggEKAoIBAQCz
VWTVU+l28n4l5kGzkbaLFVJYfVdAK6Ez/1yGp2r4qIssKYf/7xIf+5mO1ZddZDUn
jiWV0a0WIL+NvL9dQKAYJEs+fiWedko44e6wGRJoQiwVWPQoVDvP0ABV1dxzE1lo
9eyqZqQFtbxW3rNu8kdpF3Pw7F9jwpg2GS8dUGc/rmY7F7o9RO154xW4L2dfZ8in
h25o2PDxEnQp1N3Nq6r2/jAz1ChGUqMwbVxDKxs0R+dBphLIAh4th8B48sdUNcv+
q58SFy4GoB7QWfdtZNtM5p5KSCWPnm1JTTbqlIOg2/0pZ/EXn8XyViqtfm+xkU51
a8ArkBzG0DmrBZo3tfWHAgMBAAGjgakwgaYwDgYDVR0PAQH/BAQDAgWgMAkGA1Ud
EwQCMAAwHQYDVR0lBBYwFAYIKwYBBQUHAwEGCCsGAQUFBwMCMB0GA1UdDgQWBBSg
tmJrPZ5QdAG/9KFlnnN8mTNbYjAfBgNVHSMEGDAWgBTY6Bw30NT3JCyEVuAXCucj
qZTKlDAqBgNVHREEIzAhgh9Nb25yb2VfTm9kZV8xLlBPTElUTy5tb25yb2Uub3Jn
MA0GCSqGSIb3DQEBBQUAA4ICAQAFjo2hOM2zEY6BOXcc/ToNlBVrcLRodyEPPyrJ
MymWz3uOsU/RT6l4OUYckPtacYTwlcllVClDsppQ6jcn8GWzxJdZNoqi+9ucFsnW
KJVwZxgUmw0w+sBMduvWZhcHlaR7VBSW2lBysHr86WSBfgiU270Uvau+VHlSpOSe
iNr8kN0xupIXWqNYqGgQeKiiroo/RdN+abyInnsyZnxqB/jvtUql6/aLtGT+pd4T
fcpY5TMC3IoMmQ3KwCUfhrWvdeCCzsEYk3TLA9GrTg8LKxhTbsRuHU5uOzJG1Xrh
RZ3j6wvmyU7/QOuknhYv4nFcf7y0jmuI7E3tQqUDrPueH1jDzxgsnnZ+4bWIYZP9
sAUJa73bbZXsdSjeFI8IhXIPHg3RnKbhpDNNYbs/DjU/uKk0Mhx+ZEAl+OxRcuWd
TY1Xzr6bEd3VjXxKdDEBRiTZhun/ow8B9ni/z3vRbWG5+aO9rVenGt0QczApMlwX
E6PRKOlsxR6rmnk1D3yvvHv682HoEWrLyU+c6iRtgT99hyc3mMSduSOCkFE1d9qu
h3rvI0QSW5CZ7LWGnxTMgwUu4IWCbTeZYdY6GUgryHpyrugEYcSN1kihwAQYnxJ+
H/tU3BVpbJ+t/fvi0HUUOF13Yqp1vHTlM1WD5LK3ueEFvu3s+zPuMzWaz+K5ZjuO
yal2kw==
-----END CERTIFICATE-----
