Certificate:
    Data:
        Version: 3 (0x2)
        Serial Number: 10 (0xa)
    Signature Algorithm: sha1WithRSAEncryption
        Issuer: DC=org, DC=monroe, OU=Root-CA, CN=Root-CA-1
        Validity
            Not Before: Oct 12 08:58:27 2015 GMT
            Not After : Oct 11 08:58:27 2017 GMT
        Subject: DC=org, DC=monroe, O=SSB, OU=Components, CN=Monroe_Node_1
        Subject Public Key Info:
            Public Key Algorithm: rsaEncryption
                Public-Key: (2048 bit)
                Modulus:
                    00:d7:78:8f:71:4b:7b:9f:34:14:6e:6f:b9:12:73:
                    5e:61:ec:27:ff:2d:7f:4a:f1:95:bf:d6:d4:25:c2:
                    65:67:0e:c9:39:53:77:86:45:06:a7:d4:a7:6e:d9:
                    41:a4:41:36:c9:1d:e1:7f:0b:3b:fb:f7:f6:ca:a2:
                    ae:1c:fa:2f:8b:6f:a9:2a:c2:90:ae:c3:98:8e:22:
                    d5:b9:46:4b:35:14:ef:86:d8:a3:84:ba:38:6f:d5:
                    e9:bc:9c:05:d4:2c:f7:67:02:c8:e8:51:dc:3d:9a:
                    5f:41:1d:bb:6c:63:b5:17:ae:24:f4:94:4c:f7:8f:
                    27:cc:f1:a6:54:6e:a3:a7:fa:96:8e:73:93:c2:30:
                    d3:38:0e:b4:20:5a:dd:05:f3:aa:1e:3b:d6:3e:f4:
                    f1:3f:8b:7f:c7:a7:bc:bc:9c:60:14:bf:74:e2:fb:
                    f7:17:6d:69:93:bf:0f:9a:03:b0:28:5b:87:e1:d2:
                    45:59:73:ab:41:8b:f6:f9:ad:f0:11:5b:31:05:40:
                    f4:6d:ab:55:1a:44:f3:e9:53:0f:cb:b3:48:fb:e2:
                    71:89:da:28:f3:47:99:16:71:43:b5:56:12:ef:42:
                    fc:95:47:30:a2:91:73:7e:ed:64:b8:6c:d1:1c:3f:
                    96:7f:af:cd:60:7a:e4:97:a9:33:dd:71:c8:fe:a6:
                    b2:c9
                Exponent: 65537 (0x10001)
        X509v3 extensions:
            X509v3 Key Usage: critical
                Digital Signature, Key Encipherment
            X509v3 Basic Constraints: 
                CA:FALSE
            X509v3 Extended Key Usage: 
                TLS Web Server Authentication, TLS Web Client Authentication
            X509v3 Subject Key Identifier: 
                DF:55:1D:44:5F:0F:B2:E5:80:45:06:CF:37:0F:76:19:44:57:55:F7
            X509v3 Authority Key Identifier: 
                keyid:D8:E8:1C:37:D0:D4:F7:24:2C:84:56:E0:17:0A:E7:23:A9:94:CA:94

            X509v3 Subject Alternative Name: 
                DNS:Monroe_Node_1.POLITO.monroe.org
    Signature Algorithm: sha1WithRSAEncryption
         6c:22:87:48:86:bf:37:61:47:66:5e:09:e5:2e:88:7e:91:09:
         9b:2a:90:80:aa:38:af:6c:fd:7c:e7:ec:98:df:08:85:8b:61:
         56:29:6b:7b:e4:5f:13:a6:e5:51:78:4b:46:e2:64:da:f4:e2:
         88:60:ea:56:ca:64:af:9a:2b:60:3f:85:32:55:de:0b:26:9c:
         2d:14:86:39:7f:10:c2:99:77:0c:4c:f4:93:04:17:de:74:a1:
         f5:55:ff:40:00:2b:88:dd:f6:4d:a8:0c:75:d5:5f:e1:df:81:
         7c:36:74:3b:17:92:9c:de:b2:f5:6a:e8:51:51:b8:f1:93:fd:
         74:af:4d:83:72:7f:f3:75:7b:86:3c:0f:c7:d7:c0:44:79:e8:
         e9:46:7c:53:c6:75:1c:7a:fd:5f:fa:b6:cd:7d:3a:31:8e:f4:
         0c:ff:35:28:7f:64:bb:39:ec:c3:1a:91:f8:5d:2f:f9:35:c4:
         06:d3:42:19:78:fb:4f:c8:4d:f9:e4:44:df:d3:25:38:28:fe:
         30:8a:8d:37:0e:c4:8d:4b:1f:db:03:19:63:ca:ae:71:4a:fb:
         bc:d4:e8:92:28:9a:5c:00:46:91:cc:32:f9:99:a9:ed:17:52:
         99:8a:8c:e2:ab:31:27:b9:d9:44:3c:54:05:92:a0:52:f7:58:
         fe:b4:0a:9a:f0:84:2a:b8:9d:43:0a:d5:e7:e5:f1:e0:95:c1:
         82:73:5d:8d:77:63:aa:00:89:c0:ed:78:07:6c:50:52:01:84:
         f3:9e:ac:4f:de:90:35:b7:63:05:31:da:c8:4b:90:bd:ac:8a:
         7d:05:81:73:57:67:ed:b7:53:1c:e3:39:34:ab:05:b9:61:51:
         6f:3f:9e:7b:3b:9b:a9:36:8c:f5:62:ed:a2:60:2b:61:fb:3b:
         ff:be:26:fc:df:ce:55:57:6f:fb:f1:5c:a4:94:db:12:a4:ae:
         ea:50:4f:07:20:06:ab:be:5f:94:29:a7:bc:64:4e:3b:7b:23:
         36:ca:70:5c:b5:9f:04:8d:97:2d:ca:06:30:86:e4:08:1b:c5:
         e0:a5:ee:c3:d9:ad:22:89:91:87:a8:ec:b7:f9:4a:36:7c:6c:
         d2:84:34:8c:14:0b:c3:bc:01:1b:64:51:1c:a9:df:83:94:22:
         ee:9d:fe:e8:ad:b7:a1:ef:9c:b9:13:08:66:53:b0:a6:11:fc:
         c3:4f:53:32:62:07:ca:83:0a:2f:4a:d9:46:c1:45:f9:cd:5b:
         56:67:38:ac:a3:f4:e5:02:28:7e:7c:d1:a0:74:dc:82:66:34:
         a1:0b:e4:52:98:d3:c2:35:eb:07:ff:f6:93:37:29:30:d5:8a:
         56:9f:f8:dd:87:50:34:f1
-----BEGIN CERTIFICATE-----
MIIE4DCCAsigAwIBAgIBCjANBgkqhkiG9w0BAQUFADBTMRMwEQYKCZImiZPyLGQB
GRYDb3JnMRYwFAYKCZImiZPyLGQBGRYGbW9ucm9lMRAwDgYDVQQLDAdSb290LUNB
MRIwEAYDVQQDDAlSb290LUNBLTEwHhcNMTUxMDEyMDg1ODI3WhcNMTcxMDExMDg1
ODI3WjBoMRMwEQYKCZImiZPyLGQBGRYDb3JnMRYwFAYKCZImiZPyLGQBGRYGbW9u
cm9lMQwwCgYDVQQKDANTU0IxEzARBgNVBAsMCkNvbXBvbmVudHMxFjAUBgNVBAMM
DU1vbnJvZV9Ob2RlXzEwggEiMA0GCSqGSIb3DQEBAQUAA4IBDwAwggEKAoIBAQDX
eI9xS3ufNBRub7kSc15h7Cf/LX9K8ZW/1tQlwmVnDsk5U3eGRQan1Kdu2UGkQTbJ
HeF/Czv79/bKoq4c+i+Lb6kqwpCuw5iOItW5Rks1FO+G2KOEujhv1em8nAXULPdn
AsjoUdw9ml9BHbtsY7UXriT0lEz3jyfM8aZUbqOn+paOc5PCMNM4DrQgWt0F86oe
O9Y+9PE/i3/Hp7y8nGAUv3Ti+/cXbWmTvw+aA7AoW4fh0kVZc6tBi/b5rfARWzEF
QPRtq1UaRPPpUw/Ls0j74nGJ2ijzR5kWcUO1VhLvQvyVRzCikXN+7WS4bNEcP5Z/
r81geuSXqTPdccj+prLJAgMBAAGjgakwgaYwDgYDVR0PAQH/BAQDAgWgMAkGA1Ud
EwQCMAAwHQYDVR0lBBYwFAYIKwYBBQUHAwEGCCsGAQUFBwMCMB0GA1UdDgQWBBTf
VR1EXw+y5YBFBs83D3YZRFdV9zAfBgNVHSMEGDAWgBTY6Bw30NT3JCyEVuAXCucj
qZTKlDAqBgNVHREEIzAhgh9Nb25yb2VfTm9kZV8xLlBPTElUTy5tb25yb2Uub3Jn
MA0GCSqGSIb3DQEBBQUAA4ICAQBsIodIhr83YUdmXgnlLoh+kQmbKpCAqjivbP18
5+yY3wiFi2FWKWt75F8TpuVReEtG4mTa9OKIYOpWymSvmitgP4UyVd4LJpwtFIY5
fxDCmXcMTPSTBBfedKH1Vf9AACuI3fZNqAx11V/h34F8NnQ7F5Kc3rL1auhRUbjx
k/10r02Dcn/zdXuGPA/H18BEeejpRnxTxnUcev1f+rbNfToxjvQM/zUof2S7OezD
GpH4XS/5NcQG00IZePtPyE355ETf0yU4KP4wio03DsSNSx/bAxljyq5xSvu81OiS
KJpcAEaRzDL5mantF1KZioziqzEnudlEPFQFkqBS91j+tAqa8IQquJ1DCtXn5fHg
lcGCc12Nd2OqAInA7XgHbFBSAYTznqxP3pA1t2MFMdrIS5C9rIp9BYFzV2ftt1Mc
4zk0qwW5YVFvP557O5upNoz1Yu2iYCth+zv/vib8385VV2/78VyklNsSpK7qUE8H
IAarvl+UKae8ZE47eyM2ynBctZ8EjZctygYwhuQIG8Xgpe7D2a0iiZGHqOy3+Uo2
fGzShDSMFAvDvAEbZFEcqd+DlCLunf7orbeh75y5EwhmU7CmEfzDT1MyYgfKgwov
StlGwUX5zVtWZziso/TlAih+fNGgdNyCZjShC+RSmNPCNesH//aTNykw1YpWn/jd
h1A08Q==
-----END CERTIFICATE-----
