Certificate:
    Data:
        Version: 3 (0x2)
        Serial Number: 11 (0xb)
    Signature Algorithm: sha1WithRSAEncryption
        Issuer: DC=org, DC=monroe, OU=Root-CA, CN=Root-CA-1
        Validity
            Not Before: Oct 12 09:01:09 2015 GMT
            Not After : Oct 11 09:01:09 2017 GMT
        Subject: DC=org, DC=monroe, O=SSB, OU=Components, CN=Monroe_Node_1
        Subject Public Key Info:
            Public Key Algorithm: rsaEncryption
                Public-Key: (2048 bit)
                Modulus:
                    00:c8:d7:05:72:2d:42:3d:a1:19:c8:84:04:10:06:
                    f1:fe:1b:74:a8:5b:99:61:b5:b8:d3:56:ef:8c:8c:
                    cf:2a:c2:47:ef:63:f2:76:7f:0f:ef:50:67:d5:bf:
                    29:66:5e:c6:5b:84:00:35:e0:7c:4d:65:31:76:35:
                    ab:7f:fa:64:2c:ea:35:e0:21:eb:a5:7d:da:b6:94:
                    2b:fe:10:46:4e:93:25:b3:d0:f5:b0:5c:99:a9:ca:
                    6f:12:55:aa:c2:ca:3a:14:45:a8:bb:03:43:d7:b9:
                    6b:8a:b8:fc:2c:cc:69:38:7a:bc:a1:3c:24:ea:62:
                    42:40:14:51:ab:e7:79:31:be:60:b3:2a:f9:4e:ed:
                    70:fb:f2:f5:4b:14:68:0b:aa:7f:5c:e7:13:f0:04:
                    8c:e2:ee:4e:00:f6:dc:34:17:eb:76:bf:67:a5:a3:
                    15:83:43:5d:63:05:e5:f1:f7:ec:06:1d:26:da:92:
                    0b:e1:35:39:da:e9:2b:cb:28:ac:31:af:4a:83:19:
                    26:47:4b:a5:02:cc:00:c3:45:84:34:aa:76:5d:e0:
                    e6:74:4e:53:14:33:b4:7e:03:ac:47:a6:a8:e3:f6:
                    6a:9a:19:19:1b:20:47:0b:75:ba:86:38:0d:3b:2c:
                    0d:45:6a:27:f4:11:f5:a3:1d:cd:38:ad:dd:72:d0:
                    a1:4d
                Exponent: 65537 (0x10001)
        X509v3 extensions:
            X509v3 Key Usage: critical
                Digital Signature, Key Encipherment
            X509v3 Basic Constraints: 
                CA:FALSE
            X509v3 Extended Key Usage: 
                TLS Web Server Authentication, TLS Web Client Authentication
            X509v3 Subject Key Identifier: 
                80:C9:51:A1:A6:A4:41:9E:96:04:0F:BE:EF:C1:7D:6F:E8:10:6B:B9
            X509v3 Authority Key Identifier: 
                keyid:D8:E8:1C:37:D0:D4:F7:24:2C:84:56:E0:17:0A:E7:23:A9:94:CA:94

            X509v3 Subject Alternative Name: 
                DNS:Monroe_Node_1.POLITO.monroe.org
    Signature Algorithm: sha1WithRSAEncryption
         8d:06:9e:d4:9e:7d:18:43:51:49:3b:58:99:35:ee:29:b9:6d:
         e0:0a:2b:bf:4e:76:8e:d9:f3:6b:93:16:d4:8b:3d:91:4c:8f:
         46:8e:76:42:ea:70:85:0d:71:22:b5:74:e3:82:50:2c:9a:5a:
         f7:c8:9d:0f:39:76:eb:2b:0a:80:f4:e8:b1:b6:ed:5d:ec:b5:
         0f:d1:63:eb:38:e5:8f:ee:36:18:76:a2:2c:95:2f:29:9c:83:
         29:1f:90:58:46:02:74:64:ff:12:34:02:98:aa:7c:89:44:d7:
         cd:39:69:c1:26:fa:87:ad:1b:ea:5b:79:34:5a:18:1c:75:ca:
         31:be:fc:19:76:c2:e4:c3:c3:b1:68:bc:31:8b:9d:41:35:4f:
         d3:f3:83:24:cb:41:f5:d7:48:68:21:3c:14:90:f6:52:f5:bb:
         7a:15:c3:b4:17:a6:d9:5f:9a:94:9e:55:4e:6d:db:12:34:05:
         dc:08:e5:6e:2c:6f:7c:26:df:4a:26:76:c3:58:09:23:ca:3e:
         fb:ba:15:d0:54:2f:98:20:99:67:10:9f:fc:9a:91:e5:98:eb:
         dc:f7:a6:de:90:79:45:02:df:50:61:55:be:97:a9:b3:ea:07:
         0c:c5:b5:19:d8:f7:91:9d:b4:dd:99:93:ae:27:66:3a:fe:ce:
         47:71:7b:b8:5f:01:f0:71:39:3d:69:dc:b4:cc:b4:ba:5a:48:
         5a:cc:4d:36:63:3c:e7:bd:c2:e0:cc:43:ae:c7:6f:04:ce:7c:
         8e:3c:58:4e:a2:35:77:03:5b:21:ec:1e:19:b5:c9:8e:5f:fe:
         f9:db:a3:6c:10:bd:d9:84:b9:d3:95:dd:08:af:d0:cd:c8:a1:
         75:ea:85:a6:6d:53:2d:6b:14:2b:96:d1:ef:33:0f:29:9b:2a:
         34:2c:27:61:ee:aa:85:2d:59:a4:2a:d5:6f:7f:c9:48:fe:fe:
         d5:33:c5:a8:f0:f8:f7:e8:3c:44:19:04:22:6c:25:5b:15:3b:
         97:e5:dc:c9:aa:3f:31:76:5a:91:3f:97:58:33:64:43:c4:ce:
         6d:07:f6:39:d0:17:bf:db:97:2c:69:52:51:31:b5:e9:a1:84:
         d4:00:32:9d:70:df:9a:a8:f1:4c:e9:d1:53:91:71:2e:9e:cb:
         d0:82:34:d7:96:4d:0c:0d:2c:97:ea:22:fb:f4:68:fc:06:04:
         d9:46:95:e0:f3:13:65:08:64:5c:79:9e:c2:6c:a2:e0:a9:c4:
         98:ba:ed:bf:94:45:b0:b1:79:62:b6:36:f9:f8:d8:51:e5:a0:
         0b:1d:16:b2:32:38:11:57:0e:3f:c8:38:49:9f:63:f7:22:22:
         84:eb:18:c4:0f:2d:0c:44
-----BEGIN CERTIFICATE-----
MIIE4DCCAsigAwIBAgIBCzANBgkqhkiG9w0BAQUFADBTMRMwEQYKCZImiZPyLGQB
GRYDb3JnMRYwFAYKCZImiZPyLGQBGRYGbW9ucm9lMRAwDgYDVQQLDAdSb290LUNB
MRIwEAYDVQQDDAlSb290LUNBLTEwHhcNMTUxMDEyMDkwMTA5WhcNMTcxMDExMDkw
MTA5WjBoMRMwEQYKCZImiZPyLGQBGRYDb3JnMRYwFAYKCZImiZPyLGQBGRYGbW9u
cm9lMQwwCgYDVQQKDANTU0IxEzARBgNVBAsMCkNvbXBvbmVudHMxFjAUBgNVBAMM
DU1vbnJvZV9Ob2RlXzEwggEiMA0GCSqGSIb3DQEBAQUAA4IBDwAwggEKAoIBAQDI
1wVyLUI9oRnIhAQQBvH+G3SoW5lhtbjTVu+MjM8qwkfvY/J2fw/vUGfVvylmXsZb
hAA14HxNZTF2Nat/+mQs6jXgIeulfdq2lCv+EEZOkyWz0PWwXJmpym8SVarCyjoU
Rai7A0PXuWuKuPwszGk4eryhPCTqYkJAFFGr53kxvmCzKvlO7XD78vVLFGgLqn9c
5xPwBIzi7k4A9tw0F+t2v2eloxWDQ11jBeXx9+wGHSbakgvhNTna6SvLKKwxr0qD
GSZHS6UCzADDRYQ0qnZd4OZ0TlMUM7R+A6xHpqjj9mqaGRkbIEcLdbqGOA07LA1F
aif0EfWjHc04rd1y0KFNAgMBAAGjgakwgaYwDgYDVR0PAQH/BAQDAgWgMAkGA1Ud
EwQCMAAwHQYDVR0lBBYwFAYIKwYBBQUHAwEGCCsGAQUFBwMCMB0GA1UdDgQWBBSA
yVGhpqRBnpYED77vwX1v6BBruTAfBgNVHSMEGDAWgBTY6Bw30NT3JCyEVuAXCucj
qZTKlDAqBgNVHREEIzAhgh9Nb25yb2VfTm9kZV8xLlBPTElUTy5tb25yb2Uub3Jn
MA0GCSqGSIb3DQEBBQUAA4ICAQCNBp7Unn0YQ1FJO1iZNe4puW3gCiu/TnaO2fNr
kxbUiz2RTI9GjnZC6nCFDXEitXTjglAsmlr3yJ0POXbrKwqA9Oixtu1d7LUP0WPr
OOWP7jYYdqIslS8pnIMpH5BYRgJ0ZP8SNAKYqnyJRNfNOWnBJvqHrRvqW3k0Whgc
dcoxvvwZdsLkw8OxaLwxi51BNU/T84Mky0H110hoITwUkPZS9bt6FcO0F6bZX5qU
nlVObdsSNAXcCOVuLG98Jt9KJnbDWAkjyj77uhXQVC+YIJlnEJ/8mpHlmOvc96be
kHlFAt9QYVW+l6mz6gcMxbUZ2PeRnbTdmZOuJ2Y6/s5HcXu4XwHwcTk9ady0zLS6
WkhazE02YzznvcLgzEOux28EznyOPFhOojV3A1sh7B4ZtcmOX/7526NsEL3ZhLnT
ld0Ir9DNyKF16oWmbVMtaxQrltHvMw8pmyo0LCdh7qqFLVmkKtVvf8lI/v7VM8Wo
8Pj36DxEGQQibCVbFTuX5dzJqj8xdlqRP5dYM2RDxM5tB/Y50Be/25csaVJRMbXp
oYTUADKdcN+aqPFM6dFTkXEunsvQgjTXlk0MDSyX6iL79Gj8BgTZRpXg8xNlCGRc
eZ7CbKLgqcSYuu2/lEWwsXlitjb5+NhR5aALHRayMjgRVw4/yDhJn2P3IiKE6xjE
Dy0MRA==
-----END CERTIFICATE-----
