Certificate:
    Data:
        Version: 3 (0x2)
        Serial Number: 12 (0xc)
    Signature Algorithm: sha1WithRSAEncryption
        Issuer: DC=org, DC=monroe, OU=Root-CA, CN=Root-CA-1
        Validity
            Not Before: Oct 12 09:16:53 2015 GMT
            Not After : Oct 11 09:16:53 2017 GMT
        Subject: DC=org, DC=monroe, O=SSB, OU=Components, CN=Monroe_Node_1
        Subject Public Key Info:
            Public Key Algorithm: rsaEncryption
                Public-Key: (2048 bit)
                Modulus:
                    00:9a:57:63:d1:23:36:cd:86:44:2d:d3:57:48:9b:
                    3e:f0:29:25:24:18:06:11:c5:50:b9:4d:ea:48:e8:
                    e2:12:a1:09:16:b8:46:2e:55:b6:4b:de:2f:81:1e:
                    0a:d3:c7:69:94:ca:0b:70:6a:96:da:16:39:7c:09:
                    48:d2:9e:bf:58:63:b0:47:3d:af:47:8c:89:52:c6:
                    a7:ef:da:d3:43:27:3d:2d:ce:85:52:14:fb:f0:a2:
                    09:f3:d2:00:ef:fa:5b:88:13:5e:65:9c:82:3c:bd:
                    d1:f2:e6:c6:dd:c6:02:95:9a:31:80:07:fc:7b:03:
                    41:22:d6:6a:99:bf:54:d7:59:c9:25:f9:b6:b8:08:
                    b6:a4:5e:25:cd:1f:c3:79:f2:8d:0c:66:1c:d5:f2:
                    60:ea:9a:ab:d2:57:a2:03:7a:bc:40:08:91:38:77:
                    bc:3b:6c:b5:86:9a:15:15:84:cd:7a:62:1f:01:5d:
                    30:93:4c:47:c6:a1:07:b7:62:fc:89:d6:71:41:dd:
                    d1:a7:9d:7e:7a:20:d1:bf:79:35:19:ae:07:b8:7a:
                    84:e0:c3:ea:94:aa:3a:f6:08:77:d8:bd:85:ba:d1:
                    d3:d3:6f:e1:cd:d5:b3:38:10:fe:f7:51:bb:72:c1:
                    b9:d7:ef:90:ad:8a:56:fa:c3:7e:4c:d8:0e:50:a8:
                    8c:a1
                Exponent: 65537 (0x10001)
        X509v3 extensions:
            X509v3 Key Usage: critical
                Digital Signature, Key Encipherment
            X509v3 Basic Constraints: 
                CA:FALSE
            X509v3 Extended Key Usage: 
                TLS Web Server Authentication, TLS Web Client Authentication
            X509v3 Subject Key Identifier: 
                22:E4:D3:94:F7:0E:20:B9:54:8F:43:E4:65:4E:01:21:BE:35:02:9D
            X509v3 Authority Key Identifier: 
                keyid:D8:E8:1C:37:D0:D4:F7:24:2C:84:56:E0:17:0A:E7:23:A9:94:CA:94

            X509v3 Subject Alternative Name: 
                DNS:Monroe_Node_1.POLITO.monroe.org
    Signature Algorithm: sha1WithRSAEncryption
         3b:36:b1:a0:f4:b8:37:ef:0d:b2:09:a1:1d:95:c1:53:d7:b6:
         39:8a:31:d8:fa:05:20:13:bb:35:ff:84:b3:31:bf:1e:0d:76:
         b5:e7:7a:fc:5d:31:13:3b:ca:32:ad:11:43:93:e5:21:c4:5d:
         65:e8:92:4d:64:cb:fe:ad:89:4e:3f:2b:dd:85:ed:ab:79:5b:
         f2:2c:e4:3b:bc:19:14:1d:ce:79:9b:63:f7:21:d4:6a:47:a2:
         06:60:6c:02:e0:57:05:04:2f:e9:c3:16:f1:15:62:8f:23:25:
         cf:55:68:ff:98:cf:f1:86:b0:ec:f0:61:31:62:a8:d7:4f:51:
         0a:f9:fa:39:42:ef:0f:a8:28:85:64:78:8d:e6:ff:1f:02:75:
         36:44:19:f6:b5:fc:0b:ab:fc:dc:21:a7:1e:44:27:75:a9:ec:
         97:6c:36:fe:a6:b9:a5:4d:d1:71:2a:a4:de:bd:58:57:6c:a5:
         9e:8a:27:46:e0:d2:e2:20:75:c5:5c:45:49:d3:aa:2d:7f:37:
         e4:4b:e4:93:ed:17:7c:76:4c:d3:51:c8:c1:cd:6c:f3:f5:4b:
         47:b3:50:6e:e7:8f:2e:fb:c1:ed:20:a2:44:cd:c3:fb:c0:75:
         e7:8a:f3:48:ba:15:35:56:1a:14:71:98:cd:30:f6:22:5f:37:
         b9:00:60:86:93:7f:02:4a:ff:65:9b:00:94:39:65:93:2f:81:
         71:ba:a4:3c:15:fa:c2:af:21:cd:01:5a:2a:dd:34:93:7d:26:
         1e:17:4e:9d:b3:0c:56:9a:f8:20:63:7c:4c:dd:80:34:b8:3b:
         c3:3a:52:2f:ea:b2:82:d5:e5:50:e2:28:ae:16:ae:80:4e:97:
         6b:a7:03:ff:95:12:2e:fb:9f:de:34:9d:ef:3c:cd:11:80:56:
         63:d0:9f:e3:9d:19:c1:d9:d9:ea:d1:71:12:39:18:6b:2f:f8:
         04:24:39:78:55:91:31:64:d7:cf:4a:f3:bc:b7:67:f2:30:75:
         03:9c:a6:9c:e1:58:7b:92:7e:66:c6:94:95:7a:71:38:32:11:
         9d:75:2b:58:64:8c:e8:28:17:d3:ab:86:8c:a3:e4:d2:8f:b3:
         f0:75:13:48:49:12:f1:d1:7f:34:e2:95:f6:f8:7b:a5:9a:a3:
         72:1b:ae:32:f5:6d:a8:9a:b1:8d:21:09:57:17:52:a7:49:4b:
         42:a0:f4:76:92:60:52:a9:63:33:3b:39:74:7a:d4:a6:d9:07:
         ea:83:8b:b6:89:88:01:0f:5b:14:d8:a8:61:4d:5f:ce:89:51:
         60:de:3d:26:80:e6:3a:f2:15:0f:df:52:88:6c:c3:0b:4b:1e:
         32:21:0f:30:6c:7a:62:ea
-----BEGIN CERTIFICATE-----
MIIE4DCCAsigAwIBAgIBDDANBgkqhkiG9w0BAQUFADBTMRMwEQYKCZImiZPyLGQB
GRYDb3JnMRYwFAYKCZImiZPyLGQBGRYGbW9ucm9lMRAwDgYDVQQLDAdSb290LUNB
MRIwEAYDVQQDDAlSb290LUNBLTEwHhcNMTUxMDEyMDkxNjUzWhcNMTcxMDExMDkx
NjUzWjBoMRMwEQYKCZImiZPyLGQBGRYDb3JnMRYwFAYKCZImiZPyLGQBGRYGbW9u
cm9lMQwwCgYDVQQKDANTU0IxEzARBgNVBAsMCkNvbXBvbmVudHMxFjAUBgNVBAMM
DU1vbnJvZV9Ob2RlXzEwggEiMA0GCSqGSIb3DQEBAQUAA4IBDwAwggEKAoIBAQCa
V2PRIzbNhkQt01dImz7wKSUkGAYRxVC5TepI6OISoQkWuEYuVbZL3i+BHgrTx2mU
ygtwapbaFjl8CUjSnr9YY7BHPa9HjIlSxqfv2tNDJz0tzoVSFPvwognz0gDv+luI
E15lnII8vdHy5sbdxgKVmjGAB/x7A0Ei1mqZv1TXWckl+ba4CLakXiXNH8N58o0M
ZhzV8mDqmqvSV6IDerxACJE4d7w7bLWGmhUVhM16Yh8BXTCTTEfGoQe3YvyJ1nFB
3dGnnX56ING/eTUZrge4eoTgw+qUqjr2CHfYvYW60dPTb+HN1bM4EP73UbtywbnX
75Ctilb6w35M2A5QqIyhAgMBAAGjgakwgaYwDgYDVR0PAQH/BAQDAgWgMAkGA1Ud
EwQCMAAwHQYDVR0lBBYwFAYIKwYBBQUHAwEGCCsGAQUFBwMCMB0GA1UdDgQWBBQi
5NOU9w4guVSPQ+RlTgEhvjUCnTAfBgNVHSMEGDAWgBTY6Bw30NT3JCyEVuAXCucj
qZTKlDAqBgNVHREEIzAhgh9Nb25yb2VfTm9kZV8xLlBPTElUTy5tb25yb2Uub3Jn
MA0GCSqGSIb3DQEBBQUAA4ICAQA7NrGg9Lg37w2yCaEdlcFT17Y5ijHY+gUgE7s1
/4SzMb8eDXa153r8XTETO8oyrRFDk+UhxF1l6JJNZMv+rYlOPyvdhe2reVvyLOQ7
vBkUHc55m2P3IdRqR6IGYGwC4FcFBC/pwxbxFWKPIyXPVWj/mM/xhrDs8GExYqjX
T1EK+fo5Qu8PqCiFZHiN5v8fAnU2RBn2tfwLq/zcIaceRCd1qeyXbDb+prmlTdFx
KqTevVhXbKWeiidG4NLiIHXFXEVJ06otfzfkS+ST7Rd8dkzTUcjBzWzz9UtHs1Bu
548u+8HtIKJEzcP7wHXnivNIuhU1VhoUcZjNMPYiXze5AGCGk38CSv9lmwCUOWWT
L4FxuqQ8FfrCryHNAVoq3TSTfSYeF06dswxWmvggY3xM3YA0uDvDOlIv6rKC1eVQ
4iiuFq6ATpdrpwP/lRIu+5/eNJ3vPM0RgFZj0J/jnRnB2dnq0XESORhrL/gEJDl4
VZExZNfPSvO8t2fyMHUDnKac4Vh7kn5mxpSVenE4MhGddStYZIzoKBfTq4aMo+TS
j7PwdRNISRLx0X804pX2+HulmqNyG64y9W2omrGNIQlXF1KnSUtCoPR2kmBSqWMz
Ozl0etSm2Qfqg4u2iYgBD1sU2KhhTV/OiVFg3j0mgOY68hUP31KIbMMLSx4yIQ8w
bHpi6g==
-----END CERTIFICATE-----
