Certificate:
    Data:
        Version: 3 (0x2)
        Serial Number: 13 (0xd)
    Signature Algorithm: sha1WithRSAEncryption
        Issuer: DC=org, DC=monroe, OU=Root-CA, CN=Root-CA-1
        Validity
            Not Before: Oct 12 09:30:11 2015 GMT
            Not After : Oct 11 09:30:11 2017 GMT
        Subject: DC=org, DC=monroe, O=SSB, OU=Components, CN=Supervisor_1
        Subject Public Key Info:
            Public Key Algorithm: rsaEncryption
                Public-Key: (2048 bit)
                Modulus:
                    00:d1:5b:e5:05:09:93:17:98:4e:64:79:47:f1:ba:
                    71:b8:7c:f3:22:a5:ed:93:34:cd:68:13:1a:5d:23:
                    ee:96:b6:10:59:00:f5:d3:d0:d1:2d:e0:e4:7f:ac:
                    4b:40:2e:39:71:12:6c:85:31:9a:70:d4:81:92:70:
                    e1:57:dc:4d:56:39:a1:74:c2:48:e2:86:45:78:1c:
                    45:80:57:1b:80:35:05:73:f7:52:3a:7d:fd:b7:a0:
                    a1:c1:4a:67:51:3b:bb:7f:4e:f9:d7:a3:33:54:3f:
                    ba:37:3f:14:a8:73:90:d7:77:13:3b:cb:7d:6b:9d:
                    ea:d2:e8:c1:57:44:26:7b:50:79:4c:e6:0a:a1:1e:
                    e6:7f:1e:5a:53:9d:eb:54:5c:ef:8d:1c:0f:dc:8c:
                    22:59:e6:b0:98:9f:05:a0:ec:69:3b:57:2e:c8:74:
                    f9:7a:0e:34:f2:52:b3:d6:14:a5:d8:6c:e3:37:f4:
                    70:71:7b:60:a1:3f:32:d9:19:14:25:6e:02:96:59:
                    2b:72:18:bd:40:d6:6c:41:8b:12:79:5b:3b:44:a8:
                    34:4e:46:2b:d5:fa:47:aa:63:80:e4:b3:f3:d1:cc:
                    08:7a:3e:56:a5:1f:be:21:ff:f4:4d:cb:3f:94:71:
                    db:ff:2c:d9:14:e0:b5:d9:9a:ee:db:b5:83:73:80:
                    0a:75
                Exponent: 65537 (0x10001)
        X509v3 extensions:
            X509v3 Key Usage: critical
                Digital Signature, Key Encipherment
            X509v3 Basic Constraints: 
                CA:FALSE
            X509v3 Extended Key Usage: 
                TLS Web Server Authentication, TLS Web Client Authentication
            X509v3 Subject Key Identifier: 
                0B:9A:8C:43:14:1F:D2:05:E0:7F:73:49:65:D9:CB:8A:71:83:7C:8E
            X509v3 Authority Key Identifier: 
                keyid:D8:E8:1C:37:D0:D4:F7:24:2C:84:56:E0:17:0A:E7:23:A9:94:CA:94

            X509v3 Subject Alternative Name: 
                DNS:Supervisor_1.POLITO.monroe.org
    Signature Algorithm: sha1WithRSAEncryption
         10:f3:7d:a2:c3:b7:59:ce:03:f0:1a:a3:7f:11:eb:17:fd:c2:
         f5:9e:19:92:f0:2f:5c:cc:97:df:5e:cf:4f:54:f6:1b:df:0d:
         5f:ff:61:5e:79:9b:9b:3b:bb:06:bf:47:24:ba:f6:60:b4:c7:
         92:db:81:1a:d9:d7:60:79:80:78:3e:15:fb:4d:01:84:f8:c1:
         cc:00:23:f7:63:9e:06:12:81:8c:19:d8:30:25:fc:b0:97:6b:
         d0:9a:94:c1:db:03:e5:d8:67:86:b6:3f:b7:65:a0:2a:48:19:
         89:02:a4:d4:82:b2:2b:f8:60:fc:d2:81:af:c7:5d:9d:22:f6:
         e1:72:f2:0c:52:9c:6c:bf:51:1c:69:bd:c0:52:09:ff:be:f4:
         3c:a8:ae:b5:57:b1:28:71:cf:97:90:1f:3e:ac:53:23:32:aa:
         0e:8d:f1:b3:eb:21:2f:ed:37:b7:61:69:53:c2:18:07:55:22:
         70:51:8b:ed:9a:75:5a:f8:99:cb:9c:73:e4:db:06:a9:ed:18:
         26:d9:fb:a0:4d:ac:fc:37:7c:69:c5:69:4e:6c:37:97:1a:b1:
         cb:61:18:8c:b1:48:25:71:41:27:11:9c:ee:d2:4c:1a:d3:e4:
         b1:24:31:25:9f:45:b6:67:3a:9c:ad:69:66:78:ff:b9:1a:8e:
         51:e8:ee:ab:7c:45:f9:a7:c5:71:d3:14:11:ea:37:13:a7:e1:
         53:27:fa:2b:2d:b8:be:45:9f:ab:1e:a1:9a:42:02:29:8d:23:
         00:62:95:13:01:70:b4:2c:79:d8:2a:7b:c4:91:56:81:29:92:
         33:68:1f:5b:cc:f2:be:cf:34:be:c6:01:38:59:f5:21:a0:df:
         43:83:2f:84:00:3a:00:f7:69:2e:fc:3d:ae:50:31:8f:e4:8e:
         20:ac:73:e0:93:90:5c:77:25:96:ce:78:d7:c8:d9:3d:c8:13:
         45:5c:6f:58:84:c5:9f:f2:5d:66:2b:89:e6:05:d7:4c:9d:e1:
         9c:be:9d:04:44:51:cc:b1:1c:b3:3d:b2:fd:1e:a2:5d:4c:14:
         cd:3c:04:c4:c4:9e:8b:30:f5:75:f8:55:05:77:34:17:49:86:
         fd:b0:95:5f:dc:57:6d:e0:98:35:40:00:70:58:31:ae:de:85:
         83:3a:f5:c0:52:cf:79:60:13:22:aa:67:3a:d8:6e:20:db:bf:
         0a:3d:19:75:27:3a:f9:b8:be:c0:b5:6a:b5:ae:ff:71:bf:48:
         6b:98:68:71:a6:92:3e:78:d5:a1:cb:3c:ba:d1:fe:f7:12:97:
         b0:d9:b7:7b:a1:46:5f:20:75:de:87:1f:57:a2:c6:cd:4c:f5:
         c2:b4:fa:de:d9:f9:0b:cb
-----BEGIN CERTIFICATE-----
MIIE3jCCAsagAwIBAgIBDTANBgkqhkiG9w0BAQUFADBTMRMwEQYKCZImiZPyLGQB
GRYDb3JnMRYwFAYKCZImiZPyLGQBGRYGbW9ucm9lMRAwDgYDVQQLDAdSb290LUNB
MRIwEAYDVQQDDAlSb290LUNBLTEwHhcNMTUxMDEyMDkzMDExWhcNMTcxMDExMDkz
MDExWjBnMRMwEQYKCZImiZPyLGQBGRYDb3JnMRYwFAYKCZImiZPyLGQBGRYGbW9u
cm9lMQwwCgYDVQQKDANTU0IxEzARBgNVBAsMCkNvbXBvbmVudHMxFTATBgNVBAMM
DFN1cGVydmlzb3JfMTCCASIwDQYJKoZIhvcNAQEBBQADggEPADCCAQoCggEBANFb
5QUJkxeYTmR5R/G6cbh88yKl7ZM0zWgTGl0j7pa2EFkA9dPQ0S3g5H+sS0AuOXES
bIUxmnDUgZJw4VfcTVY5oXTCSOKGRXgcRYBXG4A1BXP3Ujp9/begocFKZ1E7u39O
+dejM1Q/ujc/FKhzkNd3EzvLfWud6tLowVdEJntQeUzmCqEe5n8eWlOd61Rc740c
D9yMIlnmsJifBaDsaTtXLsh0+XoONPJSs9YUpdhs4zf0cHF7YKE/MtkZFCVuApZZ
K3IYvUDWbEGLEnlbO0SoNE5GK9X6R6pjgOSz89HMCHo+VqUfviH/9E3LP5Rx2/8s
2RTgtdma7tu1g3OACnUCAwEAAaOBqDCBpTAOBgNVHQ8BAf8EBAMCBaAwCQYDVR0T
BAIwADAdBgNVHSUEFjAUBggrBgEFBQcDAQYIKwYBBQUHAwIwHQYDVR0OBBYEFAua
jEMUH9IF4H9zSWXZy4pxg3yOMB8GA1UdIwQYMBaAFNjoHDfQ1PckLIRW4BcK5yOp
lMqUMCkGA1UdEQQiMCCCHlN1cGVydmlzb3JfMS5QT0xJVE8ubW9ucm9lLm9yZzAN
BgkqhkiG9w0BAQUFAAOCAgEAEPN9osO3Wc4D8BqjfxHrF/3C9Z4ZkvAvXMyX317P
T1T2G98NX/9hXnmbmzu7Br9HJLr2YLTHktuBGtnXYHmAeD4V+00BhPjBzAAj92Oe
BhKBjBnYMCX8sJdr0JqUwdsD5dhnhrY/t2WgKkgZiQKk1IKyK/hg/NKBr8ddnSL2
4XLyDFKcbL9RHGm9wFIJ/770PKiutVexKHHPl5AfPqxTIzKqDo3xs+shL+03t2Fp
U8IYB1UicFGL7Zp1WviZy5xz5NsGqe0YJtn7oE2s/Dd8acVpTmw3lxqxy2EYjLFI
JXFBJxGc7tJMGtPksSQxJZ9Ftmc6nK1pZnj/uRqOUejuq3xF+afFcdMUEeo3E6fh
Uyf6Ky24vkWfqx6hmkICKY0jAGKVEwFwtCx52Cp7xJFWgSmSM2gfW8zyvs80vsYB
OFn1IaDfQ4MvhAA6APdpLvw9rlAxj+SOIKxz4JOQXHclls5418jZPcgTRVxvWITF
n/JdZiuJ5gXXTJ3hnL6dBERRzLEcsz2y/R6iXUwUzTwExMSeizD1dfhVBXc0F0mG
/bCVX9xXbeCYNUAAcFgxrt6Fgzr1wFLPeWATIqpnOthuINu/Cj0ZdSc6+bi+wLVq
ta7/cb9Ia5hocaaSPnjVocs8utH+9xKXsNm3e6FGXyB13ocfV6LGzUz1wrT63tn5
C8s=
-----END CERTIFICATE-----
