Certificate:
    Data:
        Version: 3 (0x2)
        Serial Number: 14 (0xe)
    Signature Algorithm: sha1WithRSAEncryption
        Issuer: DC=org, DC=monroe, OU=Root-CA, CN=Root-CA-1
        Validity
            Not Before: Oct 12 09:31:07 2015 GMT
            Not After : Oct 11 09:31:07 2017 GMT
        Subject: DC=org, DC=monroe, O=SSB, OU=Components, CN=Supervisor_POLITO_1
        Subject Public Key Info:
            Public Key Algorithm: rsaEncryption
                Public-Key: (2048 bit)
                Modulus:
                    00:cc:ac:36:eb:57:08:f8:26:4b:f6:65:61:26:77:
                    ca:91:d6:87:c3:f6:c6:aa:f1:e8:5b:8a:f0:be:04:
                    c3:5d:1a:7c:fe:1f:b0:68:bb:0d:03:ac:b7:2a:26:
                    f5:19:59:68:64:18:92:70:e1:9d:06:b9:aa:fa:dc:
                    12:a6:ad:11:d2:9e:6a:fc:46:c9:84:d5:2f:06:45:
                    30:38:d8:1c:a4:9c:07:ab:f6:26:c6:8b:92:d7:dd:
                    39:07:a2:9b:ff:75:3c:ff:bd:66:b9:7b:c5:56:07:
                    13:eb:c8:32:22:7f:72:da:86:da:77:10:1e:72:c9:
                    af:3e:5a:55:11:1e:b8:54:39:74:0c:e0:c0:6f:47:
                    f5:56:7d:f0:97:8c:ff:b0:36:20:e7:fc:61:a3:cd:
                    6b:21:40:61:45:81:e1:ab:d7:91:3a:61:65:6e:cd:
                    7a:99:7a:36:f4:6e:2b:a9:10:ac:b3:bc:82:2a:78:
                    57:9f:e0:1a:2b:72:b4:da:f8:e8:71:bb:54:a6:0c:
                    b0:7a:63:f5:55:38:74:fb:03:0b:21:20:be:0d:6d:
                    fb:d2:c6:2c:2e:cc:93:d3:a1:29:25:c7:bc:4e:67:
                    c1:1c:ed:d9:60:f2:aa:b0:03:66:20:28:7f:9f:5e:
                    1f:a0:27:58:c4:62:8e:19:9b:6f:ba:c9:91:f5:09:
                    3c:7f
                Exponent: 65537 (0x10001)
        X509v3 extensions:
            X509v3 Key Usage: critical
                Digital Signature, Key Encipherment
            X509v3 Basic Constraints: 
                CA:FALSE
            X509v3 Extended Key Usage: 
                TLS Web Server Authentication, TLS Web Client Authentication
            X509v3 Subject Key Identifier: 
                EA:A1:B7:96:13:1A:C7:22:00:66:A8:87:8A:81:7D:FB:82:1E:FD:65
            X509v3 Authority Key Identifier: 
                keyid:D8:E8:1C:37:D0:D4:F7:24:2C:84:56:E0:17:0A:E7:23:A9:94:CA:94

            X509v3 Subject Alternative Name: 
                DNS:Supervisor_POLITO_1.POLITO.monroe.org
    Signature Algorithm: sha1WithRSAEncryption
         57:b8:bc:a8:36:15:0f:33:36:b9:41:e2:a2:47:ed:ac:2f:42:
         78:46:7a:d7:d6:a6:a4:a4:d7:41:31:bd:21:ab:d2:36:5f:77:
         7e:d6:ac:93:8e:67:91:5b:ce:28:73:62:c4:2f:91:7d:68:95:
         a9:f9:88:40:82:2d:6a:5e:ac:6a:df:3b:8b:2f:65:83:16:7f:
         94:8f:00:ef:86:22:0e:bd:b3:56:fb:aa:b1:34:09:22:1f:ed:
         ff:1e:3b:4e:73:3f:05:58:3f:c5:3e:5b:68:4a:db:38:32:c3:
         51:37:57:3a:8e:30:e6:19:27:bb:29:81:f6:2b:98:7d:f1:e4:
         bb:28:28:75:25:4e:cb:d6:4e:d6:60:4c:42:99:4a:0b:16:bc:
         f9:9b:db:5b:0e:50:08:a8:77:f2:7d:90:25:45:c5:a7:d8:54:
         bf:9e:b3:df:28:4b:2f:e2:da:9b:2e:14:f2:a7:1a:3b:30:30:
         43:68:9b:6c:43:43:68:0a:67:79:d4:69:04:d1:86:e7:bf:e1:
         7b:62:65:4f:44:7d:0f:ab:d9:07:47:de:0f:90:44:d0:d6:88:
         1c:28:e6:82:95:be:d1:96:86:eb:67:e9:79:aa:ae:cc:6c:19:
         40:54:54:94:3c:e7:c4:16:6c:67:4a:33:db:f0:5e:6f:29:5f:
         6a:64:91:fd:7e:9b:fd:7c:22:46:3b:51:6d:dd:a4:b2:ff:94:
         79:eb:60:71:fa:75:7a:08:6b:86:a3:36:e5:8c:68:d3:09:4a:
         33:35:3d:e9:5c:af:3a:42:98:be:54:37:79:62:2f:2e:f0:2a:
         52:ef:ff:3d:fd:cd:3a:72:8a:24:04:2a:ba:37:5f:12:fc:b3:
         98:21:26:1e:01:94:bd:4f:d1:2e:a1:e8:4b:31:af:e7:44:e2:
         5c:08:41:8d:70:a7:62:23:12:76:17:18:c5:81:f5:dc:33:ff:
         19:60:f4:fb:f0:c5:3e:70:4a:40:c1:2c:db:dc:4f:e4:bc:96:
         43:64:92:66:c0:10:36:3f:e1:51:88:85:cb:01:29:fe:28:c8:
         5b:09:fb:95:e9:91:ed:d9:5b:3d:93:58:01:05:4c:2e:19:89:
         b8:e7:c3:89:23:b1:3b:1d:3a:3e:4e:91:65:ec:9c:a4:36:36:
         91:2a:9c:34:23:fd:37:9e:af:74:6c:a0:b1:31:f4:bd:41:64:
         18:07:23:1c:35:13:60:ee:e6:24:7e:67:a6:43:b4:4b:46:5c:
         29:c3:ca:c4:07:d5:b8:7f:e1:e5:d3:1d:39:e8:ff:7c:0c:95:
         dd:90:16:43:d6:29:d2:68:b4:45:f7:c3:4c:4c:f4:51:35:c9:
         7b:98:63:8e:e6:67:56:15
-----BEGIN CERTIFICATE-----
MIIE7DCCAtSgAwIBAgIBDjANBgkqhkiG9w0BAQUFADBTMRMwEQYKCZImiZPyLGQB
GRYDb3JnMRYwFAYKCZImiZPyLGQBGRYGbW9ucm9lMRAwDgYDVQQLDAdSb290LUNB
MRIwEAYDVQQDDAlSb290LUNBLTEwHhcNMTUxMDEyMDkzMTA3WhcNMTcxMDExMDkz
MTA3WjBuMRMwEQYKCZImiZPyLGQBGRYDb3JnMRYwFAYKCZImiZPyLGQBGRYGbW9u
cm9lMQwwCgYDVQQKDANTU0IxEzARBgNVBAsMCkNvbXBvbmVudHMxHDAaBgNVBAMM
E1N1cGVydmlzb3JfUE9MSVRPXzEwggEiMA0GCSqGSIb3DQEBAQUAA4IBDwAwggEK
AoIBAQDMrDbrVwj4Jkv2ZWEmd8qR1ofD9saq8ehbivC+BMNdGnz+H7Bouw0DrLcq
JvUZWWhkGJJw4Z0Guar63BKmrRHSnmr8RsmE1S8GRTA42ByknAer9ibGi5LX3TkH
opv/dTz/vWa5e8VWBxPryDIif3Lahtp3EB5yya8+WlURHrhUOXQM4MBvR/VWffCX
jP+wNiDn/GGjzWshQGFFgeGr15E6YWVuzXqZejb0biupEKyzvIIqeFef4BorcrTa
+Ohxu1SmDLB6Y/VVOHT7AwshIL4NbfvSxiwuzJPToSklx7xOZ8Ec7dlg8qqwA2Yg
KH+fXh+gJ1jEYo4Zm2+6yZH1CTx/AgMBAAGjga8wgawwDgYDVR0PAQH/BAQDAgWg
MAkGA1UdEwQCMAAwHQYDVR0lBBYwFAYIKwYBBQUHAwEGCCsGAQUFBwMCMB0GA1Ud
DgQWBBTqobeWExrHIgBmqIeKgX37gh79ZTAfBgNVHSMEGDAWgBTY6Bw30NT3JCyE
VuAXCucjqZTKlDAwBgNVHREEKTAngiVTdXBlcnZpc29yX1BPTElUT18xLlBPTElU
Ty5tb25yb2Uub3JnMA0GCSqGSIb3DQEBBQUAA4ICAQBXuLyoNhUPMza5QeKiR+2s
L0J4RnrX1qakpNdBMb0hq9I2X3d+1qyTjmeRW84oc2LEL5F9aJWp+YhAgi1qXqxq
3zuLL2WDFn+UjwDvhiIOvbNW+6qxNAkiH+3/HjtOcz8FWD/FPltoSts4MsNRN1c6
jjDmGSe7KYH2K5h98eS7KCh1JU7L1k7WYExCmUoLFrz5m9tbDlAIqHfyfZAlRcWn
2FS/nrPfKEsv4tqbLhTypxo7MDBDaJtsQ0NoCmd51GkE0Ybnv+F7YmVPRH0Pq9kH
R94PkETQ1ogcKOaClb7RlobrZ+l5qq7MbBlAVFSUPOfEFmxnSjPb8F5vKV9qZJH9
fpv9fCJGO1Ft3aSy/5R562Bx+nV6CGuGozbljGjTCUozNT3pXK86Qpi+VDd5Yi8u
8CpS7/89/c06cookBCq6N18S/LOYISYeAZS9T9EuoehLMa/nROJcCEGNcKdiIxJ2
FxjFgfXcM/8ZYPT78MU+cEpAwSzb3E/kvJZDZJJmwBA2P+FRiIXLASn+KMhbCfuV
6ZHt2Vs9k1gBBUwuGYm458OJI7E7HTo+TpFl7JykNjaRKpw0I/03nq90bKCxMfS9
QWQYByMcNRNg7uYkfmemQ7RLRlwpw8rEB9W4f+Hl0x056P98DJXdkBZD1inSaLRF
98NMTPRRNcl7mGOO5mdWFQ==
-----END CERTIFICATE-----
