Certificate:
    Data:
        Version: 3 (0x2)
        Serial Number: 15 (0xf)
    Signature Algorithm: sha1WithRSAEncryption
        Issuer: DC=org, DC=monroe, OU=Root-CA, CN=Root-CA-1
        Validity
            Not Before: Oct 12 09:33:15 2015 GMT
            Not After : Oct 11 09:33:15 2017 GMT
        Subject: DC=org, DC=monroe, O=SSB, OU=Components, CN=client_Monroe_1
        Subject Public Key Info:
            Public Key Algorithm: rsaEncryption
                Public-Key: (2048 bit)
                Modulus:
                    00:ba:31:a6:60:3c:c6:e6:b3:eb:e4:f9:c9:c3:8e:
                    45:0e:a8:40:c6:9f:9f:71:29:85:17:5a:9d:0d:a0:
                    7e:6b:20:17:b2:16:52:a1:ae:ea:41:d3:3f:4d:38:
                    33:31:21:43:7f:15:91:7c:11:83:72:a0:77:f9:92:
                    fe:2c:fb:39:2f:f4:43:17:3a:e2:78:3b:ca:12:ed:
                    eb:60:62:86:0c:58:f1:37:a5:4e:45:76:2b:f5:cc:
                    7b:52:77:3b:17:56:fe:b0:2c:cc:40:32:3b:9f:c6:
                    6f:c7:da:ca:ca:a2:ea:c0:f3:fa:36:60:de:8b:fa:
                    32:b9:cb:84:1d:a7:1a:ed:fd:f5:bb:63:e8:72:34:
                    51:1f:80:87:09:74:bd:bc:97:7d:7c:b2:7a:a7:fc:
                    db:59:36:e5:79:58:98:e2:60:1f:df:a7:8b:e3:5f:
                    5c:79:e1:1d:43:6a:9b:6a:e6:70:84:9c:9d:ab:b2:
                    00:8f:98:e3:d7:49:9c:14:4f:26:56:84:04:ce:6d:
                    72:c6:42:76:27:ae:05:af:fe:27:16:6c:7c:70:0e:
                    4d:a5:fc:ba:53:26:39:99:26:c8:e3:0b:f9:d9:97:
                    fc:ea:28:84:aa:3f:ef:f5:21:30:96:af:ba:a6:17:
                    a2:52:63:c8:ca:a7:33:47:a6:00:cc:89:4a:76:61:
                    06:d9
                Exponent: 65537 (0x10001)
        X509v3 extensions:
            X509v3 Key Usage: critical
                Digital Signature, Key Encipherment
            X509v3 Basic Constraints: 
                CA:FALSE
            X509v3 Extended Key Usage: 
                TLS Web Server Authentication, TLS Web Client Authentication
            X509v3 Subject Key Identifier: 
                4E:0F:D7:B7:F1:5D:0D:B5:3E:42:42:13:38:1D:77:21:2A:54:EC:C3
            X509v3 Authority Key Identifier: 
                keyid:D8:E8:1C:37:D0:D4:F7:24:2C:84:56:E0:17:0A:E7:23:A9:94:CA:94

            X509v3 Subject Alternative Name: 
                DNS:client_Monroe_1.POLITO.monroe.org
    Signature Algorithm: sha1WithRSAEncryption
         a2:fb:86:02:82:f7:af:87:81:99:81:fe:15:45:8c:44:f3:eb:
         46:f4:f9:d9:75:29:83:d2:aa:34:d8:52:19:13:5f:b5:b7:9a:
         b9:9b:b3:61:f6:41:58:f6:96:31:df:76:be:9f:db:15:1c:6d:
         01:5d:d3:3d:03:41:7e:a5:10:8b:e6:da:8a:fd:1f:8c:42:12:
         bb:04:80:b0:2c:42:38:22:3d:4b:91:20:9b:1b:ef:89:39:61:
         7e:fe:dc:92:dc:cd:fc:59:e4:fc:9b:50:6b:84:a9:a9:c4:c3:
         a0:ee:b5:a4:42:e4:47:cd:d1:c3:8d:4d:8d:63:ef:9a:41:cc:
         b4:03:b5:44:1a:8f:66:5f:35:f4:4c:0c:61:f0:97:13:73:8b:
         3d:44:a5:f5:02:3f:3f:53:81:65:48:41:87:82:c3:fb:d6:1c:
         46:cf:72:ce:9c:71:f0:f0:7d:f3:65:49:bf:fe:b4:84:49:42:
         5a:64:82:29:01:56:2e:6f:4e:7c:24:61:6a:5b:7a:8c:1d:0f:
         d1:d8:fe:ca:ad:a9:dd:c1:b4:eb:81:87:99:ec:32:52:48:77:
         73:ee:31:c1:a4:71:76:eb:be:ce:6f:18:0b:ce:c0:f6:b0:9f:
         e2:6c:27:5b:d9:4a:f9:69:a4:9c:20:a0:61:77:d9:91:a4:1d:
         5f:39:62:f2:98:7d:81:be:fc:ac:60:de:63:69:77:45:71:11:
         a1:ca:c5:14:19:98:42:39:54:62:de:f5:c4:ad:fe:41:ae:16:
         6e:be:8e:6a:6c:80:f7:78:4a:10:58:c0:7e:ea:c9:b8:34:28:
         5e:20:67:e0:5d:cb:51:fe:af:dd:a1:d7:65:bd:12:3a:70:f9:
         d8:3e:73:2c:f1:25:7c:54:fa:57:2f:73:ed:30:e1:81:36:20:
         07:ed:74:5c:84:2c:2c:17:cb:8f:e4:a0:44:ed:4e:9b:e9:00:
         8c:b5:3c:f2:a5:92:fe:20:fe:e5:19:73:94:f2:f4:bf:77:23:
         75:1b:50:d1:e0:7c:30:d7:08:b6:f5:65:0a:dc:b2:7f:95:9c:
         73:28:81:8d:b0:94:1a:04:60:af:ff:a4:b4:14:0c:65:74:e6:
         b2:51:e7:c2:28:de:91:3a:87:3d:db:bf:af:ad:0b:01:8c:b7:
         8f:07:39:25:41:d8:7d:50:15:09:fb:0b:80:56:b6:bc:be:fa:
         e3:87:8a:57:93:b1:34:2a:d0:cb:35:1d:70:7f:43:db:a9:ea:
         6e:22:0b:6c:98:ed:1c:78:8b:cd:17:ab:04:a5:da:45:e5:57:
         3b:67:d1:24:82:0f:53:17:6b:36:3e:ed:8c:5a:39:72:c4:7e:
         6c:50:8f:5d:7b:31:0d:7a
-----BEGIN CERTIFICATE-----
MIIE5DCCAsygAwIBAgIBDzANBgkqhkiG9w0BAQUFADBTMRMwEQYKCZImiZPyLGQB
GRYDb3JnMRYwFAYKCZImiZPyLGQBGRYGbW9ucm9lMRAwDgYDVQQLDAdSb290LUNB
MRIwEAYDVQQDDAlSb290LUNBLTEwHhcNMTUxMDEyMDkzMzE1WhcNMTcxMDExMDkz
MzE1WjBqMRMwEQYKCZImiZPyLGQBGRYDb3JnMRYwFAYKCZImiZPyLGQBGRYGbW9u
cm9lMQwwCgYDVQQKDANTU0IxEzARBgNVBAsMCkNvbXBvbmVudHMxGDAWBgNVBAMM
D2NsaWVudF9Nb25yb2VfMTCCASIwDQYJKoZIhvcNAQEBBQADggEPADCCAQoCggEB
ALoxpmA8xuaz6+T5ycOORQ6oQMafn3EphRdanQ2gfmsgF7IWUqGu6kHTP004MzEh
Q38VkXwRg3Kgd/mS/iz7OS/0Qxc64ng7yhLt62BihgxY8TelTkV2K/XMe1J3OxdW
/rAszEAyO5/Gb8faysqi6sDz+jZg3ov6MrnLhB2nGu399btj6HI0UR+Ahwl0vbyX
fXyyeqf821k25XlYmOJgH9+ni+NfXHnhHUNqm2rmcIScnauyAI+Y49dJnBRPJlaE
BM5tcsZCdieuBa/+JxZsfHAOTaX8ulMmOZkmyOML+dmX/OoohKo/7/UhMJavuqYX
olJjyMqnM0emAMyJSnZhBtkCAwEAAaOBqzCBqDAOBgNVHQ8BAf8EBAMCBaAwCQYD
VR0TBAIwADAdBgNVHSUEFjAUBggrBgEFBQcDAQYIKwYBBQUHAwIwHQYDVR0OBBYE
FE4P17fxXQ21PkJCEzgddyEqVOzDMB8GA1UdIwQYMBaAFNjoHDfQ1PckLIRW4BcK
5yOplMqUMCwGA1UdEQQlMCOCIWNsaWVudF9Nb25yb2VfMS5QT0xJVE8ubW9ucm9l
Lm9yZzANBgkqhkiG9w0BAQUFAAOCAgEAovuGAoL3r4eBmYH+FUWMRPPrRvT52XUp
g9KqNNhSGRNftbeauZuzYfZBWPaWMd92vp/bFRxtAV3TPQNBfqUQi+baiv0fjEIS
uwSAsCxCOCI9S5EgmxvviTlhfv7cktzN/Fnk/JtQa4SpqcTDoO61pELkR83Rw41N
jWPvmkHMtAO1RBqPZl819EwMYfCXE3OLPUSl9QI/P1OBZUhBh4LD+9YcRs9yzpxx
8PB982VJv/60hElCWmSCKQFWLm9OfCRhalt6jB0P0dj+yq2p3cG064GHmewyUkh3
c+4xwaRxduu+zm8YC87A9rCf4mwnW9lK+WmknCCgYXfZkaQdXzli8ph9gb78rGDe
Y2l3RXERocrFFBmYQjlUYt71xK3+Qa4Wbr6OamyA93hKEFjAfurJuDQoXiBn4F3L
Uf6v3aHXZb0SOnD52D5zLPElfFT6Vy9z7TDhgTYgB+10XIQsLBfLj+SgRO1Om+kA
jLU88qWS/iD+5RlzlPL0v3cjdRtQ0eB8MNcItvVlCtyyf5WccyiBjbCUGgRgr/+k
tBQMZXTmslHnwijekTqHPdu/r60LAYy3jwc5JUHYfVAVCfsLgFa2vL7644eKV5Ox
NCrQyzUdcH9D26nqbiILbJjtHHiLzRerBKXaReVXO2fRJIIPUxdrNj7tjFo5csR+
bFCPXXsxDXo=
-----END CERTIFICATE-----
