Certificate:
    Data:
        Version: 3 (0x2)
        Serial Number: 16 (0x10)
    Signature Algorithm: sha1WithRSAEncryption
        Issuer: DC=org, DC=monroe, OU=Root-CA, CN=Root-CA-1
        Validity
            Not Before: Oct 12 09:34:05 2015 GMT
            Not After : Oct 11 09:34:05 2017 GMT
        Subject: DC=org, DC=monroe, O=SSB, OU=Components, CN=client_Monroe_1
        Subject Public Key Info:
            Public Key Algorithm: rsaEncryption
                Public-Key: (2048 bit)
                Modulus:
                    00:bd:7a:03:62:c4:c4:45:97:56:ab:e8:92:87:34:
                    80:6e:81:4c:f9:ba:8f:0c:89:69:1b:69:af:26:0f:
                    00:85:bd:e3:fa:30:63:27:a3:b7:41:79:f2:ee:bb:
                    4c:39:07:53:e2:f9:89:a6:93:e4:bb:ac:9e:b5:2d:
                    21:da:68:ff:4f:c8:c8:2a:f5:df:20:75:a9:f8:de:
                    78:0e:00:23:bf:da:2d:5c:e2:f2:85:a6:4c:eb:61:
                    58:56:23:d8:8f:5e:48:a6:08:44:f4:e8:02:89:22:
                    c7:60:45:30:27:87:7a:30:f5:54:67:e0:83:cb:6d:
                    dc:d2:28:97:68:5d:a4:d6:bd:67:4a:00:a7:4c:0a:
                    a4:3e:65:d5:3a:29:7b:97:11:de:a8:aa:6c:0d:01:
                    18:5b:dd:75:85:64:f6:52:9a:32:97:26:16:15:f0:
                    d6:98:34:1d:15:fe:d5:09:62:8a:e0:3a:46:16:90:
                    9f:f9:d2:2b:98:77:a5:49:f7:00:a9:c4:9f:ae:da:
                    21:75:e4:da:18:a6:e3:ab:7a:1e:ac:99:c4:92:a0:
                    14:02:dd:58:79:e9:ad:74:85:3f:06:be:9f:db:35:
                    a8:c4:37:23:e6:29:12:51:54:98:43:7e:6f:3a:eb:
                    02:c9:aa:bc:3e:fa:83:d2:b6:36:23:bb:25:8e:4f:
                    97:e3
                Exponent: 65537 (0x10001)
        X509v3 extensions:
            X509v3 Key Usage: critical
                Digital Signature, Key Encipherment
            X509v3 Basic Constraints: 
                CA:FALSE
            X509v3 Extended Key Usage: 
                TLS Web Server Authentication, TLS Web Client Authentication
            X509v3 Subject Key Identifier: 
                52:77:16:DD:0D:2F:D9:96:19:91:66:90:D1:B4:F2:DB:D9:6A:46:82
            X509v3 Authority Key Identifier: 
                keyid:D8:E8:1C:37:D0:D4:F7:24:2C:84:56:E0:17:0A:E7:23:A9:94:CA:94

            X509v3 Subject Alternative Name: 
                DNS:client_Monroe_1.POLITO.monroe.org
    Signature Algorithm: sha1WithRSAEncryption
         85:67:52:92:67:34:ee:30:f7:7d:e6:06:bc:2e:66:24:aa:02:
         ee:93:52:8c:99:20:a9:6a:81:eb:a5:b7:98:9c:e6:2b:61:5a:
         5f:04:6b:d3:8a:16:2b:3a:33:e2:47:a5:e0:9d:3b:b1:0c:63:
         15:cd:d2:65:e5:d3:a8:42:00:14:b7:b9:51:f5:19:02:5b:93:
         97:5b:34:21:9c:45:42:5d:fc:e2:62:4b:a7:4f:0c:ce:99:7d:
         f1:64:e7:39:4a:dc:b1:5f:22:43:15:93:73:d0:23:77:db:a1:
         fe:fb:13:c1:46:dd:14:ff:c7:05:42:91:74:5a:53:66:7f:84:
         b0:c3:d2:9d:45:f6:87:07:cc:69:6c:06:60:d1:9b:f9:63:ac:
         43:77:2a:e8:a3:b7:22:55:b0:93:da:25:f2:c6:da:dc:bf:37:
         7a:5b:3c:21:e8:cd:b6:0c:9e:71:70:8b:b6:65:8d:c5:ba:ac:
         ec:e6:ea:bc:d8:85:d1:ab:a5:d2:cb:38:d2:88:1f:95:c3:80:
         1d:9d:2f:77:83:8a:69:86:24:8a:76:96:f6:63:3f:43:d9:00:
         d4:67:bb:75:af:57:c6:e7:70:54:35:05:7c:60:59:03:77:3b:
         d2:6a:59:8d:62:4a:5e:4f:d3:5f:0f:85:21:4f:89:3f:de:99:
         07:3b:fb:bb:d4:97:e3:62:21:bc:de:96:d7:5a:78:af:ef:6c:
         d5:ec:f6:3e:16:61:2e:5e:f8:54:51:34:d6:c6:ff:38:87:7c:
         81:d5:df:e3:35:0e:0f:77:63:b6:72:72:a1:4d:03:db:0d:27:
         6e:17:cd:b0:5c:90:5a:0b:5f:59:e8:e3:49:9c:63:9e:d2:ae:
         b6:f2:4a:e7:0a:e2:e6:9e:7f:e4:95:e7:fa:3a:04:a2:f4:15:
         b5:2f:5b:ca:be:12:f9:2c:3f:d6:6c:a0:ac:7a:97:26:ff:22:
         ae:d1:23:a7:2e:f0:6d:dc:7d:1f:4d:1b:f1:53:33:5c:52:a9:
         d2:82:ea:87:1d:9a:a3:fa:98:d1:cc:b5:d6:6f:d1:1b:11:dd:
         3c:89:53:52:40:be:36:5a:be:b1:e9:49:db:e8:76:e6:3e:e7:
         d9:cc:6b:b9:2c:15:8d:63:a3:a5:c0:c0:1a:22:b6:48:08:15:
         c1:d6:3b:1b:00:d2:bd:62:f3:79:4e:bc:6e:a6:6e:5e:7f:9f:
         7b:b8:ad:8a:1e:b0:81:55:d2:a2:88:3f:d9:93:74:3c:3b:09:
         1b:78:6d:67:35:10:3a:c6:c0:fa:64:ba:b1:c3:1c:4a:50:f6:
         bf:75:47:70:58:c2:46:b1:02:97:b3:8f:c6:65:20:63:da:72:
         bd:e5:fd:80:02:5d:cb:bd
-----BEGIN CERTIFICATE-----
MIIE5DCCAsygAwIBAgIBEDANBgkqhkiG9w0BAQUFADBTMRMwEQYKCZImiZPyLGQB
GRYDb3JnMRYwFAYKCZImiZPyLGQBGRYGbW9ucm9lMRAwDgYDVQQLDAdSb290LUNB
MRIwEAYDVQQDDAlSb290LUNBLTEwHhcNMTUxMDEyMDkzNDA1WhcNMTcxMDExMDkz
NDA1WjBqMRMwEQYKCZImiZPyLGQBGRYDb3JnMRYwFAYKCZImiZPyLGQBGRYGbW9u
cm9lMQwwCgYDVQQKDANTU0IxEzARBgNVBAsMCkNvbXBvbmVudHMxGDAWBgNVBAMM
D2NsaWVudF9Nb25yb2VfMTCCASIwDQYJKoZIhvcNAQEBBQADggEPADCCAQoCggEB
AL16A2LExEWXVqvokoc0gG6BTPm6jwyJaRtpryYPAIW94/owYyejt0F58u67TDkH
U+L5iaaT5LusnrUtIdpo/0/IyCr13yB1qfjeeA4AI7/aLVzi8oWmTOthWFYj2I9e
SKYIRPToAokix2BFMCeHejD1VGfgg8tt3NIol2hdpNa9Z0oAp0wKpD5l1Tope5cR
3qiqbA0BGFvddYVk9lKaMpcmFhXw1pg0HRX+1QliiuA6RhaQn/nSK5h3pUn3AKnE
n67aIXXk2him46t6HqyZxJKgFALdWHnprXSFPwa+n9s1qMQ3I+YpElFUmEN+bzrr
AsmqvD76g9K2NiO7JY5Pl+MCAwEAAaOBqzCBqDAOBgNVHQ8BAf8EBAMCBaAwCQYD
VR0TBAIwADAdBgNVHSUEFjAUBggrBgEFBQcDAQYIKwYBBQUHAwIwHQYDVR0OBBYE
FFJ3Ft0NL9mWGZFmkNG08tvZakaCMB8GA1UdIwQYMBaAFNjoHDfQ1PckLIRW4BcK
5yOplMqUMCwGA1UdEQQlMCOCIWNsaWVudF9Nb25yb2VfMS5QT0xJVE8ubW9ucm9l
Lm9yZzANBgkqhkiG9w0BAQUFAAOCAgEAhWdSkmc07jD3feYGvC5mJKoC7pNSjJkg
qWqB66W3mJzmK2FaXwRr04oWKzoz4kel4J07sQxjFc3SZeXTqEIAFLe5UfUZAluT
l1s0IZxFQl384mJLp08Mzpl98WTnOUrcsV8iQxWTc9Ajd9uh/vsTwUbdFP/HBUKR
dFpTZn+EsMPSnUX2hwfMaWwGYNGb+WOsQ3cq6KO3IlWwk9ol8sba3L83els8IejN
tgyecXCLtmWNxbqs7ObqvNiF0aul0ss40ogflcOAHZ0vd4OKaYYkinaW9mM/Q9kA
1Ge7da9XxudwVDUFfGBZA3c70mpZjWJKXk/TXw+FIU+JP96ZBzv7u9SX42IhvN6W
11p4r+9s1ez2PhZhLl74VFE01sb/OId8gdXf4zUOD3djtnJyoU0D2w0nbhfNsFyQ
WgtfWejjSZxjntKutvJK5wri5p5/5JXn+joEovQVtS9byr4S+Sw/1mygrHqXJv8i
rtEjpy7wbdx9H00b8VMzXFKp0oLqhx2ao/qY0cy11m/RGxHdPIlTUkC+Nlq+selJ
2+h25j7n2cxruSwVjWOjpcDAGiK2SAgVwdY7GwDSvWLzeU68bqZuXn+fe7itih6w
gVXSoog/2ZN0PDsJG3htZzUQOsbA+mS6scMcSlD2v3VHcFjCRrECl7OPxmUgY9py
veX9gAJdy70=
-----END CERTIFICATE-----
