Certificate:
    Data:
        Version: 3 (0x2)
        Serial Number: 17 (0x11)
    Signature Algorithm: sha1WithRSAEncryption
        Issuer: DC=org, DC=monroe, OU=Root-CA, CN=Root-CA-1
        Validity
            Not Before: Oct 12 09:34:09 2015 GMT
            Not After : Oct 11 09:34:09 2017 GMT
        Subject: DC=org, DC=monroe, O=SSB, OU=Components, CN=Supervisor_POLITO_1
        Subject Public Key Info:
            Public Key Algorithm: rsaEncryption
                Public-Key: (2048 bit)
                Modulus:
                    00:a5:3c:7f:e6:d9:6b:59:53:cc:46:9b:c0:45:6f:
                    24:4d:57:f4:d8:0f:f3:83:fd:82:45:27:6d:86:45:
                    97:17:a9:fa:8a:0e:3b:35:83:b7:38:be:e0:69:79:
                    c5:de:23:3b:4c:0a:85:90:e3:8a:fd:18:26:9e:a2:
                    68:77:26:c4:6a:42:9c:8b:3c:39:5f:ed:fe:58:31:
                    3b:27:73:04:26:b8:c6:40:27:f3:6c:a9:8c:60:91:
                    8d:da:7e:c1:bd:b6:fb:77:a9:ce:24:cb:78:a4:22:
                    4c:e1:41:11:9b:6c:54:28:21:27:52:bb:38:2a:1c:
                    27:54:ae:d5:bc:f4:2c:2f:49:9c:29:18:b7:c9:b8:
                    c5:02:d4:ea:85:13:a0:38:b0:f9:6f:5b:0a:5a:02:
                    04:f4:aa:93:bd:71:b6:8a:13:b0:86:07:43:a2:70:
                    94:1e:2c:2e:2b:dd:ff:19:27:b7:83:c6:92:4e:de:
                    67:bb:ad:44:ec:3a:c5:8f:a0:88:fd:93:14:ff:c0:
                    c9:f6:fb:3f:c5:26:60:17:7d:1d:63:30:a2:77:fb:
                    8b:c3:ad:d7:36:c0:29:d0:be:ad:4a:43:bc:13:1f:
                    13:1e:43:e4:02:bf:e7:68:0c:90:de:c2:cd:f5:08:
                    31:22:3f:ed:93:70:e0:35:1a:24:f8:40:bc:64:5a:
                    ba:ab
                Exponent: 65537 (0x10001)
        X509v3 extensions:
            X509v3 Key Usage: critical
                Digital Signature, Key Encipherment
            X509v3 Basic Constraints: 
                CA:FALSE
            X509v3 Extended Key Usage: 
                TLS Web Server Authentication, TLS Web Client Authentication
            X509v3 Subject Key Identifier: 
                17:60:E8:72:18:2A:28:EA:3D:F1:A3:E3:7E:D9:3F:D5:D8:4A:AD:92
            X509v3 Authority Key Identifier: 
                keyid:D8:E8:1C:37:D0:D4:F7:24:2C:84:56:E0:17:0A:E7:23:A9:94:CA:94

            X509v3 Subject Alternative Name: 
                DNS:Supervisor_POLITO_1.POLITO.monroe.org
    Signature Algorithm: sha1WithRSAEncryption
         75:00:ca:1b:e7:0d:d3:3d:70:68:46:6e:0b:82:f1:38:1e:f7:
         b1:6a:69:47:d9:ad:37:11:53:9f:8f:33:3b:ba:d7:ef:90:aa:
         b6:54:b9:04:93:0f:e3:78:05:07:9d:60:f4:fd:1d:d8:2b:07:
         f5:87:ba:00:4f:11:e4:38:fa:c0:95:02:29:03:37:a7:11:52:
         e6:84:91:68:f3:ef:73:e2:58:01:f8:be:dc:d0:99:7a:a0:63:
         38:1e:34:ee:69:64:30:f6:ee:77:56:a6:12:44:86:ad:fa:fb:
         67:a2:cc:fb:6c:a2:ea:6f:1f:97:b9:32:c6:a6:55:ec:7a:5e:
         f1:f5:e3:bf:b2:a3:f7:99:77:bb:3b:71:45:b2:78:11:d9:33:
         5b:bc:2c:5d:3a:32:88:32:a9:44:f5:89:49:15:5d:2b:ba:f7:
         da:b7:63:ab:6b:76:76:cb:a9:09:fd:41:e6:db:aa:37:e6:de:
         ad:a1:e3:e2:72:4e:de:b3:c9:a6:38:6e:26:f4:b3:5d:99:30:
         de:3c:19:b7:38:fa:1d:1a:68:b6:a6:4b:28:5a:da:68:43:59:
         fb:4b:90:f4:fc:0c:93:6c:81:6f:f7:07:67:4d:d5:49:b7:5f:
         85:f6:18:c7:ff:f7:59:a7:e8:63:4e:7d:6a:c9:0a:a8:9f:f0:
         3c:8e:3b:16:38:10:27:8b:50:b8:63:36:15:2d:97:db:d6:e0:
         25:d9:6c:02:71:dc:1c:6d:72:10:78:06:b6:78:d1:cc:6d:1a:
         d1:77:f5:29:c8:fc:75:99:52:f8:f3:da:2b:6d:52:e5:ed:df:
         9a:7e:20:c8:29:61:be:cd:04:f3:ce:87:26:79:65:89:57:c9:
         e8:e8:6d:4a:9f:70:be:a4:36:9a:4e:55:15:c2:8c:c0:7d:98:
         97:db:a8:70:23:01:05:4d:38:d3:68:5a:a6:6b:6d:1c:3b:1a:
         80:cf:2f:5d:96:00:7d:54:26:ea:18:e6:a9:46:ad:db:ff:37:
         5a:b8:56:9f:54:b4:5c:9a:11:16:07:1f:98:47:8e:e7:52:e5:
         fe:98:a3:fa:f4:d3:04:8b:aa:ed:23:2a:88:84:a3:a4:5f:cb:
         84:6d:9e:eb:12:5e:ab:ad:37:d1:67:04:d5:58:85:8f:b3:18:
         13:bd:dc:2e:fc:1d:ae:69:59:eb:59:49:a5:71:09:32:02:b9:
         cc:e7:60:4a:2e:e3:c6:c1:59:3a:7d:dd:d3:d5:44:d7:ca:f7:
         c2:c7:b5:fc:8b:42:4e:71:16:cc:97:4b:d3:2f:85:a6:e1:31:
         5f:07:a3:2d:21:bc:6d:00:cb:0a:77:9f:be:6a:3f:f4:8c:32:
         79:57:75:a2:17:85:12:a3
-----BEGIN CERTIFICATE-----
MIIE7DCCAtSgAwIBAgIBETANBgkqhkiG9w0BAQUFADBTMRMwEQYKCZImiZPyLGQB
GRYDb3JnMRYwFAYKCZImiZPyLGQBGRYGbW9ucm9lMRAwDgYDVQQLDAdSb290LUNB
MRIwEAYDVQQDDAlSb290LUNBLTEwHhcNMTUxMDEyMDkzNDA5WhcNMTcxMDExMDkz
NDA5WjBuMRMwEQYKCZImiZPyLGQBGRYDb3JnMRYwFAYKCZImiZPyLGQBGRYGbW9u
cm9lMQwwCgYDVQQKDANTU0IxEzARBgNVBAsMCkNvbXBvbmVudHMxHDAaBgNVBAMM
E1N1cGVydmlzb3JfUE9MSVRPXzEwggEiMA0GCSqGSIb3DQEBAQUAA4IBDwAwggEK
AoIBAQClPH/m2WtZU8xGm8BFbyRNV/TYD/OD/YJFJ22GRZcXqfqKDjs1g7c4vuBp
ecXeIztMCoWQ44r9GCaeomh3JsRqQpyLPDlf7f5YMTsncwQmuMZAJ/NsqYxgkY3a
fsG9tvt3qc4ky3ikIkzhQRGbbFQoISdSuzgqHCdUrtW89CwvSZwpGLfJuMUC1OqF
E6A4sPlvWwpaAgT0qpO9cbaKE7CGB0OicJQeLC4r3f8ZJ7eDxpJO3me7rUTsOsWP
oIj9kxT/wMn2+z/FJmAXfR1jMKJ3+4vDrdc2wCnQvq1KQ7wTHxMeQ+QCv+doDJDe
ws31CDEiP+2TcOA1GiT4QLxkWrqrAgMBAAGjga8wgawwDgYDVR0PAQH/BAQDAgWg
MAkGA1UdEwQCMAAwHQYDVR0lBBYwFAYIKwYBBQUHAwEGCCsGAQUFBwMCMB0GA1Ud
DgQWBBQXYOhyGCoo6j3xo+N+2T/V2EqtkjAfBgNVHSMEGDAWgBTY6Bw30NT3JCyE
VuAXCucjqZTKlDAwBgNVHREEKTAngiVTdXBlcnZpc29yX1BPTElUT18xLlBPTElU
Ty5tb25yb2Uub3JnMA0GCSqGSIb3DQEBBQUAA4ICAQB1AMob5w3TPXBoRm4LgvE4
HvexamlH2a03EVOfjzM7utfvkKq2VLkEkw/jeAUHnWD0/R3YKwf1h7oATxHkOPrA
lQIpAzenEVLmhJFo8+9z4lgB+L7c0Jl6oGM4HjTuaWQw9u53VqYSRIat+vtnosz7
bKLqbx+XuTLGplXsel7x9eO/sqP3mXe7O3FFsngR2TNbvCxdOjKIMqlE9YlJFV0r
uvfat2Ora3Z2y6kJ/UHm26o35t6toePick7es8mmOG4m9LNdmTDePBm3OPodGmi2
pksoWtpoQ1n7S5D0/AyTbIFv9wdnTdVJt1+F9hjH//dZp+hjTn1qyQqon/A8jjsW
OBAni1C4YzYVLZfb1uAl2WwCcdwcbXIQeAa2eNHMbRrRd/UpyPx1mVL489orbVLl
7d+afiDIKWG+zQTzzocmeWWJV8no6G1Kn3C+pDaaTlUVwozAfZiX26hwIwEFTTjT
aFqma20cOxqAzy9dlgB9VCbqGOapRq3b/zdauFafVLRcmhEWBx+YR47nUuX+mKP6
9NMEi6rtIyqIhKOkX8uEbZ7rEl6rrTfRZwTVWIWPsxgTvdwu/B2uaVnrWUmlcQky
ArnM52BKLuPGwVk6fd3T1UTXyvfCx7X8i0JOcRbMl0vTL4Wm4TFfB6MtIbxtAMsK
d5++aj/0jDJ5V3WiF4USow==
-----END CERTIFICATE-----
