Certificate:
    Data:
        Version: 3 (0x2)
        Serial Number: 19 (0x13)
    Signature Algorithm: sha1WithRSAEncryption
        Issuer: DC=org, DC=monroe, OU=Root-CA, CN=Root-CA-1
        Validity
            Not Before: Oct 15 14:09:27 2015 GMT
            Not After : Oct 14 14:09:27 2017 GMT
        Subject: DC=org, DC=monroe, O=POLITO, OU=Components, CN=Monroe_Node_1
        Subject Public Key Info:
            Public Key Algorithm: rsaEncryption
                Public-Key: (2048 bit)
                Modulus:
                    00:be:95:f0:c5:e0:54:0f:77:da:84:91:78:5a:d2:
                    7d:7a:46:0b:7b:6a:92:c7:37:04:16:22:d6:43:4f:
                    43:81:cc:99:9b:3d:ce:17:0a:7e:09:59:80:dc:ee:
                    8c:3f:cc:c1:0f:bb:6f:54:df:d9:ac:35:85:2c:b6:
                    4c:23:6a:69:e4:3b:c1:95:e1:1f:c7:76:40:a8:e6:
                    dc:a5:c9:2f:16:df:c1:bd:62:03:ae:f0:46:ca:02:
                    75:22:64:96:40:9f:b9:04:2a:7e:df:83:ea:f8:93:
                    a4:e7:01:a7:db:4c:a5:0c:b5:97:4e:0e:bf:2a:bb:
                    f8:2a:9a:17:4d:63:c6:32:6d:18:b9:af:d1:fd:00:
                    10:0e:85:58:ac:df:f8:7b:99:28:b5:1a:2c:ac:3f:
                    c5:54:82:56:3d:5c:0b:75:c7:f2:7f:4c:ba:59:fa:
                    96:32:17:27:b4:4a:b3:64:95:ce:fc:82:61:62:9f:
                    2b:d8:19:6b:3b:c0:6d:f5:c0:57:42:27:03:cd:7b:
                    f3:03:49:52:2b:96:20:a5:66:b4:6d:0c:82:b1:38:
                    8b:68:1d:ae:12:4e:14:cd:eb:3f:4a:b1:ed:b6:7e:
                    69:cd:cb:c8:37:a7:6d:01:fb:14:d5:38:6a:07:47:
                    85:90:74:68:c9:6e:d6:70:62:1a:53:fc:5c:f7:9d:
                    2c:6f
                Exponent: 65537 (0x10001)
        X509v3 extensions:
            X509v3 Key Usage: critical
                Digital Signature, Key Encipherment
            X509v3 Basic Constraints: 
                CA:FALSE
            X509v3 Extended Key Usage: 
                TLS Web Server Authentication, TLS Web Client Authentication
            X509v3 Subject Key Identifier: 
                24:A4:D1:C4:59:87:99:7E:3D:15:96:6D:4F:5B:D2:A1:E0:BF:FB:F8
            X509v3 Authority Key Identifier: 
                keyid:D8:E8:1C:37:D0:D4:F7:24:2C:84:56:E0:17:0A:E7:23:A9:94:CA:94

            X509v3 Subject Alternative Name: 
                DNS:Monroe_Node_.POLITO.monroe.org
    Signature Algorithm: sha1WithRSAEncryption
         8b:57:61:d5:95:17:86:a8:f3:85:ea:37:1a:d7:42:e5:bc:79:
         57:ab:39:b8:b8:c4:56:37:83:85:94:e7:c3:63:07:26:35:2f:
         6d:36:98:be:d4:71:c9:b9:c1:5b:89:62:46:f1:f5:43:95:11:
         26:27:53:8a:84:11:72:37:ad:8f:12:ec:63:9b:b3:75:79:5a:
         d1:23:f3:38:e3:ee:f9:41:18:81:6a:f6:00:79:bb:ef:14:51:
         6f:88:c9:51:2a:b0:2e:a5:e0:eb:e7:08:c9:30:6e:be:d2:01:
         f2:89:59:8b:67:3a:f4:8e:df:ee:4d:fb:4c:ba:4c:06:d5:ad:
         15:fa:cd:a5:4e:78:6e:06:62:19:a7:7f:d0:96:9a:9d:38:2c:
         c8:77:49:d8:0f:ad:90:83:70:96:07:c8:a6:65:7c:66:32:50:
         ef:e4:0a:ea:dc:81:29:04:ae:ba:36:8b:aa:d6:0d:ed:6e:df:
         a6:cc:7f:dd:5e:e2:d8:3a:6a:8e:5c:d1:0b:78:c7:fc:5a:48:
         b2:b5:db:b7:45:80:52:2a:cf:38:ff:a4:fa:a0:23:08:02:38:
         20:d4:10:61:aa:a4:72:7a:8d:02:58:8d:97:75:53:0e:a6:e5:
         7a:7e:8a:d4:57:20:58:5e:f8:de:57:b1:bb:44:31:1e:fe:17:
         5c:e0:40:a9:f5:03:de:db:96:41:59:fd:25:7a:48:db:34:14:
         f4:d7:a8:0b:8d:c5:85:64:d9:9f:17:47:57:bc:54:27:ca:61:
         2d:75:ca:01:81:17:92:a1:76:b4:9e:80:56:2a:2f:2b:4e:c3:
         9a:11:d6:59:ac:ee:eb:12:bf:3e:58:43:b5:23:cf:19:38:36:
         ed:9c:33:d5:06:ae:2a:bc:54:bb:14:44:4f:1e:2c:1b:ff:5d:
         5a:1c:b2:2f:24:24:7e:37:3e:51:c4:1e:ef:e1:99:e5:b4:08:
         61:8f:36:e1:32:93:f8:50:67:1f:ba:d8:ca:c2:a0:c0:83:28:
         87:d5:9d:a7:32:dc:73:88:77:7b:04:9d:27:24:96:11:af:5d:
         e8:68:f7:1c:41:9e:25:d8:71:2a:c0:bd:36:3a:f4:fe:6d:fa:
         1b:29:9d:b2:68:2c:28:07:73:b8:1c:71:ac:9d:01:bf:6f:fb:
         16:07:6b:d9:bf:7f:29:36:bf:77:c4:37:c9:66:bd:bc:31:e2:
         a0:c2:78:7e:92:70:00:66:f3:2d:8b:bf:7f:ab:38:84:86:65:
         29:88:68:de:eb:e6:e7:1f:f7:48:b0:f4:92:b4:82:b0:e5:8c:
         d0:69:63:bd:93:84:2c:41:53:4c:51:cb:b6:a6:0d:36:bb:20:
         f8:22:6e:6b:52:d0:6b:48
-----BEGIN CERTIFICATE-----
MIIE4jCCAsqgAwIBAgIBEzANBgkqhkiG9w0BAQUFADBTMRMwEQYKCZImiZPyLGQB
GRYDb3JnMRYwFAYKCZImiZPyLGQBGRYGbW9ucm9lMRAwDgYDVQQLDAdSb290LUNB
MRIwEAYDVQQDDAlSb290LUNBLTEwHhcNMTUxMDE1MTQwOTI3WhcNMTcxMDE0MTQw
OTI3WjBrMRMwEQYKCZImiZPyLGQBGRYDb3JnMRYwFAYKCZImiZPyLGQBGRYGbW9u
cm9lMQ8wDQYDVQQKDAZQT0xJVE8xEzARBgNVBAsMCkNvbXBvbmVudHMxFjAUBgNV
BAMMDU1vbnJvZV9Ob2RlXzEwggEiMA0GCSqGSIb3DQEBAQUAA4IBDwAwggEKAoIB
AQC+lfDF4FQPd9qEkXha0n16Rgt7apLHNwQWItZDT0OBzJmbPc4XCn4JWYDc7ow/
zMEPu29U39msNYUstkwjamnkO8GV4R/HdkCo5tylyS8W38G9YgOu8EbKAnUiZJZA
n7kEKn7fg+r4k6TnAafbTKUMtZdODr8qu/gqmhdNY8YybRi5r9H9ABAOhVis3/h7
mSi1GiysP8VUglY9XAt1x/J/TLpZ+pYyFye0SrNklc78gmFinyvYGWs7wG31wFdC
JwPNe/MDSVIrliClZrRtDIKxOItoHa4SThTN6z9Kse22fmnNy8g3p20B+xTVOGoH
R4WQdGjJbtZwYhpT/Fz3nSxvAgMBAAGjgagwgaUwDgYDVR0PAQH/BAQDAgWgMAkG
A1UdEwQCMAAwHQYDVR0lBBYwFAYIKwYBBQUHAwEGCCsGAQUFBwMCMB0GA1UdDgQW
BBQkpNHEWYeZfj0Vlm1PW9Kh4L/7+DAfBgNVHSMEGDAWgBTY6Bw30NT3JCyEVuAX
CucjqZTKlDApBgNVHREEIjAggh5Nb25yb2VfTm9kZV8uUE9MSVRPLm1vbnJvZS5v
cmcwDQYJKoZIhvcNAQEFBQADggIBAItXYdWVF4ao84XqNxrXQuW8eVerObi4xFY3
g4WU58NjByY1L202mL7Uccm5wVuJYkbx9UOVESYnU4qEEXI3rY8S7GObs3V5WtEj
8zjj7vlBGIFq9gB5u+8UUW+IyVEqsC6l4OvnCMkwbr7SAfKJWYtnOvSO3+5N+0y6
TAbVrRX6zaVOeG4GYhmnf9CWmp04LMh3SdgPrZCDcJYHyKZlfGYyUO/kCurcgSkE
rro2i6rWDe1u36bMf91e4tg6ao5c0Qt4x/xaSLK127dFgFIqzzj/pPqgIwgCOCDU
EGGqpHJ6jQJYjZd1Uw6m5Xp+itRXIFhe+N5XsbtEMR7+F1zgQKn1A97blkFZ/SV6
SNs0FPTXqAuNxYVk2Z8XR1e8VCfKYS11ygGBF5KhdrSegFYqLytOw5oR1lms7usS
vz5YQ7Ujzxk4Nu2cM9UGriq8VLsURE8eLBv/XVocsi8kJH43PlHEHu/hmeW0CGGP
NuEyk/hQZx+62MrCoMCDKIfVnacy3HOId3sEnScklhGvXeho9xxBniXYcSrAvTY6
9P5t+hspnbJoLCgHc7gccaydAb9v+xYHa9m/fyk2v3fEN8lmvbwx4qDCeH6ScABm
8y2Lv3+rOISGZSmIaN7r5ucf90iw9JK0grDljNBpY72ThCxBU0xRy7amDTa7IPgi
bmtS0GtI
-----END CERTIFICATE-----
