Certificate:
    Data:
        Version: 3 (0x2)
        Serial Number: 20 (0x14)
    Signature Algorithm: sha1WithRSAEncryption
        Issuer: DC=org, DC=monroe, OU=Root-CA, CN=Root-CA-1
        Validity
            Not Before: Oct 15 14:13:53 2015 GMT
            Not After : Oct 14 14:13:53 2017 GMT
        Subject: DC=org, DC=monroe, O=POLITO, OU=Components, CN=Monroe_Node_
        Subject Public Key Info:
            Public Key Algorithm: rsaEncryption
                Public-Key: (2048 bit)
                Modulus:
                    00:c1:96:ba:c1:14:38:9f:62:8d:6d:0d:0d:79:51:
                    4b:6b:21:f5:5e:57:64:ed:2f:1b:70:78:3c:4c:32:
                    33:f3:67:fb:87:76:df:54:4c:38:8b:a0:68:43:8e:
                    86:31:43:46:13:a3:e6:07:35:72:d4:6f:d5:1d:95:
                    cf:c9:f8:bd:42:1b:6b:52:d4:87:ad:a6:fc:b1:39:
                    8e:e8:ad:a8:33:5d:ec:23:a9:7c:56:e3:a0:30:1e:
                    28:01:bc:e4:87:25:f3:fc:66:28:92:42:7d:6e:5e:
                    c2:da:63:c5:1e:1d:2b:a9:c7:f8:80:59:14:e6:b4:
                    14:62:30:84:cf:b4:48:d4:c9:a6:6f:71:8f:85:cf:
                    81:26:0d:ca:de:1d:90:45:d8:c0:a0:db:7e:5a:52:
                    31:cd:54:90:c2:dc:d9:dd:06:89:bc:bc:50:53:32:
                    a6:f3:56:d0:6c:97:42:c9:6c:68:ac:b4:68:aa:03:
                    f6:7d:a1:32:f2:8d:0c:2c:6e:f5:14:39:d7:07:47:
                    e8:fd:53:c3:d6:b3:1f:de:34:97:1e:8a:6e:2a:f0:
                    7f:88:44:e0:da:de:09:9e:4e:b2:dc:2d:89:d0:e5:
                    8a:8e:e4:62:fb:bb:72:c5:7f:d7:d6:38:cb:b9:42:
                    da:08:12:5f:32:38:30:ec:f8:bd:b1:79:cd:d2:a7:
                    df:7b
                Exponent: 65537 (0x10001)
        X509v3 extensions:
            X509v3 Key Usage: critical
                Digital Signature, Key Encipherment
            X509v3 Basic Constraints: 
                CA:FALSE
            X509v3 Extended Key Usage: 
                TLS Web Server Authentication, TLS Web Client Authentication
            X509v3 Subject Key Identifier: 
                AB:0D:6B:90:95:7D:74:4A:E4:5D:1A:00:9F:E0:A9:C2:8A:91:89:88
            X509v3 Authority Key Identifier: 
                keyid:D8:E8:1C:37:D0:D4:F7:24:2C:84:56:E0:17:0A:E7:23:A9:94:CA:94

            X509v3 Subject Alternative Name: 
                DNS:Monroe_Node_.POLITO.monroe.org
    Signature Algorithm: sha1WithRSAEncryption
         9c:b1:e3:1b:7b:af:bf:26:c0:ac:e1:09:b5:a1:dd:80:c2:69:
         fa:b9:b8:a0:5e:20:55:d2:48:06:e9:7b:98:2f:d6:83:f3:95:
         b1:62:18:96:6c:6d:b1:54:00:b1:34:77:f3:29:0b:f1:df:1e:
         2c:e9:99:4b:57:04:a8:30:47:cc:f3:09:68:74:f7:60:87:75:
         0a:92:b8:32:a0:5c:92:9f:8b:4a:5c:1a:45:39:0a:c7:a8:5f:
         da:20:a9:15:db:35:35:6c:40:99:dd:af:df:5f:95:6d:3e:13:
         2d:04:39:73:36:84:db:0e:5e:dd:f1:40:6c:88:93:f8:ef:80:
         82:5d:c1:0c:75:ef:c4:7f:d3:72:16:1b:b9:b1:73:ff:b5:47:
         e3:54:e4:cd:2e:b8:8d:d1:7a:6e:72:56:0c:33:6f:27:d2:70:
         f3:ca:b2:55:4a:e4:9c:8a:24:5d:59:f3:51:28:99:78:40:96:
         f0:28:c9:d5:78:b6:23:e4:45:cb:72:25:64:89:d7:55:27:85:
         b9:6d:eb:c1:53:d0:a0:39:49:5e:9d:b3:de:37:3c:61:9f:31:
         0a:b7:9d:40:f4:7f:e7:da:d3:38:3e:d5:50:78:82:c3:c7:cf:
         61:25:d9:32:ba:11:f0:24:99:4f:44:36:49:59:7c:23:8b:1a:
         5a:67:6f:1a:00:18:1b:dc:66:be:85:de:51:13:1c:51:64:50:
         03:a4:15:56:d9:dc:68:2e:56:35:58:6c:c3:c2:46:bb:df:7c:
         99:3d:14:ce:98:11:6c:57:a0:50:26:a4:b7:11:b6:f4:22:b1:
         e8:f2:1a:3f:0d:05:41:c3:89:f5:24:6a:83:0c:44:6d:55:8d:
         0d:be:11:f6:37:4d:68:a6:42:0f:ec:73:23:e2:ef:af:32:f8:
         ac:9e:d1:02:de:ca:53:a5:d3:a3:76:7b:d9:4e:85:d0:b5:9a:
         9f:37:28:cd:17:fe:fc:a0:f3:b4:bc:af:01:52:67:06:51:9f:
         23:8d:be:00:c9:91:08:2b:1e:4f:e1:5d:2a:31:ec:ce:98:e4:
         a8:41:0f:8b:9d:17:98:bf:ae:af:f8:8b:32:03:53:fa:20:6f:
         d9:85:ad:e8:86:5e:28:17:28:27:4a:4a:d3:f7:26:84:a5:54:
         56:88:c4:97:a7:4c:8b:1d:d1:7f:9c:b3:e7:cd:3a:6d:1a:52:
         5f:ed:a1:3c:24:c0:f0:0e:9e:f1:63:d9:80:ab:85:84:37:a8:
         ed:3f:69:c0:9f:87:2a:c8:4a:4c:c5:e0:e9:6e:0b:98:16:60:
         fa:f5:16:8b:09:bf:53:e3:41:f0:3a:93:b5:1c:9d:5b:f5:9f:
         c6:48:e3:44:fa:de:bc:54
-----BEGIN CERTIFICATE-----
MIIE4TCCAsmgAwIBAgIBFDANBgkqhkiG9w0BAQUFADBTMRMwEQYKCZImiZPyLGQB
GRYDb3JnMRYwFAYKCZImiZPyLGQBGRYGbW9ucm9lMRAwDgYDVQQLDAdSb290LUNB
MRIwEAYDVQQDDAlSb290LUNBLTEwHhcNMTUxMDE1MTQxMzUzWhcNMTcxMDE0MTQx
MzUzWjBqMRMwEQYKCZImiZPyLGQBGRYDb3JnMRYwFAYKCZImiZPyLGQBGRYGbW9u
cm9lMQ8wDQYDVQQKDAZQT0xJVE8xEzARBgNVBAsMCkNvbXBvbmVudHMxFTATBgNV
BAMMDE1vbnJvZV9Ob2RlXzCCASIwDQYJKoZIhvcNAQEBBQADggEPADCCAQoCggEB
AMGWusEUOJ9ijW0NDXlRS2sh9V5XZO0vG3B4PEwyM/Nn+4d231RMOIugaEOOhjFD
RhOj5gc1ctRv1R2Vz8n4vUIba1LUh62m/LE5juitqDNd7COpfFbjoDAeKAG85Icl
8/xmKJJCfW5ewtpjxR4dK6nH+IBZFOa0FGIwhM+0SNTJpm9xj4XPgSYNyt4dkEXY
wKDbflpSMc1UkMLc2d0Giby8UFMypvNW0GyXQslsaKy0aKoD9n2hMvKNDCxu9RQ5
1wdH6P1Tw9azH940lx6Kbirwf4hE4NreCZ5OstwtidDlio7kYvu7csV/19Y4y7lC
2ggSXzI4MOz4vbF5zdKn33sCAwEAAaOBqDCBpTAOBgNVHQ8BAf8EBAMCBaAwCQYD
VR0TBAIwADAdBgNVHSUEFjAUBggrBgEFBQcDAQYIKwYBBQUHAwIwHQYDVR0OBBYE
FKsNa5CVfXRK5F0aAJ/gqcKKkYmIMB8GA1UdIwQYMBaAFNjoHDfQ1PckLIRW4BcK
5yOplMqUMCkGA1UdEQQiMCCCHk1vbnJvZV9Ob2RlXy5QT0xJVE8ubW9ucm9lLm9y
ZzANBgkqhkiG9w0BAQUFAAOCAgEAnLHjG3uvvybArOEJtaHdgMJp+rm4oF4gVdJI
Bul7mC/Wg/OVsWIYlmxtsVQAsTR38ykL8d8eLOmZS1cEqDBHzPMJaHT3YId1CpK4
MqBckp+LSlwaRTkKx6hf2iCpFds1NWxAmd2v31+VbT4TLQQ5czaE2w5e3fFAbIiT
+O+Agl3BDHXvxH/TchYbubFz/7VH41TkzS64jdF6bnJWDDNvJ9Jw88qyVUrknIok
XVnzUSiZeECW8CjJ1Xi2I+RFy3IlZInXVSeFuW3rwVPQoDlJXp2z3jc8YZ8xCred
QPR/59rTOD7VUHiCw8fPYSXZMroR8CSZT0Q2SVl8I4saWmdvGgAYG9xmvoXeURMc
UWRQA6QVVtncaC5WNVhsw8JGu998mT0UzpgRbFegUCaktxG29CKx6PIaPw0FQcOJ
9SRqgwxEbVWNDb4R9jdNaKZCD+xzI+LvrzL4rJ7RAt7KU6XTo3Z72U6F0LWanzco
zRf+/KDztLyvAVJnBlGfI42+AMmRCCseT+FdKjHszpjkqEEPi50XmL+ur/iLMgNT
+iBv2YWt6IZeKBcoJ0pK0/cmhKVUVojEl6dMix3Rf5yz5806bRpSX+2hPCTA8A6e
8WPZgKuFhDeo7T9pwJ+HKshKTMXg6W4LmBZg+vUWiwm/U+NB8DqTtRydW/Wfxkjj
RPrevFQ=
-----END CERTIFICATE-----
