Certificate:
    Data:
        Version: 3 (0x2)
        Serial Number: 21 (0x15)
    Signature Algorithm: sha1WithRSAEncryption
        Issuer: DC=org, DC=monroe, OU=Root-CA, CN=Root-CA-1
        Validity
            Not Before: Oct 15 14:14:41 2015 GMT
            Not After : Oct 14 14:14:41 2017 GMT
        Subject: DC=org, DC=monroe, O=POLITO, OU=Components, CN=Monroe_Node_
        Subject Public Key Info:
            Public Key Algorithm: rsaEncryption
                Public-Key: (2048 bit)
                Modulus:
                    00:b3:b3:3f:d6:8b:c7:35:d9:72:64:52:e6:ab:ce:
                    06:e2:7e:07:93:2d:31:67:49:a6:13:59:f1:be:cb:
                    44:f1:a4:7d:d4:47:74:87:9e:96:9c:9d:48:2c:07:
                    53:3b:91:ae:b8:d1:71:ff:ac:34:6c:02:8f:88:34:
                    b6:e7:b3:49:e6:d7:41:b4:1e:50:52:c2:65:3c:af:
                    72:0f:d8:6e:e0:4f:d0:3a:a7:1b:ab:6a:c1:67:09:
                    18:40:ce:e0:b4:fe:2b:86:5e:91:0e:0b:74:da:fd:
                    85:c8:67:68:96:4c:8c:87:5c:5a:44:c7:b0:ba:0b:
                    9b:1e:9c:0f:f4:8d:1f:68:56:e5:8e:99:d7:e9:24:
                    86:d0:ae:eb:5d:bf:24:1b:17:8e:11:6f:70:5b:43:
                    55:5e:16:7f:95:a1:04:47:c0:63:38:f6:55:ae:38:
                    42:7b:d3:5f:48:bd:03:ec:79:bd:71:65:0f:6a:77:
                    55:34:6d:75:b0:c8:74:ac:28:c9:fa:fc:69:09:1b:
                    5d:5c:e7:71:2c:6e:49:f9:26:aa:b0:6d:f5:2b:f5:
                    6b:dd:93:a3:67:26:f7:f0:6a:bb:0b:8d:9f:39:ea:
                    26:b2:82:df:c4:ee:36:d4:81:b3:fc:73:6d:1c:31:
                    56:2a:c9:7d:29:72:5b:7b:f0:d5:2b:3f:29:9b:92:
                    05:f7
                Exponent: 65537 (0x10001)
        X509v3 extensions:
            X509v3 Key Usage: critical
                Digital Signature, Key Encipherment
            X509v3 Basic Constraints: 
                CA:FALSE
            X509v3 Extended Key Usage: 
                TLS Web Server Authentication, TLS Web Client Authentication
            X509v3 Subject Key Identifier: 
                A8:3A:58:94:AA:46:7F:C8:86:52:5C:52:71:E4:E2:1C:09:63:C8:25
            X509v3 Authority Key Identifier: 
                keyid:D8:E8:1C:37:D0:D4:F7:24:2C:84:56:E0:17:0A:E7:23:A9:94:CA:94

            X509v3 Subject Alternative Name: 
                DNS:Monroe_Node_.POLITO.monroe.org
    Signature Algorithm: sha1WithRSAEncryption
         b8:bb:82:5d:b2:2b:18:8b:7f:84:ff:1a:ec:64:0d:ab:35:be:
         29:ed:c3:fb:7e:18:d8:c6:93:9b:b2:be:17:14:f1:fd:82:e3:
         a2:82:af:a8:ae:49:5b:ab:93:2f:77:70:06:ce:93:13:fc:85:
         e1:99:1f:6e:76:e4:7f:1c:70:0b:bd:39:f6:25:8f:a7:89:1c:
         2f:cd:a3:4b:1d:49:62:bc:b8:be:cf:b6:16:ea:91:10:83:72:
         1f:42:44:90:cd:ec:fa:03:38:05:77:4d:f4:38:15:3d:09:89:
         3c:02:ad:37:c5:02:dd:88:5f:f2:f5:ec:8f:ad:6c:b2:46:46:
         f3:ef:cf:e8:96:71:bd:0b:68:15:17:ec:29:58:01:76:53:91:
         ce:ce:ff:fa:f3:b0:66:d9:f4:0c:2e:77:05:b7:9d:d6:c8:0e:
         8c:af:8a:df:c9:07:69:28:17:63:ce:50:d5:0a:cb:af:71:ab:
         95:2d:f2:f4:35:21:87:0b:81:ac:79:8e:11:7c:ff:5e:ce:14:
         53:98:0e:00:f3:a4:30:18:ce:e6:2f:61:a6:f3:9d:db:af:ed:
         ee:ea:a3:ed:dd:13:96:e1:71:5d:66:2c:31:74:9c:90:5f:7c:
         4f:39:2f:25:fe:33:12:06:97:c6:f3:a7:2f:ec:76:f6:5a:d9:
         c2:c0:b2:f3:00:21:77:89:4d:6c:1c:7a:3b:72:36:bb:66:09:
         03:e3:27:54:34:d0:81:08:9f:df:a4:2e:9d:7f:d7:59:ea:1b:
         f7:08:5a:df:55:b9:71:8e:47:07:9a:8d:fd:34:bc:92:f5:24:
         30:57:4b:31:45:0a:e7:96:e9:69:d5:b2:51:2f:af:e5:53:f9:
         1c:ab:0d:05:a2:a9:e6:db:08:75:4b:e1:eb:55:17:77:7f:03:
         5f:b9:94:e3:03:ee:d8:a5:48:0b:75:43:7f:a4:c2:22:08:64:
         cb:10:0f:89:e0:a4:c8:5e:16:70:a3:7a:46:1d:f2:87:61:dd:
         f6:df:b8:c0:81:39:dd:e8:df:71:e5:d8:53:ef:39:58:f3:03:
         6d:27:b9:eb:8c:e9:16:f3:62:62:d6:87:b1:8e:fb:02:9c:fc:
         a6:19:83:15:6f:ab:60:14:b4:b1:1d:b5:a3:05:3a:82:40:fe:
         fc:d5:8b:51:0d:3d:36:f0:ad:d2:4f:bb:f7:8d:f3:61:c3:98:
         ec:1c:15:73:9f:e2:5f:76:1b:4e:34:f9:69:18:d6:4e:22:84:
         61:06:7e:ff:18:f7:d5:07:3a:7c:d4:14:80:73:78:97:e3:a3:
         0c:7a:ef:6e:b9:80:2c:72:3d:93:12:24:20:2e:20:44:41:8d:
         c9:b6:ce:2c:58:99:a6:4c
-----BEGIN CERTIFICATE-----
MIIE4TCCAsmgAwIBAgIBFTANBgkqhkiG9w0BAQUFADBTMRMwEQYKCZImiZPyLGQB
GRYDb3JnMRYwFAYKCZImiZPyLGQBGRYGbW9ucm9lMRAwDgYDVQQLDAdSb290LUNB
MRIwEAYDVQQDDAlSb290LUNBLTEwHhcNMTUxMDE1MTQxNDQxWhcNMTcxMDE0MTQx
NDQxWjBqMRMwEQYKCZImiZPyLGQBGRYDb3JnMRYwFAYKCZImiZPyLGQBGRYGbW9u
cm9lMQ8wDQYDVQQKDAZQT0xJVE8xEzARBgNVBAsMCkNvbXBvbmVudHMxFTATBgNV
BAMMDE1vbnJvZV9Ob2RlXzCCASIwDQYJKoZIhvcNAQEBBQADggEPADCCAQoCggEB
ALOzP9aLxzXZcmRS5qvOBuJ+B5MtMWdJphNZ8b7LRPGkfdRHdIeelpydSCwHUzuR
rrjRcf+sNGwCj4g0tuezSebXQbQeUFLCZTyvcg/YbuBP0DqnG6tqwWcJGEDO4LT+
K4ZekQ4LdNr9hchnaJZMjIdcWkTHsLoLmx6cD/SNH2hW5Y6Z1+kkhtCu612/JBsX
jhFvcFtDVV4Wf5WhBEfAYzj2Va44QnvTX0i9A+x5vXFlD2p3VTRtdbDIdKwoyfr8
aQkbXVzncSxuSfkmqrBt9Sv1a92To2cm9/BquwuNnznqJrKC38TuNtSBs/xzbRwx
VirJfSlyW3vw1Ss/KZuSBfcCAwEAAaOBqDCBpTAOBgNVHQ8BAf8EBAMCBaAwCQYD
VR0TBAIwADAdBgNVHSUEFjAUBggrBgEFBQcDAQYIKwYBBQUHAwIwHQYDVR0OBBYE
FKg6WJSqRn/IhlJcUnHk4hwJY8glMB8GA1UdIwQYMBaAFNjoHDfQ1PckLIRW4BcK
5yOplMqUMCkGA1UdEQQiMCCCHk1vbnJvZV9Ob2RlXy5QT0xJVE8ubW9ucm9lLm9y
ZzANBgkqhkiG9w0BAQUFAAOCAgEAuLuCXbIrGIt/hP8a7GQNqzW+Ke3D+34Y2MaT
m7K+FxTx/YLjooKvqK5JW6uTL3dwBs6TE/yF4ZkfbnbkfxxwC7059iWPp4kcL82j
Sx1JYry4vs+2FuqREINyH0JEkM3s+gM4BXdN9DgVPQmJPAKtN8UC3Yhf8vXsj61s
skZG8+/P6JZxvQtoFRfsKVgBdlORzs7/+vOwZtn0DC53Bbed1sgOjK+K38kHaSgX
Y85Q1QrLr3GrlS3y9DUhhwuBrHmOEXz/Xs4UU5gOAPOkMBjO5i9hpvOd26/t7uqj
7d0TluFxXWYsMXSckF98TzkvJf4zEgaXxvOnL+x29lrZwsCy8wAhd4lNbBx6O3I2
u2YJA+MnVDTQgQif36QunX/XWeob9wha31W5cY5HB5qN/TS8kvUkMFdLMUUK55bp
adWyUS+v5VP5HKsNBaKp5tsIdUvh61UXd38DX7mU4wPu2KVIC3VDf6TCIghkyxAP
ieCkyF4WcKN6Rh3yh2Hd9t+4wIE53ejfceXYU+85WPMDbSe564zpFvNiYtaHsY77
Apz8phmDFW+rYBS0sR21owU6gkD+/NWLUQ09NvCt0k+7943zYcOY7BwVc5/iX3Yb
TjT5aRjWTiKEYQZ+/xj31Qc6fNQUgHN4l+OjDHrvbrmALHI9kxIkIC4gREGNybbO
LFiZpkw=
-----END CERTIFICATE-----
