Certificate:
    Data:
        Version: 3 (0x2)
        Serial Number: 22 (0x16)
    Signature Algorithm: sha1WithRSAEncryption
        Issuer: DC=org, DC=monroe, OU=Root-CA, CN=Root-CA-1
        Validity
            Not Before: Oct 15 14:15:03 2015 GMT
            Not After : Oct 14 14:15:03 2017 GMT
        Subject: DC=org, DC=monroe, O=POLITO, OU=Components, CN=Monroe_Node_1
        Subject Public Key Info:
            Public Key Algorithm: rsaEncryption
                Public-Key: (2048 bit)
                Modulus:
                    00:cf:b8:71:a6:c5:7f:58:91:70:fc:10:ff:1b:51:
                    3c:e7:b0:48:fd:e8:99:80:74:1c:5e:64:10:dd:51:
                    6f:b5:f9:42:85:bb:48:db:eb:0b:3b:2d:0f:cc:d3:
                    bc:03:cf:9c:77:d3:b6:c3:3f:24:63:35:d2:2c:62:
                    16:ad:2c:8e:b7:97:52:a6:3e:37:04:c0:29:e4:27:
                    4e:9a:e8:62:df:3b:ce:b6:d4:3d:7b:72:95:db:8d:
                    a4:51:4a:23:8b:03:b3:44:9b:ab:cd:65:ed:d8:16:
                    f3:9a:a8:b7:91:45:55:a7:35:c5:e3:da:a3:a3:d0:
                    e8:59:a1:04:d6:7e:86:66:be:f9:25:10:b1:24:22:
                    27:4b:73:e1:0a:f8:c2:23:5b:ae:95:9e:c6:3f:a8:
                    f7:84:cc:30:1a:06:75:0e:77:18:33:c8:3a:aa:c3:
                    2a:35:8d:02:38:a6:0f:66:37:2d:68:c7:03:4b:9e:
                    5d:6e:b9:66:69:ac:56:c5:9f:df:23:41:19:a6:e3:
                    2f:bf:3d:e6:fc:8a:e9:7e:04:f7:f8:86:a5:5c:79:
                    21:60:91:57:7c:0a:a3:13:ce:a8:89:55:0d:d8:44:
                    3b:a3:f0:7a:e3:35:03:86:86:97:de:0d:de:8c:86:
                    8d:da:4b:dc:d7:1c:0c:d5:fb:1a:26:0f:1e:9f:87:
                    60:ef
                Exponent: 65537 (0x10001)
        X509v3 extensions:
            X509v3 Key Usage: critical
                Digital Signature, Key Encipherment
            X509v3 Basic Constraints: 
                CA:FALSE
            X509v3 Extended Key Usage: 
                TLS Web Server Authentication, TLS Web Client Authentication
            X509v3 Subject Key Identifier: 
                D8:67:1C:DE:CD:16:63:BA:1F:C6:9E:CD:70:50:24:77:F2:F8:C7:66
            X509v3 Authority Key Identifier: 
                keyid:D8:E8:1C:37:D0:D4:F7:24:2C:84:56:E0:17:0A:E7:23:A9:94:CA:94

            X509v3 Subject Alternative Name: 
                DNS:Monroe_Node_1.POLITO.monroe.org
    Signature Algorithm: sha1WithRSAEncryption
         5f:0c:fa:fe:73:e1:ed:7f:04:d7:89:33:e5:ed:14:0a:7e:ce:
         9e:b2:18:1e:d6:bf:1a:b4:2f:a1:9e:dd:6c:e2:7c:53:68:e0:
         5b:b4:35:5e:72:85:14:c6:57:9c:a9:3c:fa:bc:4a:fd:ea:53:
         ba:f6:2a:e6:71:0a:e5:1c:a6:b9:cc:f7:49:84:7c:86:f9:c1:
         61:27:82:08:7b:e0:8f:6b:c1:f4:45:30:d0:39:ec:8a:68:35:
         f8:06:47:0a:ed:61:93:ce:e0:d0:7b:65:50:4f:48:10:95:2c:
         1e:77:b7:09:9c:1c:81:db:4a:1b:6a:ac:46:d4:fd:db:44:c1:
         c3:49:07:ef:1a:27:af:76:6d:b8:93:63:62:3d:00:dc:53:91:
         f1:f1:8f:f3:64:0f:1b:22:7a:a3:14:27:6b:e6:93:bc:b8:44:
         f1:e7:1f:c0:ab:83:f7:49:c2:cf:a8:ad:0d:f7:8b:54:a1:de:
         55:77:f2:8d:9e:e2:41:e8:6c:bd:09:57:cd:34:7c:8a:16:90:
         dc:fc:02:c1:9c:73:fb:20:08:46:1b:08:9d:d9:e5:e5:af:c9:
         58:78:ee:c9:d6:b8:84:af:cc:d6:88:63:df:a9:e8:66:92:d7:
         88:6e:b9:f6:35:59:58:72:97:7b:9e:7e:b5:8c:41:a9:e8:b9:
         c0:38:70:b1:eb:42:71:c7:e3:b0:89:a3:d5:af:2a:1f:d6:ba:
         b4:0d:9a:a7:6a:44:d5:f2:11:86:1c:a2:98:14:8d:c4:68:b3:
         fe:f6:eb:90:6e:52:9d:f8:b1:a3:91:c5:0d:e5:51:ca:3b:39:
         b2:e9:38:1c:7a:ca:0d:f6:54:ea:30:23:02:ba:1c:e6:3b:0d:
         a9:29:ef:a2:00:29:cc:07:4a:f2:aa:19:18:3e:ca:98:07:1e:
         54:52:c0:27:1c:5d:7d:a3:56:b3:a8:b0:ce:a2:40:e0:7e:50:
         a6:bc:65:19:98:de:c4:f1:bb:e5:a9:44:ac:16:da:1c:db:ee:
         3e:37:dc:5f:91:e9:d0:15:a0:05:8b:62:f8:2c:20:f8:79:41:
         a1:0b:4f:f0:ef:c1:7a:01:97:50:8f:7d:bc:9c:1d:ca:00:16:
         95:37:82:b0:94:e0:4c:24:ce:fd:bf:fc:f6:64:8d:c3:2e:2e:
         b7:79:7c:61:43:5d:96:38:f6:a1:c9:b5:c1:95:19:54:a5:d6:
         82:6d:fd:aa:59:9b:e8:17:c2:e8:58:b8:99:2b:cc:c7:6c:a7:
         43:6e:1b:ad:e7:8e:bf:76:13:87:20:71:e9:c1:dc:38:a9:5d:
         56:a0:9f:63:cd:5b:2d:b1:3d:33:81:52:a2:a1:8c:64:29:46:
         d6:16:56:86:fc:f6:3f:85
-----BEGIN CERTIFICATE-----
MIIE4zCCAsugAwIBAgIBFjANBgkqhkiG9w0BAQUFADBTMRMwEQYKCZImiZPyLGQB
GRYDb3JnMRYwFAYKCZImiZPyLGQBGRYGbW9ucm9lMRAwDgYDVQQLDAdSb290LUNB
MRIwEAYDVQQDDAlSb290LUNBLTEwHhcNMTUxMDE1MTQxNTAzWhcNMTcxMDE0MTQx
NTAzWjBrMRMwEQYKCZImiZPyLGQBGRYDb3JnMRYwFAYKCZImiZPyLGQBGRYGbW9u
cm9lMQ8wDQYDVQQKDAZQT0xJVE8xEzARBgNVBAsMCkNvbXBvbmVudHMxFjAUBgNV
BAMMDU1vbnJvZV9Ob2RlXzEwggEiMA0GCSqGSIb3DQEBAQUAA4IBDwAwggEKAoIB
AQDPuHGmxX9YkXD8EP8bUTznsEj96JmAdBxeZBDdUW+1+UKFu0jb6ws7LQ/M07wD
z5x307bDPyRjNdIsYhatLI63l1KmPjcEwCnkJ06a6GLfO8621D17cpXbjaRRSiOL
A7NEm6vNZe3YFvOaqLeRRVWnNcXj2qOj0OhZoQTWfoZmvvklELEkIidLc+EK+MIj
W66VnsY/qPeEzDAaBnUOdxgzyDqqwyo1jQI4pg9mNy1oxwNLnl1uuWZprFbFn98j
QRmm4y+/Peb8iul+BPf4hqVceSFgkVd8CqMTzqiJVQ3YRDuj8HrjNQOGhpfeDd6M
ho3aS9zXHAzV+xomDx6fh2DvAgMBAAGjgakwgaYwDgYDVR0PAQH/BAQDAgWgMAkG
A1UdEwQCMAAwHQYDVR0lBBYwFAYIKwYBBQUHAwEGCCsGAQUFBwMCMB0GA1UdDgQW
BBTYZxzezRZjuh/Gns1wUCR38vjHZjAfBgNVHSMEGDAWgBTY6Bw30NT3JCyEVuAX
CucjqZTKlDAqBgNVHREEIzAhgh9Nb25yb2VfTm9kZV8xLlBPTElUTy5tb25yb2Uu
b3JnMA0GCSqGSIb3DQEBBQUAA4ICAQBfDPr+c+HtfwTXiTPl7RQKfs6eshge1r8a
tC+hnt1s4nxTaOBbtDVecoUUxlecqTz6vEr96lO69irmcQrlHKa5zPdJhHyG+cFh
J4IIe+CPa8H0RTDQOeyKaDX4BkcK7WGTzuDQe2VQT0gQlSwed7cJnByB20obaqxG
1P3bRMHDSQfvGievdm24k2NiPQDcU5Hx8Y/zZA8bInqjFCdr5pO8uETx5x/Aq4P3
ScLPqK0N94tUod5Vd/KNnuJB6Gy9CVfNNHyKFpDc/ALBnHP7IAhGGwid2eXlr8lY
eO7J1riEr8zWiGPfqehmkteIbrn2NVlYcpd7nn61jEGp6LnAOHCx60Jxx+OwiaPV
ryof1rq0DZqnakTV8hGGHKKYFI3EaLP+9uuQblKd+LGjkcUN5VHKOzmy6TgcesoN
9lTqMCMCuhzmOw2pKe+iACnMB0ryqhkYPsqYBx5UUsAnHF19o1azqLDOokDgflCm
vGUZmN7E8bvlqUSsFtoc2+4+N9xfkenQFaAFi2L4LCD4eUGhC0/w78F6AZdQj328
nB3KABaVN4KwlOBMJM79v/z2ZI3DLi63eXxhQ12WOPahybXBlRlUpdaCbf2qWZvo
F8LoWLiZK8zHbKdDbhut546/dhOHIHHpwdw4qV1WoJ9jzVstsT0zgVKioYxkKUbW
FlaG/PY/hQ==
-----END CERTIFICATE-----
