Certificate:
    Data:
        Version: 3 (0x2)
        Serial Number: 23 (0x17)
    Signature Algorithm: sha1WithRSAEncryption
        Issuer: DC=org, DC=monroe, OU=Root-CA, CN=Root-CA-1
        Validity
            Not Before: Oct 15 14:17:06 2015 GMT
            Not After : Oct 14 14:17:06 2017 GMT
        Subject: DC=org, DC=monroe, O=POLITO, OU=Components, CN=Monroe_Node_1
        Subject Public Key Info:
            Public Key Algorithm: rsaEncryption
                Public-Key: (2048 bit)
                Modulus:
                    00:ac:77:79:00:42:11:1c:ba:a8:b4:f5:b0:5a:90:
                    e1:4c:ba:a3:ea:18:cd:46:56:3c:ef:c4:87:02:e1:
                    76:07:02:d9:5b:f8:23:d3:0e:b9:49:2e:79:48:83:
                    e7:4b:9d:c7:62:85:b9:75:05:93:ff:25:ef:4e:46:
                    cf:fd:cd:86:f2:df:15:b3:1b:d6:ce:e9:3e:38:ad:
                    97:a3:66:ff:5d:7b:12:f8:93:53:1b:88:10:c3:d5:
                    8a:79:a8:8c:46:6a:f9:7d:a2:95:32:26:95:3b:e5:
                    c3:ee:2c:77:48:a0:97:79:80:0c:86:8f:cd:67:af:
                    22:4d:b9:48:40:e6:fc:be:1f:7b:18:b3:b6:67:80:
                    66:5e:1c:3b:d1:51:4b:c9:98:4e:a8:2e:ce:e5:cd:
                    cb:93:df:df:ff:c5:73:a4:ac:8c:7e:04:62:2b:95:
                    29:ec:f0:5c:53:17:c2:6d:23:5e:44:a7:9b:41:06:
                    93:4b:06:87:b7:73:7a:ea:a7:a3:18:db:42:0c:a8:
                    19:24:c4:28:4f:b0:a1:91:0a:a3:a0:e3:62:dd:e1:
                    b9:e8:19:20:10:f1:3a:7a:fd:e0:43:09:d1:64:be:
                    42:f0:c9:3d:8a:09:1c:26:14:49:85:f9:fc:3e:45:
                    04:d4:87:98:cb:c3:53:47:a2:ea:d0:2e:8e:bf:37:
                    ea:23
                Exponent: 65537 (0x10001)
        X509v3 extensions:
            X509v3 Key Usage: critical
                Digital Signature, Key Encipherment
            X509v3 Basic Constraints: 
                CA:FALSE
            X509v3 Extended Key Usage: 
                TLS Web Server Authentication, TLS Web Client Authentication
            X509v3 Subject Key Identifier: 
                C6:C8:5B:A5:94:3F:8D:0C:04:25:01:99:A6:8B:44:22:E4:5F:B6:53
            X509v3 Authority Key Identifier: 
                keyid:D8:E8:1C:37:D0:D4:F7:24:2C:84:56:E0:17:0A:E7:23:A9:94:CA:94

            X509v3 Subject Alternative Name: 
                DNS:Monroe_Node_1.POLITO.monroe.org
    Signature Algorithm: sha1WithRSAEncryption
         91:29:e7:eb:22:00:d9:f0:e2:ba:a2:78:84:32:31:e8:44:b5:
         78:2b:76:eb:4a:5f:cf:23:44:20:69:46:e3:17:11:17:d9:f1:
         7e:07:5f:0a:18:34:02:b7:bf:9c:a6:31:9d:be:c2:a8:fd:70:
         08:6e:d5:0c:cf:08:dd:df:7f:9b:0b:3a:47:bc:f2:75:b8:1b:
         49:47:60:99:89:d6:c3:33:20:13:91:8b:ef:a1:5d:b4:60:82:
         df:23:47:6a:98:be:70:5c:46:8e:56:5d:b4:df:db:4b:43:d4:
         af:02:e6:af:37:78:78:bc:c5:47:87:a2:f3:1b:02:c1:72:a9:
         1c:61:cb:9e:93:62:57:5b:9b:eb:cd:8c:09:42:4f:8e:24:e9:
         04:8f:c5:7d:5b:90:b1:80:05:28:44:f2:b5:e6:c2:22:92:cf:
         d8:f3:b7:06:84:25:66:30:ad:be:5d:0e:56:ab:83:44:ce:87:
         a3:29:8a:18:4a:b3:60:19:14:56:2c:bc:ad:30:77:7f:f3:f8:
         f2:9e:c3:6e:fa:0c:3e:4f:a1:a6:45:f6:6b:0f:aa:36:65:01:
         2b:db:eb:33:5d:bf:23:35:4e:48:87:c8:66:7b:87:6d:b1:8f:
         df:bb:89:c2:2d:ae:b0:95:cf:8b:57:d4:93:46:b5:2f:8e:32:
         b2:88:e8:17:35:5f:db:6c:3b:11:fa:c7:25:02:ca:3f:e0:47:
         a3:dd:7f:30:80:c8:ee:93:79:2a:67:b1:2c:aa:df:4d:71:3c:
         66:f3:50:0f:53:6d:75:b0:1c:df:6b:8e:34:be:e6:ea:0c:68:
         80:07:38:53:02:82:3c:97:cf:71:17:42:36:a0:ec:2d:d1:fe:
         61:b6:34:f6:9a:6b:42:49:94:55:55:a2:77:57:c0:e8:14:6e:
         8d:8e:ba:e6:a4:7c:36:53:98:bf:b6:10:f3:cc:88:81:83:94:
         3b:e1:ef:9d:65:c3:f6:ed:a0:bb:75:7b:f5:12:43:5b:ee:8b:
         1a:1e:24:50:96:1d:c7:dd:d5:bf:d5:51:74:ae:40:be:a0:f5:
         61:7c:2e:ba:11:5b:aa:58:4f:af:93:87:2d:18:56:d2:06:c2:
         cb:8b:63:40:36:b1:41:b6:f9:ab:1f:cc:43:e6:c1:17:1e:84:
         22:29:ad:06:95:3c:f1:cb:b6:d8:26:e6:5d:12:47:9d:7b:9c:
         7b:a1:cb:ad:8d:5d:94:f0:8e:e0:83:ba:74:3d:74:02:e2:67:
         11:86:77:96:d6:90:bb:ad:89:6e:c4:7f:10:19:35:d4:44:ae:
         da:79:61:36:c2:7e:f9:3c:4d:85:53:e9:67:f2:21:07:d0:13:
         e7:cc:32:34:ee:fa:de:ec
-----BEGIN CERTIFICATE-----
MIIE4zCCAsugAwIBAgIBFzANBgkqhkiG9w0BAQUFADBTMRMwEQYKCZImiZPyLGQB
GRYDb3JnMRYwFAYKCZImiZPyLGQBGRYGbW9ucm9lMRAwDgYDVQQLDAdSb290LUNB
MRIwEAYDVQQDDAlSb290LUNBLTEwHhcNMTUxMDE1MTQxNzA2WhcNMTcxMDE0MTQx
NzA2WjBrMRMwEQYKCZImiZPyLGQBGRYDb3JnMRYwFAYKCZImiZPyLGQBGRYGbW9u
cm9lMQ8wDQYDVQQKDAZQT0xJVE8xEzARBgNVBAsMCkNvbXBvbmVudHMxFjAUBgNV
BAMMDU1vbnJvZV9Ob2RlXzEwggEiMA0GCSqGSIb3DQEBAQUAA4IBDwAwggEKAoIB
AQCsd3kAQhEcuqi09bBakOFMuqPqGM1GVjzvxIcC4XYHAtlb+CPTDrlJLnlIg+dL
ncdihbl1BZP/Je9ORs/9zYby3xWzG9bO6T44rZejZv9dexL4k1MbiBDD1Yp5qIxG
avl9opUyJpU75cPuLHdIoJd5gAyGj81nryJNuUhA5vy+H3sYs7ZngGZeHDvRUUvJ
mE6oLs7lzcuT39//xXOkrIx+BGIrlSns8FxTF8JtI15Ep5tBBpNLBoe3c3rqp6MY
20IMqBkkxChPsKGRCqOg42Ld4bnoGSAQ8Tp6/eBDCdFkvkLwyT2KCRwmFEmF+fw+
RQTUh5jLw1NHourQLo6/N+ojAgMBAAGjgakwgaYwDgYDVR0PAQH/BAQDAgWgMAkG
A1UdEwQCMAAwHQYDVR0lBBYwFAYIKwYBBQUHAwEGCCsGAQUFBwMCMB0GA1UdDgQW
BBTGyFullD+NDAQlAZmmi0Qi5F+2UzAfBgNVHSMEGDAWgBTY6Bw30NT3JCyEVuAX
CucjqZTKlDAqBgNVHREEIzAhgh9Nb25yb2VfTm9kZV8xLlBPTElUTy5tb25yb2Uu
b3JnMA0GCSqGSIb3DQEBBQUAA4ICAQCRKefrIgDZ8OK6oniEMjHoRLV4K3brSl/P
I0QgaUbjFxEX2fF+B18KGDQCt7+cpjGdvsKo/XAIbtUMzwjd33+bCzpHvPJ1uBtJ
R2CZidbDMyATkYvvoV20YILfI0dqmL5wXEaOVl2039tLQ9SvAuavN3h4vMVHh6Lz
GwLBcqkcYcuek2JXW5vrzYwJQk+OJOkEj8V9W5CxgAUoRPK15sIiks/Y87cGhCVm
MK2+XQ5Wq4NEzoejKYoYSrNgGRRWLLytMHd/8/jynsNu+gw+T6GmRfZrD6o2ZQEr
2+szXb8jNU5Ih8hme4dtsY/fu4nCLa6wlc+LV9STRrUvjjKyiOgXNV/bbDsR+scl
Aso/4Eej3X8wgMjuk3kqZ7Esqt9NcTxm81APU211sBzfa440vubqDGiABzhTAoI8
l89xF0I2oOwt0f5htjT2mmtCSZRVVaJ3V8DoFG6NjrrmpHw2U5i/thDzzIiBg5Q7
4e+dZcP27aC7dXv1EkNb7osaHiRQlh3H3dW/1VF0rkC+oPVhfC66EVuqWE+vk4ct
GFbSBsLLi2NANrFBtvmrH8xD5sEXHoQiKa0GlTzxy7bYJuZdEkede5x7ocutjV2U
8I7gg7p0PXQC4mcRhneW1pC7rYluxH8QGTXURK7aeWE2wn75PE2FU+ln8iEH0BPn
zDI07vre7A==
-----END CERTIFICATE-----
