Certificate:
    Data:
        Version: 3 (0x2)
        Serial Number: 24 (0x18)
    Signature Algorithm: sha1WithRSAEncryption
        Issuer: DC=org, DC=monroe, OU=Root-CA, CN=Root-CA-1
        Validity
            Not Before: Oct 15 14:17:39 2015 GMT
            Not After : Oct 14 14:17:39 2017 GMT
        Subject: DC=org, DC=monroe, O=POLITO, OU=Components, CN=Monroe_Node_1
        Subject Public Key Info:
            Public Key Algorithm: rsaEncryption
                Public-Key: (2048 bit)
                Modulus:
                    00:b7:d2:1a:cf:89:a6:ef:07:9d:ac:bb:b2:ea:50:
                    10:96:2a:7d:ef:3d:ab:57:22:eb:51:77:c3:2e:a8:
                    1e:78:6e:68:28:5c:cf:ac:fa:1d:8e:da:6b:44:fe:
                    89:28:bd:56:19:cc:6e:30:6c:b9:42:d7:63:6f:39:
                    77:a8:3d:d8:be:45:24:31:b8:77:a5:45:3b:ed:51:
                    1f:06:31:44:e7:6e:7c:f0:c5:b2:fc:6d:53:d0:23:
                    c7:ed:95:e7:48:f2:16:a4:59:26:2e:79:08:cd:65:
                    21:fd:14:7c:61:42:a7:4f:be:a3:3c:12:0f:9f:62:
                    9c:39:25:3b:34:cb:39:e8:7f:73:9e:15:12:9f:a2:
                    05:6d:06:9f:70:0c:45:5c:91:51:2f:12:e7:fd:ab:
                    76:3a:72:2c:d2:0c:a7:e3:b0:1c:b6:55:b0:e5:05:
                    67:d1:dd:d0:2f:49:32:43:17:e4:95:22:f5:b9:c4:
                    22:db:30:05:52:73:f5:5f:a0:fb:57:56:32:b3:88:
                    54:18:94:2d:6b:eb:ad:9f:9e:30:d3:b4:91:6e:6f:
                    18:86:c5:02:3b:7b:d3:8d:ed:ed:a6:e6:35:47:d7:
                    c6:1f:86:f5:b8:07:6e:3d:fa:8d:55:f4:8d:19:7e:
                    57:7b:ef:0e:84:2b:0b:10:7f:79:3e:91:9c:fd:40:
                    10:cd
                Exponent: 65537 (0x10001)
        X509v3 extensions:
            X509v3 Key Usage: critical
                Digital Signature, Key Encipherment
            X509v3 Basic Constraints: 
                CA:FALSE
            X509v3 Extended Key Usage: 
                TLS Web Server Authentication, TLS Web Client Authentication
            X509v3 Subject Key Identifier: 
                39:CC:07:86:9A:B2:84:3F:CA:8B:5E:A0:AD:D0:72:A1:EF:FE:0C:F5
            X509v3 Authority Key Identifier: 
                keyid:D8:E8:1C:37:D0:D4:F7:24:2C:84:56:E0:17:0A:E7:23:A9:94:CA:94

            X509v3 Subject Alternative Name: 
                DNS:Monroe_Node_1.POLITO.monroe.org
    Signature Algorithm: sha1WithRSAEncryption
         75:a3:47:71:33:7f:33:0c:1a:2e:a5:b2:f5:f9:e4:57:df:48:
         2d:0f:48:54:67:f4:97:c9:ea:53:87:e7:d8:d6:de:c6:83:1a:
         e7:cb:0d:18:bc:cf:39:b9:45:14:50:89:ca:86:d1:44:a0:d9:
         f3:b2:ed:26:01:84:21:a6:db:47:ae:d1:85:c3:5f:62:af:1d:
         4a:c3:97:e9:fc:63:53:15:e4:5b:a3:fe:8d:b3:5d:54:82:44:
         99:c8:0e:2f:59:6d:ad:a2:6c:e9:9f:3f:f6:66:2d:c1:5d:0f:
         44:d9:74:63:bd:bc:e0:47:17:43:55:21:9c:17:96:3f:14:6c:
         e9:18:ad:1d:a1:ca:cf:1d:2d:d9:48:c4:75:d7:96:5b:1c:64:
         d2:d1:8a:34:b8:55:54:54:11:ff:ea:ba:94:35:84:d2:ec:67:
         68:1d:e0:b8:f5:b5:82:a5:6a:35:2b:99:ca:47:14:a0:12:e3:
         d6:a2:19:91:76:83:b2:2b:97:93:8c:7f:2f:0b:a7:ab:d4:12:
         71:c4:1e:e5:c2:0e:40:f0:92:66:5b:3b:ed:5e:15:55:e2:b8:
         cb:9f:70:3f:7a:59:c5:43:2b:aa:ec:31:73:ff:1e:d5:75:bf:
         5b:45:fa:ac:f2:20:aa:51:13:2e:8c:e2:68:35:92:cd:11:c3:
         d7:e4:b5:44:a6:53:b7:0b:a7:fb:10:8b:bf:da:87:1a:ca:c1:
         32:8d:ad:a7:15:62:7f:cc:51:82:13:c4:7c:33:d0:a6:9c:79:
         79:49:79:81:25:ce:3b:b9:1d:2c:3e:de:04:f7:49:4c:78:de:
         8d:57:b9:f3:0b:8b:db:0f:8b:bd:b9:d7:76:db:f8:50:b7:4d:
         26:70:25:8d:22:c5:74:0e:fb:4a:b9:3b:99:2a:f0:1e:33:45:
         f2:9e:52:89:b1:9a:c7:df:47:d4:dc:4c:be:5b:77:99:67:e8:
         7f:67:ce:0c:6e:37:43:1a:c4:af:7e:90:d9:44:5f:8d:7a:a6:
         1e:a6:0c:92:c9:c5:a7:ff:a5:94:bd:cf:f7:71:3d:18:e1:53:
         e0:8c:33:1a:05:c6:0a:44:89:69:d2:fb:c5:2e:bb:92:87:12:
         de:73:fe:89:be:a0:e1:2e:99:61:03:a8:39:80:ed:bc:74:0a:
         23:2a:73:b2:38:79:a9:40:31:89:df:3b:f5:86:68:5a:02:25:
         ce:e7:ec:92:8e:d6:a2:83:df:41:89:83:3a:f1:eb:31:6b:d3:
         d3:6c:f0:cf:6f:49:a8:77:e0:89:2e:0e:e0:ca:7b:19:50:01:
         c4:2f:00:f1:63:bb:10:92:44:6c:0e:ef:b0:2a:58:77:fd:25:
         67:88:c4:36:97:e8:1a:48
-----BEGIN CERTIFICATE-----
MIIE4zCCAsugAwIBAgIBGDANBgkqhkiG9w0BAQUFADBTMRMwEQYKCZImiZPyLGQB
GRYDb3JnMRYwFAYKCZImiZPyLGQBGRYGbW9ucm9lMRAwDgYDVQQLDAdSb290LUNB
MRIwEAYDVQQDDAlSb290LUNBLTEwHhcNMTUxMDE1MTQxNzM5WhcNMTcxMDE0MTQx
NzM5WjBrMRMwEQYKCZImiZPyLGQBGRYDb3JnMRYwFAYKCZImiZPyLGQBGRYGbW9u
cm9lMQ8wDQYDVQQKDAZQT0xJVE8xEzARBgNVBAsMCkNvbXBvbmVudHMxFjAUBgNV
BAMMDU1vbnJvZV9Ob2RlXzEwggEiMA0GCSqGSIb3DQEBAQUAA4IBDwAwggEKAoIB
AQC30hrPiabvB52su7LqUBCWKn3vPatXIutRd8MuqB54bmgoXM+s+h2O2mtE/oko
vVYZzG4wbLlC12NvOXeoPdi+RSQxuHelRTvtUR8GMUTnbnzwxbL8bVPQI8ftledI
8hakWSYueQjNZSH9FHxhQqdPvqM8Eg+fYpw5JTs0yznof3OeFRKfogVtBp9wDEVc
kVEvEuf9q3Y6cizSDKfjsBy2VbDlBWfR3dAvSTJDF+SVIvW5xCLbMAVSc/VfoPtX
VjKziFQYlC1r662fnjDTtJFubxiGxQI7e9ON7e2m5jVH18YfhvW4B249+o1V9I0Z
fld77w6EKwsQf3k+kZz9QBDNAgMBAAGjgakwgaYwDgYDVR0PAQH/BAQDAgWgMAkG
A1UdEwQCMAAwHQYDVR0lBBYwFAYIKwYBBQUHAwEGCCsGAQUFBwMCMB0GA1UdDgQW
BBQ5zAeGmrKEP8qLXqCt0HKh7/4M9TAfBgNVHSMEGDAWgBTY6Bw30NT3JCyEVuAX
CucjqZTKlDAqBgNVHREEIzAhgh9Nb25yb2VfTm9kZV8xLlBPTElUTy5tb25yb2Uu
b3JnMA0GCSqGSIb3DQEBBQUAA4ICAQB1o0dxM38zDBoupbL1+eRX30gtD0hUZ/SX
yepTh+fY1t7Ggxrnyw0YvM85uUUUUInKhtFEoNnzsu0mAYQhpttHrtGFw19irx1K
w5fp/GNTFeRbo/6Ns11UgkSZyA4vWW2tomzpnz/2Zi3BXQ9E2XRjvbzgRxdDVSGc
F5Y/FGzpGK0docrPHS3ZSMR115ZbHGTS0Yo0uFVUVBH/6rqUNYTS7GdoHeC49bWC
pWo1K5nKRxSgEuPWohmRdoOyK5eTjH8vC6er1BJxxB7lwg5A8JJmWzvtXhVV4rjL
n3A/elnFQyuq7DFz/x7Vdb9bRfqs8iCqURMujOJoNZLNEcPX5LVEplO3C6f7EIu/
2ocaysEyja2nFWJ/zFGCE8R8M9CmnHl5SXmBJc47uR0sPt4E90lMeN6NV7nzC4vb
D4u9udd22/hQt00mcCWNIsV0DvtKuTuZKvAeM0XynlKJsZrH30fU3Ey+W3eZZ+h/
Z84MbjdDGsSvfpDZRF+NeqYepgySycWn/6WUvc/3cT0Y4VPgjDMaBcYKRIlp0vvF
LruShxLec/6JvqDhLplhA6g5gO28dAojKnOyOHmpQDGJ3zv1hmhaAiXO5+ySjtai
g99BiYM68esxa9PTbPDPb0mod+CJLg7gynsZUAHELwDxY7sQkkRsDu+wKlh3/SVn
iMQ2l+gaSA==
-----END CERTIFICATE-----
