Certificate:
    Data:
        Version: 3 (0x2)
        Serial Number: 25 (0x19)
    Signature Algorithm: sha1WithRSAEncryption
        Issuer: DC=org, DC=monroe, OU=Root-CA, CN=Root-CA-1
        Validity
            Not Before: Oct 15 14:23:38 2015 GMT
            Not After : Oct 14 14:23:38 2017 GMT
        Subject: DC=org, DC=monroe, O=POLITO, OU=Components, CN=Monroe_Node_1
        Subject Public Key Info:
            Public Key Algorithm: rsaEncryption
                Public-Key: (2048 bit)
                Modulus:
                    00:d7:f3:d7:d6:fd:72:e4:3a:84:e2:90:2b:26:ef:
                    8e:a5:3a:4a:6d:7c:80:b2:a8:60:16:f2:e4:6f:3b:
                    b1:0f:05:e0:9d:ba:f8:a6:3d:73:63:c1:d3:0a:bb:
                    11:91:3e:f8:7b:db:cb:c6:36:bc:bc:71:43:f1:4b:
                    07:59:bd:40:40:83:8b:8e:7d:c2:0f:60:a0:4a:cf:
                    77:99:e9:83:60:4a:7b:03:42:da:2b:92:21:cc:e0:
                    03:db:5a:1a:5f:65:7d:9b:6a:c5:51:f7:3a:c8:e3:
                    b9:1a:f1:b2:d9:00:2a:78:41:0f:d5:6b:72:f4:3f:
                    75:8c:d7:ea:ae:b2:88:82:6c:73:12:6b:20:89:56:
                    39:c7:57:cb:32:33:b7:b4:b0:75:75:8f:ac:6e:b2:
                    6b:62:42:77:d4:7d:9b:58:35:36:c6:d9:4a:94:e3:
                    a3:eb:39:2f:19:7a:10:73:24:6a:ec:e1:68:ec:39:
                    98:a7:d6:1c:04:39:37:5a:b8:1d:0a:18:5b:15:7c:
                    bf:b9:d3:1c:14:3d:bb:f2:62:83:b5:2c:d5:16:68:
                    d2:32:8c:88:35:09:e7:4a:a8:b8:34:b0:11:e2:27:
                    13:de:2f:24:f0:7a:9b:b1:24:8f:f0:ba:0b:54:99:
                    61:52:be:2e:88:77:0f:59:8c:24:93:3c:da:0d:d3:
                    50:89
                Exponent: 65537 (0x10001)
        X509v3 extensions:
            X509v3 Key Usage: critical
                Digital Signature, Key Encipherment
            X509v3 Basic Constraints: 
                CA:FALSE
            X509v3 Extended Key Usage: 
                TLS Web Server Authentication, TLS Web Client Authentication
            X509v3 Subject Key Identifier: 
                52:B0:56:17:81:4F:AA:57:12:30:47:BC:D7:6D:FA:27:3F:CD:4D:45
            X509v3 Authority Key Identifier: 
                keyid:D8:E8:1C:37:D0:D4:F7:24:2C:84:56:E0:17:0A:E7:23:A9:94:CA:94

            X509v3 Subject Alternative Name: 
                DNS:Monroe_Node_1.POLITO.monroe.org
    Signature Algorithm: sha1WithRSAEncryption
         2c:74:a1:ab:77:a8:e2:08:d3:6d:86:d9:c1:50:2a:ce:70:e5:
         e8:f3:9d:14:c2:a1:89:8a:08:02:bd:a5:c8:db:df:ab:29:47:
         96:d7:b0:62:3f:06:61:a7:a1:4a:c4:09:ab:ee:cb:ba:f1:b1:
         50:b8:7b:1c:36:97:a0:3b:56:b1:1b:0a:0e:a2:23:cb:ce:97:
         3d:bc:f3:95:55:2d:6d:e5:19:0c:00:cb:4b:97:34:f8:4d:59:
         23:6e:18:a3:d6:84:6b:fb:f6:e2:4a:c9:f9:31:ce:4a:7b:9d:
         49:e6:62:3b:0c:6c:13:49:d4:11:1f:e9:f1:5d:32:14:5c:b3:
         af:de:b9:5a:5f:b7:58:30:32:9f:a1:c2:09:fe:82:15:0c:47:
         53:67:28:a0:37:ae:77:77:d2:58:27:dc:ff:a9:b0:6e:2e:9d:
         dd:b6:20:01:02:d8:c2:55:d2:4d:c6:5e:b1:ca:94:6b:d3:e0:
         bd:50:0b:72:ad:9b:28:12:e1:15:14:c2:62:9c:a8:84:c8:ec:
         45:ab:d9:f5:3f:0e:6a:3a:0b:8f:54:fd:25:e1:5a:8a:93:ec:
         32:22:fb:fa:9a:cb:e9:8b:b5:b1:32:41:d0:3b:85:e1:1f:ce:
         d3:ac:9b:39:35:46:78:69:35:2d:d0:89:6e:29:f7:87:57:5c:
         67:9d:a5:c3:48:ee:66:28:46:b8:94:99:1c:87:2c:2a:9e:68:
         f2:93:04:2f:20:81:0b:12:c0:8b:7f:87:df:ce:be:c0:63:fd:
         30:be:61:ea:0d:eb:cd:ce:ed:8e:d8:91:2e:42:90:06:cc:aa:
         a2:9c:00:2c:70:ce:7f:74:40:24:70:b2:34:df:e0:68:9e:35:
         4d:98:f1:74:84:1c:d5:44:a8:8a:54:75:44:60:02:c8:cb:f3:
         99:f1:ff:69:e3:9c:0c:75:6f:a8:7a:83:42:88:0e:5a:da:e0:
         df:5c:91:bb:7d:e5:e8:bf:a9:ea:62:d6:4a:b1:8d:ca:7d:17:
         31:26:16:9d:42:15:01:79:9f:b8:c0:39:af:5c:6d:9c:f4:41:
         4b:c1:28:b9:7d:dc:be:b1:21:21:9f:52:75:3b:b8:b0:76:32:
         8c:49:80:6e:89:d7:1a:3a:f4:fe:73:fb:bb:79:d5:cd:2b:8c:
         4f:44:84:1a:b3:f9:6b:95:6e:61:9d:bc:17:85:75:45:4b:85:
         b8:83:cd:62:43:fd:26:56:37:f9:74:b6:82:38:ec:10:db:c4:
         03:00:67:73:59:bf:81:4c:89:f0:17:df:17:8d:f2:70:b2:2e:
         ae:5b:2f:6b:85:52:5c:f4:7e:d8:1b:ac:b9:25:51:80:a6:a7:
         4f:37:08:64:28:31:27:63
-----BEGIN CERTIFICATE-----
MIIE4zCCAsugAwIBAgIBGTANBgkqhkiG9w0BAQUFADBTMRMwEQYKCZImiZPyLGQB
GRYDb3JnMRYwFAYKCZImiZPyLGQBGRYGbW9ucm9lMRAwDgYDVQQLDAdSb290LUNB
MRIwEAYDVQQDDAlSb290LUNBLTEwHhcNMTUxMDE1MTQyMzM4WhcNMTcxMDE0MTQy
MzM4WjBrMRMwEQYKCZImiZPyLGQBGRYDb3JnMRYwFAYKCZImiZPyLGQBGRYGbW9u
cm9lMQ8wDQYDVQQKDAZQT0xJVE8xEzARBgNVBAsMCkNvbXBvbmVudHMxFjAUBgNV
BAMMDU1vbnJvZV9Ob2RlXzEwggEiMA0GCSqGSIb3DQEBAQUAA4IBDwAwggEKAoIB
AQDX89fW/XLkOoTikCsm746lOkptfICyqGAW8uRvO7EPBeCduvimPXNjwdMKuxGR
Pvh728vGNry8cUPxSwdZvUBAg4uOfcIPYKBKz3eZ6YNgSnsDQtorkiHM4APbWhpf
ZX2basVR9zrI47ka8bLZACp4QQ/Va3L0P3WM1+qusoiCbHMSayCJVjnHV8syM7e0
sHV1j6xusmtiQnfUfZtYNTbG2UqU46PrOS8ZehBzJGrs4WjsOZin1hwEOTdauB0K
GFsVfL+50xwUPbvyYoO1LNUWaNIyjIg1CedKqLg0sBHiJxPeLyTwepuxJI/wugtU
mWFSvi6Idw9ZjCSTPNoN01CJAgMBAAGjgakwgaYwDgYDVR0PAQH/BAQDAgWgMAkG
A1UdEwQCMAAwHQYDVR0lBBYwFAYIKwYBBQUHAwEGCCsGAQUFBwMCMB0GA1UdDgQW
BBRSsFYXgU+qVxIwR7zXbfonP81NRTAfBgNVHSMEGDAWgBTY6Bw30NT3JCyEVuAX
CucjqZTKlDAqBgNVHREEIzAhgh9Nb25yb2VfTm9kZV8xLlBPTElUTy5tb25yb2Uu
b3JnMA0GCSqGSIb3DQEBBQUAA4ICAQAsdKGrd6jiCNNthtnBUCrOcOXo850UwqGJ
iggCvaXI29+rKUeW17BiPwZhp6FKxAmr7su68bFQuHscNpegO1axGwoOoiPLzpc9
vPOVVS1t5RkMAMtLlzT4TVkjbhij1oRr+/biSsn5Mc5Ke51J5mI7DGwTSdQRH+nx
XTIUXLOv3rlaX7dYMDKfocIJ/oIVDEdTZyigN653d9JYJ9z/qbBuLp3dtiABAtjC
VdJNxl6xypRr0+C9UAtyrZsoEuEVFMJinKiEyOxFq9n1Pw5qOguPVP0l4VqKk+wy
Ivv6msvpi7WxMkHQO4XhH87TrJs5NUZ4aTUt0IluKfeHV1xnnaXDSO5mKEa4lJkc
hywqnmjykwQvIIELEsCLf4ffzr7AY/0wvmHqDevNzu2O2JEuQpAGzKqinAAscM5/
dEAkcLI03+BonjVNmPF0hBzVRKiKVHVEYALIy/OZ8f9p45wMdW+oeoNCiA5a2uDf
XJG7feXov6nqYtZKsY3KfRcxJhadQhUBeZ+4wDmvXG2c9EFLwSi5fdy+sSEhn1J1
O7iwdjKMSYBuidcaOvT+c/u7edXNK4xPRIQas/lrlW5hnbwXhXVFS4W4g81iQ/0m
Vjf5dLaCOOwQ28QDAGdzWb+BTInwF98XjfJwsi6uWy9rhVJc9H7YG6y5JVGApqdP
NwhkKDEnYw==
-----END CERTIFICATE-----
