Certificate:
    Data:
        Version: 3 (0x2)
        Serial Number: 26 (0x1a)
    Signature Algorithm: sha1WithRSAEncryption
        Issuer: DC=org, DC=monroe, OU=Root-CA, CN=Root-CA-1
        Validity
            Not Before: Oct 15 14:24:40 2015 GMT
            Not After : Oct 14 14:24:40 2017 GMT
        Subject: DC=org, DC=monroe, O=POLITO, OU=Components, CN=Monroe_Node_1
        Subject Public Key Info:
            Public Key Algorithm: rsaEncryption
                Public-Key: (2048 bit)
                Modulus:
                    00:c1:ed:ab:41:4f:1c:87:c2:e5:5e:e5:7d:31:52:
                    79:4d:0c:10:5b:dc:15:7a:71:bc:53:6c:b9:1d:bf:
                    81:2a:ef:32:1c:ea:4f:bb:fc:1e:c7:58:33:f6:75:
                    fb:93:a8:b8:d4:0a:f0:39:36:5b:48:7d:b1:be:ed:
                    13:b1:02:8d:16:06:b2:a9:2f:a0:d3:e6:a6:df:c9:
                    46:1d:a5:72:48:8b:ad:17:03:12:f2:19:74:99:f4:
                    8f:d3:95:78:f1:75:de:6b:f5:8b:8c:98:75:63:c5:
                    6e:dc:a2:92:e0:0c:70:44:04:d6:93:0a:f2:9d:16:
                    82:64:f2:4a:84:2d:be:57:8d:c9:bb:c9:25:42:1d:
                    6a:2f:bc:fd:bc:c1:26:9e:f9:ba:3d:00:91:99:e0:
                    49:25:d0:30:a0:74:b8:80:42:4d:9a:2f:0e:9c:76:
                    59:d5:18:e6:f4:b2:78:2e:e4:34:11:c4:74:f3:b3:
                    29:ac:16:73:72:bb:32:86:03:6e:38:4e:28:a2:74:
                    9e:a1:2d:0e:b2:c7:69:f4:d2:41:bc:f8:e6:b9:65:
                    09:6b:d1:5e:bf:12:43:f1:cc:f9:63:fa:21:e9:2b:
                    69:97:87:39:b7:5d:22:c8:87:d7:5f:23:cc:32:35:
                    77:0b:4e:ca:02:bf:50:66:12:ba:5c:1e:2a:a8:9c:
                    6b:7f
                Exponent: 65537 (0x10001)
        X509v3 extensions:
            X509v3 Key Usage: critical
                Digital Signature, Key Encipherment
            X509v3 Basic Constraints: 
                CA:FALSE
            X509v3 Extended Key Usage: 
                TLS Web Server Authentication, TLS Web Client Authentication
            X509v3 Subject Key Identifier: 
                11:5F:80:D8:AA:AF:3A:C1:44:79:ED:22:08:1A:3B:CD:5E:06:8C:55
            X509v3 Authority Key Identifier: 
                keyid:D8:E8:1C:37:D0:D4:F7:24:2C:84:56:E0:17:0A:E7:23:A9:94:CA:94

            X509v3 Subject Alternative Name: 
                DNS:Monroe_Node_1.POLITO.monroe.org
    Signature Algorithm: sha1WithRSAEncryption
         89:2c:17:d1:c9:84:e1:ea:b2:ed:16:94:30:92:3c:86:92:53:
         7c:98:d7:fb:11:f5:2a:75:d8:88:47:f0:cb:30:de:64:84:33:
         0a:e1:1a:97:85:a7:df:89:17:82:cb:cd:de:62:b9:dd:53:17:
         de:f4:89:dc:ca:f6:7b:90:17:98:af:36:e4:40:7c:33:6b:77:
         8a:dc:24:d2:06:1a:ab:c1:78:3c:b7:b9:f8:20:52:e0:fa:52:
         dc:cc:94:23:35:8d:b8:6b:f2:a1:00:40:f0:fe:41:6b:d5:a3:
         77:2f:bb:71:44:c9:6b:ba:6f:43:dd:41:48:14:58:1c:d5:2d:
         cd:2c:8a:3c:df:e6:78:84:c2:11:23:72:7c:5a:c5:85:31:71:
         40:66:03:40:6a:ea:49:4d:2e:df:1f:65:24:0a:12:d6:2c:2b:
         5c:6d:34:05:87:2c:46:cf:49:a5:ed:f9:8e:59:a1:d7:c9:9b:
         55:ab:83:ae:db:b0:24:37:c2:2f:9b:7e:9b:08:9b:02:c6:b6:
         4a:d4:7b:9f:69:d3:6c:85:53:06:75:59:96:da:44:55:61:99:
         e8:7a:e8:c0:cc:f1:5e:ae:b4:85:2e:68:6c:ce:10:64:a4:08:
         05:8d:45:38:a8:12:38:cd:09:02:78:61:83:9a:49:c7:bd:85:
         8e:85:29:63:ea:1d:b3:9e:fd:72:22:ad:91:1c:da:ba:e5:84:
         10:3b:aa:9a:fd:7e:8f:46:4b:75:27:ff:b0:6f:e9:25:95:d3:
         bb:b3:e3:da:26:3f:a1:e6:29:af:b3:2f:78:eb:80:9b:dd:d0:
         9b:67:81:7b:0f:10:77:ba:1a:ff:c7:ce:ac:4b:92:7e:78:ef:
         7a:fc:dd:92:2c:16:ec:70:70:63:f9:3c:1b:a5:96:c1:54:08:
         99:5f:c8:e9:d8:94:06:2b:2e:61:f2:aa:b3:36:98:30:d2:c4:
         0b:2b:b4:26:c8:20:e5:6a:fc:83:d2:9b:8f:74:56:86:60:1e:
         20:74:c7:8f:3b:d3:cc:40:9b:ff:4c:3b:ed:75:ab:a3:88:e3:
         3c:e8:4f:94:5b:be:7b:40:08:48:93:be:c6:3b:20:69:13:d6:
         f7:7f:dd:86:44:28:c6:99:85:01:b7:ab:a5:8d:33:ca:fd:e7:
         ae:f8:73:d2:d4:8a:4e:46:cc:29:4b:05:2d:80:f3:bf:e8:91:
         74:ab:07:d9:47:74:c1:a0:d6:1b:fc:55:aa:0a:dc:fc:14:e4:
         6d:3e:d8:d5:59:02:59:31:ad:e0:08:8c:80:59:c0:60:f5:80:
         a9:9d:1d:df:3e:84:2a:65:29:96:fa:43:f7:3c:c7:f6:ab:9c:
         5c:07:87:a3:ab:03:d0:90
-----BEGIN CERTIFICATE-----
MIIE4zCCAsugAwIBAgIBGjANBgkqhkiG9w0BAQUFADBTMRMwEQYKCZImiZPyLGQB
GRYDb3JnMRYwFAYKCZImiZPyLGQBGRYGbW9ucm9lMRAwDgYDVQQLDAdSb290LUNB
MRIwEAYDVQQDDAlSb290LUNBLTEwHhcNMTUxMDE1MTQyNDQwWhcNMTcxMDE0MTQy
NDQwWjBrMRMwEQYKCZImiZPyLGQBGRYDb3JnMRYwFAYKCZImiZPyLGQBGRYGbW9u
cm9lMQ8wDQYDVQQKDAZQT0xJVE8xEzARBgNVBAsMCkNvbXBvbmVudHMxFjAUBgNV
BAMMDU1vbnJvZV9Ob2RlXzEwggEiMA0GCSqGSIb3DQEBAQUAA4IBDwAwggEKAoIB
AQDB7atBTxyHwuVe5X0xUnlNDBBb3BV6cbxTbLkdv4Eq7zIc6k+7/B7HWDP2dfuT
qLjUCvA5NltIfbG+7ROxAo0WBrKpL6DT5qbfyUYdpXJIi60XAxLyGXSZ9I/TlXjx
dd5r9YuMmHVjxW7copLgDHBEBNaTCvKdFoJk8kqELb5Xjcm7ySVCHWovvP28wSae
+bo9AJGZ4Ekl0DCgdLiAQk2aLw6cdlnVGOb0sngu5DQRxHTzsymsFnNyuzKGA244
TiiidJ6hLQ6yx2n00kG8+Oa5ZQlr0V6/EkPxzPlj+iHpK2mXhzm3XSLIh9dfI8wy
NXcLTsoCv1BmErpcHiqonGt/AgMBAAGjgakwgaYwDgYDVR0PAQH/BAQDAgWgMAkG
A1UdEwQCMAAwHQYDVR0lBBYwFAYIKwYBBQUHAwEGCCsGAQUFBwMCMB0GA1UdDgQW
BBQRX4DYqq86wUR57SIIGjvNXgaMVTAfBgNVHSMEGDAWgBTY6Bw30NT3JCyEVuAX
CucjqZTKlDAqBgNVHREEIzAhgh9Nb25yb2VfTm9kZV8xLlBPTElUTy5tb25yb2Uu
b3JnMA0GCSqGSIb3DQEBBQUAA4ICAQCJLBfRyYTh6rLtFpQwkjyGklN8mNf7EfUq
ddiIR/DLMN5khDMK4RqXhaffiReCy83eYrndUxfe9IncyvZ7kBeYrzbkQHwza3eK
3CTSBhqrwXg8t7n4IFLg+lLczJQjNY24a/KhAEDw/kFr1aN3L7txRMlrum9D3UFI
FFgc1S3NLIo83+Z4hMIRI3J8WsWFMXFAZgNAaupJTS7fH2UkChLWLCtcbTQFhyxG
z0ml7fmOWaHXyZtVq4Ou27AkN8Ivm36bCJsCxrZK1HufadNshVMGdVmW2kRVYZno
eujAzPFerrSFLmhszhBkpAgFjUU4qBI4zQkCeGGDmknHvYWOhSlj6h2znv1yIq2R
HNq65YQQO6qa/X6PRkt1J/+wb+klldO7s+PaJj+h5imvsy9464Cb3dCbZ4F7DxB3
uhr/x86sS5J+eO96/N2SLBbscHBj+TwbpZbBVAiZX8jp2JQGKy5h8qqzNpgw0sQL
K7QmyCDlavyD0puPdFaGYB4gdMePO9PMQJv/TDvtdaujiOM86E+UW757QAhIk77G
OyBpE9b3f92GRCjGmYUBt6uljTPK/eeu+HPS1IpORswpSwUtgPO/6JF0qwfZR3TB
oNYb/FWqCtz8FORtPtjVWQJZMa3gCIyAWcBg9YCpnR3fPoQqZSmW+kP3PMf2q5xc
B4ejqwPQkA==
-----END CERTIFICATE-----
