Certificate:
    Data:
        Version: 3 (0x2)
        Serial Number: 27 (0x1b)
    Signature Algorithm: sha1WithRSAEncryption
        Issuer: DC=org, DC=monroe, OU=Root-CA, CN=Root-CA-1
        Validity
            Not Before: Oct 15 14:25:23 2015 GMT
            Not After : Oct 14 14:25:23 2017 GMT
        Subject: DC=org, DC=monroe, O=POLITO, OU=Components, CN=Monroe_Node_1
        Subject Public Key Info:
            Public Key Algorithm: rsaEncryption
                Public-Key: (2048 bit)
                Modulus:
                    00:bb:d3:a6:7f:7f:ce:38:79:ae:33:c2:fc:27:73:
                    b1:51:ba:d0:ac:89:f9:01:a5:0a:e7:75:72:78:9a:
                    00:06:1b:49:02:6f:ad:f7:01:14:99:a6:4a:66:36:
                    1c:e7:88:6a:c3:69:3b:10:9f:cf:53:26:9e:9a:cd:
                    43:78:fa:4b:b8:8c:39:71:9f:6d:17:4e:c1:29:4a:
                    7b:72:d8:08:90:ef:6e:72:ef:b5:5e:46:1b:a1:3f:
                    ec:7f:79:fe:82:48:e9:ba:0f:2b:07:ca:02:58:13:
                    c6:ec:14:55:8c:90:54:32:ad:4f:6c:56:3e:5d:b4:
                    f6:a0:a2:be:5b:ca:56:76:d3:ff:f1:ff:bb:47:a2:
                    9d:55:8a:20:ad:5c:01:ea:3e:ac:73:6a:c6:a4:e9:
                    7e:be:01:d7:0d:50:95:c4:41:5a:73:1d:ad:0a:c3:
                    e7:8d:ef:6a:7d:21:f0:51:d7:63:50:d5:2b:9d:22:
                    4a:a9:25:53:6b:ed:67:0a:f2:8d:99:7e:57:3e:fc:
                    1d:b7:7a:c1:65:22:2b:7f:f8:73:1b:8b:89:6c:74:
                    ec:bb:10:2b:4b:21:68:03:06:2d:63:b4:49:c8:0c:
                    cc:a2:98:1d:82:72:9b:04:52:e3:91:d8:db:22:24:
                    7a:f4:63:ba:e2:0b:f9:67:25:79:67:16:81:69:dc:
                    21:53
                Exponent: 65537 (0x10001)
        X509v3 extensions:
            X509v3 Key Usage: critical
                Digital Signature, Key Encipherment
            X509v3 Basic Constraints: 
                CA:FALSE
            X509v3 Extended Key Usage: 
                TLS Web Server Authentication, TLS Web Client Authentication
            X509v3 Subject Key Identifier: 
                6F:3D:21:1D:FA:2D:D5:68:78:A5:CF:64:35:CE:85:90:E7:23:9B:03
            X509v3 Authority Key Identifier: 
                keyid:D8:E8:1C:37:D0:D4:F7:24:2C:84:56:E0:17:0A:E7:23:A9:94:CA:94

            X509v3 Subject Alternative Name: 
                DNS:Monroe_Node_1.POLITO.monroe.org
    Signature Algorithm: sha1WithRSAEncryption
         29:c7:bd:e5:af:26:4a:4e:cd:4e:4b:1b:ba:e3:d4:df:2e:8a:
         63:b2:38:41:6a:70:23:aa:4d:7f:89:c5:4b:e2:4e:67:e0:26:
         a5:d6:24:ef:c5:48:cd:f5:3f:1f:c7:54:80:be:c4:72:ce:b2:
         30:de:5e:d9:d4:5b:bb:c4:d8:70:2b:db:d5:1e:16:53:62:f5:
         a9:75:61:27:2d:c3:c5:c2:db:14:5f:50:70:e3:f5:be:74:50:
         4c:95:36:f5:8a:5f:1c:11:32:89:02:d8:8e:dd:1a:02:fc:79:
         ad:67:6f:a2:85:b8:cd:7c:33:71:05:f7:a6:2d:30:b8:fe:e3:
         2d:43:43:ee:7b:54:00:02:48:5b:a6:22:cd:1d:7c:0f:9b:96:
         37:dc:39:38:e8:ec:11:0b:6e:aa:0b:9a:85:e6:ab:a7:df:83:
         50:17:0f:58:f3:50:8f:a5:47:21:b1:cb:bb:29:5d:f6:ed:b9:
         0c:42:26:ea:0b:5c:10:cd:e7:7b:6a:e0:bc:b9:5e:18:12:ce:
         ac:bb:6e:9d:a8:26:e1:11:d8:08:d8:1b:a2:f2:66:0d:31:85:
         8d:4b:df:c6:0e:60:f1:c0:9a:0f:ad:2c:08:53:90:7a:67:3c:
         c6:f0:06:27:1f:7b:55:20:01:5c:3a:74:e5:a1:5d:cb:6c:8d:
         44:67:fb:86:f2:eb:12:d6:87:05:0c:19:db:c8:21:2d:cb:2e:
         34:97:73:6f:fc:a7:5a:4b:f9:42:64:94:e9:72:9c:19:03:d7:
         ec:b3:dd:49:1a:b9:ec:fc:01:e5:57:a1:77:c4:33:9b:74:cb:
         ad:4d:18:66:03:c4:af:35:78:0e:f4:08:a1:44:98:63:a7:1a:
         30:c3:b3:e2:c3:33:52:a5:29:69:01:32:a2:4e:fb:69:2f:69:
         3c:4d:34:11:cc:d7:b5:dc:63:a4:7d:37:fa:b6:48:d3:d2:b9:
         fe:e9:f4:a1:b3:0c:96:5f:52:a6:0e:7f:4b:85:84:c2:71:88:
         39:ab:e6:19:77:f1:16:1f:bf:7d:1e:e1:94:6f:82:35:30:3d:
         b1:b4:c6:be:e0:32:ce:5a:92:39:41:c3:56:11:08:55:ab:18:
         9d:3c:75:f4:b5:2f:4f:25:5b:2f:04:77:27:ea:a3:82:9e:fd:
         a5:45:ba:1a:c8:5e:3d:3f:80:69:c8:9c:17:b7:42:35:a2:25:
         ef:e2:44:2e:77:f0:e3:40:5c:ad:53:37:05:4b:38:6c:17:13:
         35:08:36:50:36:be:1f:49:8b:0f:71:c3:7e:3b:89:2e:a1:c6:
         f7:57:92:68:7c:74:60:9d:23:a5:e8:52:20:eb:65:0e:0b:78:
         08:db:6a:1c:dc:14:a3:3d
-----BEGIN CERTIFICATE-----
MIIE4zCCAsugAwIBAgIBGzANBgkqhkiG9w0BAQUFADBTMRMwEQYKCZImiZPyLGQB
GRYDb3JnMRYwFAYKCZImiZPyLGQBGRYGbW9ucm9lMRAwDgYDVQQLDAdSb290LUNB
MRIwEAYDVQQDDAlSb290LUNBLTEwHhcNMTUxMDE1MTQyNTIzWhcNMTcxMDE0MTQy
NTIzWjBrMRMwEQYKCZImiZPyLGQBGRYDb3JnMRYwFAYKCZImiZPyLGQBGRYGbW9u
cm9lMQ8wDQYDVQQKDAZQT0xJVE8xEzARBgNVBAsMCkNvbXBvbmVudHMxFjAUBgNV
BAMMDU1vbnJvZV9Ob2RlXzEwggEiMA0GCSqGSIb3DQEBAQUAA4IBDwAwggEKAoIB
AQC706Z/f844ea4zwvwnc7FRutCsifkBpQrndXJ4mgAGG0kCb633ARSZpkpmNhzn
iGrDaTsQn89TJp6azUN4+ku4jDlxn20XTsEpSnty2AiQ725y77VeRhuhP+x/ef6C
SOm6DysHygJYE8bsFFWMkFQyrU9sVj5dtPagor5bylZ20//x/7tHop1ViiCtXAHq
Pqxzasak6X6+AdcNUJXEQVpzHa0Kw+eN72p9IfBR12NQ1SudIkqpJVNr7WcK8o2Z
flc+/B23esFlIit/+HMbi4lsdOy7ECtLIWgDBi1jtEnIDMyimB2CcpsEUuOR2Nsi
JHr0Y7riC/lnJXlnFoFp3CFTAgMBAAGjgakwgaYwDgYDVR0PAQH/BAQDAgWgMAkG
A1UdEwQCMAAwHQYDVR0lBBYwFAYIKwYBBQUHAwEGCCsGAQUFBwMCMB0GA1UdDgQW
BBRvPSEd+i3VaHilz2Q1zoWQ5yObAzAfBgNVHSMEGDAWgBTY6Bw30NT3JCyEVuAX
CucjqZTKlDAqBgNVHREEIzAhgh9Nb25yb2VfTm9kZV8xLlBPTElUTy5tb25yb2Uu
b3JnMA0GCSqGSIb3DQEBBQUAA4ICAQApx73lryZKTs1OSxu649TfLopjsjhBanAj
qk1/icVL4k5n4Cal1iTvxUjN9T8fx1SAvsRyzrIw3l7Z1Fu7xNhwK9vVHhZTYvWp
dWEnLcPFwtsUX1Bw4/W+dFBMlTb1il8cETKJAtiO3RoC/HmtZ2+ihbjNfDNxBfem
LTC4/uMtQ0Pue1QAAkhbpiLNHXwPm5Y33Dk46OwRC26qC5qF5qun34NQFw9Y81CP
pUchscu7KV327bkMQibqC1wQzed7auC8uV4YEs6su26dqCbhEdgI2Bui8mYNMYWN
S9/GDmDxwJoPrSwIU5B6ZzzG8AYnH3tVIAFcOnTloV3LbI1EZ/uG8usS1ocFDBnb
yCEtyy40l3Nv/KdaS/lCZJTpcpwZA9fss91JGrns/AHlV6F3xDObdMutTRhmA8Sv
NXgO9AihRJhjpxoww7PiwzNSpSlpATKiTvtpL2k8TTQRzNe13GOkfTf6tkjT0rn+
6fShswyWX1KmDn9LhYTCcYg5q+YZd/EWH799HuGUb4I1MD2xtMa+4DLOWpI5QcNW
EQhVqxidPHX0tS9PJVsvBHcn6qOCnv2lRboayF49P4BpyJwXt0I1oiXv4kQud/Dj
QFytUzcFSzhsFxM1CDZQNr4fSYsPccN+O4kuocb3V5JofHRgnSOl6FIg62UOC3gI
22oc3BSjPQ==
-----END CERTIFICATE-----
