Certificate:
    Data:
        Version: 3 (0x2)
        Serial Number: 28 (0x1c)
    Signature Algorithm: sha1WithRSAEncryption
        Issuer: DC=org, DC=monroe, OU=Root-CA, CN=Root-CA-1
        Validity
            Not Before: Oct 15 14:29:09 2015 GMT
            Not After : Oct 14 14:29:09 2017 GMT
        Subject: DC=org, DC=monroe, O=POLITO, OU=Components, CN=Monroe_Node_1
        Subject Public Key Info:
            Public Key Algorithm: rsaEncryption
                Public-Key: (2048 bit)
                Modulus:
                    00:ef:f4:57:7b:16:71:0f:25:73:09:bd:35:3f:08:
                    fd:b2:e9:6f:1e:93:66:5e:22:04:56:5b:ec:53:cc:
                    e8:05:d1:83:39:9c:a4:ff:e4:7d:44:4f:a6:5f:ea:
                    0b:bc:31:b9:4c:e4:b2:fe:6c:d6:60:86:a7:49:5b:
                    fe:44:0e:d6:a8:b6:c2:67:46:3d:cc:b7:52:c3:a9:
                    e8:b0:c7:7f:d0:89:29:6e:76:79:ad:61:4a:3f:ae:
                    e9:9d:a8:72:bc:34:11:de:c8:52:a6:49:85:bb:3a:
                    46:e7:dd:2f:fe:e4:1c:e4:c3:e6:57:a1:1c:05:9f:
                    ea:a9:06:88:75:ab:81:ed:51:97:2e:de:75:ff:92:
                    7b:01:be:66:ee:c1:2e:9c:c5:61:75:c1:61:01:34:
                    20:e0:70:40:c0:7d:a2:b3:47:fc:9a:31:24:03:2b:
                    c9:31:7e:a8:86:8a:37:72:b1:46:04:09:19:90:10:
                    be:38:84:de:25:11:65:ad:69:fd:14:e0:9c:2c:0f:
                    7c:16:d9:84:be:91:e4:79:6c:8c:e4:df:54:fd:fe:
                    a5:f6:45:1f:db:bc:79:de:8d:23:0d:f2:6f:a4:06:
                    18:b7:f4:c6:22:93:d8:55:55:10:42:2e:86:e9:1d:
                    6f:d8:8c:9f:5e:5f:e2:86:df:2c:61:4f:f8:15:91:
                    84:7d
                Exponent: 65537 (0x10001)
        X509v3 extensions:
            X509v3 Key Usage: critical
                Digital Signature, Key Encipherment
            X509v3 Basic Constraints: 
                CA:FALSE
            X509v3 Extended Key Usage: 
                TLS Web Server Authentication, TLS Web Client Authentication
            X509v3 Subject Key Identifier: 
                DB:E9:47:C2:8D:8E:A9:84:60:09:35:F9:CB:C0:CE:64:F2:4A:DC:6E
            X509v3 Authority Key Identifier: 
                keyid:D8:E8:1C:37:D0:D4:F7:24:2C:84:56:E0:17:0A:E7:23:A9:94:CA:94

            X509v3 Subject Alternative Name: 
                DNS:Monroe_Node_1.POLITO.monroe.org
    Signature Algorithm: sha1WithRSAEncryption
         2c:15:27:f6:77:2c:56:10:bb:bb:5d:3f:a0:ad:dc:25:5a:13:
         34:ef:0a:2f:fa:63:be:87:34:c3:07:be:ef:b8:e4:02:57:50:
         3b:79:6f:2c:23:4c:0e:6e:1a:7b:2c:2b:9f:87:69:48:18:22:
         cd:6b:2e:9d:e5:03:92:b0:52:7c:22:bd:eb:cb:d8:4a:f6:0c:
         a1:1e:4c:b2:08:86:12:74:3c:24:02:00:fe:fb:d6:7b:4b:f2:
         01:76:20:fa:1b:02:cd:15:bd:1c:fb:53:0e:f8:b3:2d:03:ae:
         97:a3:74:56:34:f3:48:56:54:50:f5:79:64:97:7a:6a:39:a8:
         14:32:42:c9:df:e3:2b:cb:0f:2d:07:7a:8e:66:39:13:8d:5c:
         e2:03:90:e3:ce:9b:ec:1d:e1:1e:2d:58:04:11:d8:9f:5c:f4:
         ed:a1:1a:b6:00:55:2a:e1:7c:21:6f:16:0c:b2:01:ae:9b:5f:
         ec:b8:98:29:56:91:6f:dd:de:e8:9f:8d:5e:a3:a7:68:fb:7d:
         ee:dc:e3:9e:7d:76:39:c0:99:35:85:0c:62:43:e4:b0:ac:28:
         04:ce:80:0d:1a:e3:62:35:59:ae:d1:1f:72:bc:ec:b3:5a:4a:
         12:0e:4c:42:c7:5d:71:21:43:bd:9e:39:b8:db:ff:21:d7:7c:
         83:40:83:34:97:41:b9:2c:63:5c:30:da:cc:5e:4b:71:ea:35:
         67:1e:72:01:1f:43:0a:40:4d:f4:e9:39:11:1f:b8:b3:51:45:
         06:53:70:a8:29:62:80:0a:b8:0e:09:f6:48:9c:df:57:ae:1a:
         2c:3c:83:d2:bb:1b:3a:e2:df:7f:76:ed:de:b9:57:f6:90:4b:
         cc:13:d5:b7:21:ee:ed:e7:21:e3:0d:af:6d:34:7c:be:bc:15:
         a0:ae:65:de:a9:29:f0:49:70:5d:ff:af:7b:c8:9e:4b:92:93:
         07:d3:22:e4:b5:d4:a5:a3:95:a4:9c:f3:52:8f:29:4b:96:50:
         55:52:6c:a3:2f:99:e8:1b:f3:58:e9:fb:fc:ba:23:a8:f2:7c:
         24:7a:94:db:c7:18:ab:58:f7:0f:70:01:2e:c5:b9:0e:08:88:
         2b:2c:98:82:e7:5c:e4:b6:f4:44:3e:1e:d0:bf:1e:b1:a4:c5:
         ff:c7:25:8b:96:46:3a:8b:00:3e:d9:8b:d5:09:6f:4d:e9:65:
         da:0b:31:69:e7:1f:03:b2:66:ea:ee:19:e4:ca:89:60:5b:dd:
         90:ff:51:67:06:b6:4c:02:4b:b2:90:1b:7d:60:20:2a:a6:d1:
         79:6a:6d:d7:33:2d:69:f0:48:5c:9f:9f:d2:24:47:17:61:e6:
         b1:7f:95:57:7a:4c:45:8f
-----BEGIN CERTIFICATE-----
MIIE4zCCAsugAwIBAgIBHDANBgkqhkiG9w0BAQUFADBTMRMwEQYKCZImiZPyLGQB
GRYDb3JnMRYwFAYKCZImiZPyLGQBGRYGbW9ucm9lMRAwDgYDVQQLDAdSb290LUNB
MRIwEAYDVQQDDAlSb290LUNBLTEwHhcNMTUxMDE1MTQyOTA5WhcNMTcxMDE0MTQy
OTA5WjBrMRMwEQYKCZImiZPyLGQBGRYDb3JnMRYwFAYKCZImiZPyLGQBGRYGbW9u
cm9lMQ8wDQYDVQQKDAZQT0xJVE8xEzARBgNVBAsMCkNvbXBvbmVudHMxFjAUBgNV
BAMMDU1vbnJvZV9Ob2RlXzEwggEiMA0GCSqGSIb3DQEBAQUAA4IBDwAwggEKAoIB
AQDv9Fd7FnEPJXMJvTU/CP2y6W8ek2ZeIgRWW+xTzOgF0YM5nKT/5H1ET6Zf6gu8
MblM5LL+bNZghqdJW/5EDtaotsJnRj3Mt1LDqeiwx3/QiSludnmtYUo/rumdqHK8
NBHeyFKmSYW7Okbn3S/+5Bzkw+ZXoRwFn+qpBoh1q4HtUZcu3nX/knsBvmbuwS6c
xWF1wWEBNCDgcEDAfaKzR/yaMSQDK8kxfqiGijdysUYECRmQEL44hN4lEWWtaf0U
4JwsD3wW2YS+keR5bIzk31T9/qX2RR/bvHnejSMN8m+kBhi39MYik9hVVRBCLobp
HW/YjJ9eX+KG3yxhT/gVkYR9AgMBAAGjgakwgaYwDgYDVR0PAQH/BAQDAgWgMAkG
A1UdEwQCMAAwHQYDVR0lBBYwFAYIKwYBBQUHAwEGCCsGAQUFBwMCMB0GA1UdDgQW
BBTb6UfCjY6phGAJNfnLwM5k8krcbjAfBgNVHSMEGDAWgBTY6Bw30NT3JCyEVuAX
CucjqZTKlDAqBgNVHREEIzAhgh9Nb25yb2VfTm9kZV8xLlBPTElUTy5tb25yb2Uu
b3JnMA0GCSqGSIb3DQEBBQUAA4ICAQAsFSf2dyxWELu7XT+grdwlWhM07wov+mO+
hzTDB77vuOQCV1A7eW8sI0wObhp7LCufh2lIGCLNay6d5QOSsFJ8Ir3ry9hK9gyh
HkyyCIYSdDwkAgD++9Z7S/IBdiD6GwLNFb0c+1MO+LMtA66Xo3RWNPNIVlRQ9Xlk
l3pqOagUMkLJ3+Mryw8tB3qOZjkTjVziA5DjzpvsHeEeLVgEEdifXPTtoRq2AFUq
4XwhbxYMsgGum1/suJgpVpFv3d7on41eo6do+33u3OOefXY5wJk1hQxiQ+SwrCgE
zoANGuNiNVmu0R9yvOyzWkoSDkxCx11xIUO9njm42/8h13yDQIM0l0G5LGNcMNrM
Xktx6jVnHnIBH0MKQE306TkRH7izUUUGU3CoKWKACrgOCfZInN9XrhosPIPSuxs6
4t9/du3euVf2kEvME9W3Ie7t5yHjDa9tNHy+vBWgrmXeqSnwSXBd/697yJ5LkpMH
0yLktdSlo5WknPNSjylLllBVUmyjL5noG/NY6fv8uiOo8nwkepTbxxirWPcPcAEu
xbkOCIgrLJiC51zktvREPh7Qvx6xpMX/xyWLlkY6iwA+2YvVCW9N6WXaCzFp5x8D
smbq7hnkyolgW92Q/1FnBrZMAkuykBt9YCAqptF5am3XMy1p8Ehcn5/SJEcXYeax
f5VXekxFjw==
-----END CERTIFICATE-----
