Certificate:
    Data:
        Version: 3 (0x2)
        Serial Number: 29 (0x1d)
    Signature Algorithm: sha1WithRSAEncryption
        Issuer: DC=org, DC=monroe, OU=Root-CA, CN=Root-CA-1
        Validity
            Not Before: Oct 15 14:29:33 2015 GMT
            Not After : Oct 14 14:29:33 2017 GMT
        Subject: DC=org, DC=monroe, O=POLITO, OU=Components, CN=Monroe_Node_1
        Subject Public Key Info:
            Public Key Algorithm: rsaEncryption
                Public-Key: (2048 bit)
                Modulus:
                    00:c1:4e:19:47:02:6d:ae:92:06:2d:5f:ce:fb:c6:
                    15:a9:12:70:8a:7e:92:07:5f:05:ce:4a:5d:31:36:
                    29:0b:44:d8:30:c1:2b:11:cd:b8:4e:db:06:b9:e5:
                    f0:b7:eb:fa:8c:ff:43:7d:90:75:7b:c8:0b:8e:e6:
                    ef:15:d0:6e:5d:3f:97:7e:6a:d0:33:a7:15:3e:94:
                    72:7a:7e:2c:91:4c:71:4a:34:ea:09:93:18:0d:22:
                    b1:ab:d5:10:89:a7:a8:eb:6a:2e:f4:3a:d3:60:7c:
                    7a:20:a6:10:7d:b1:9c:04:70:15:f5:94:a3:23:56:
                    2f:d9:2a:ce:8c:1f:e9:d6:ae:9c:4a:7f:4d:78:30:
                    64:81:73:3d:a0:ad:98:a8:b3:2d:e6:06:ac:96:be:
                    5e:94:0b:6f:a1:7b:8c:34:22:f4:d4:09:6e:c2:1c:
                    36:0f:fa:39:d4:2d:8d:b7:43:5b:46:92:a7:d2:49:
                    f1:5a:f7:01:48:a1:31:0d:2b:ea:7a:a6:d1:d6:b6:
                    68:60:6b:ed:d8:c7:39:6b:7b:81:7f:75:d2:32:7a:
                    49:21:70:da:62:32:56:7c:c5:96:cf:5d:b9:f0:a4:
                    fb:c3:46:c8:f8:94:75:dd:df:40:b1:8d:4a:98:b2:
                    8f:49:9e:a6:0c:4d:3a:2c:66:1e:fc:b0:4f:aa:b3:
                    46:47
                Exponent: 65537 (0x10001)
        X509v3 extensions:
            X509v3 Key Usage: critical
                Digital Signature, Key Encipherment
            X509v3 Basic Constraints: 
                CA:FALSE
            X509v3 Extended Key Usage: 
                TLS Web Server Authentication, TLS Web Client Authentication
            X509v3 Subject Key Identifier: 
                35:B1:82:67:8B:77:0C:0E:FC:41:C8:39:8C:0E:0C:BB:F9:BB:FF:CA
            X509v3 Authority Key Identifier: 
                keyid:D8:E8:1C:37:D0:D4:F7:24:2C:84:56:E0:17:0A:E7:23:A9:94:CA:94

            X509v3 Subject Alternative Name: 
                DNS:Monroe_Node_1.POLITO.monroe.org
    Signature Algorithm: sha1WithRSAEncryption
         46:0c:57:0e:e7:ed:13:d4:77:84:a6:e3:ce:21:51:a9:68:2a:
         59:ed:aa:ed:6e:3b:73:5c:03:f0:56:8d:94:d9:1b:a6:b1:70:
         b8:59:ac:6d:42:f0:f9:1b:1a:41:63:b7:28:50:10:0d:84:50:
         fb:54:6b:2b:8b:8d:41:83:dd:de:1e:21:7d:93:3c:ad:ab:91:
         c5:4c:b8:42:a9:cf:66:1e:9d:65:58:b7:c1:15:cc:aa:a1:68:
         ad:64:99:bb:42:51:ed:f7:b0:3b:f2:f1:ff:6c:b0:59:3e:fe:
         42:74:0b:bb:a1:27:69:b3:f3:64:1b:8d:a2:68:b7:ef:4f:eb:
         84:e5:70:3a:58:b1:61:e7:56:fc:cc:9a:22:07:91:4f:5b:85:
         00:ec:25:db:7e:d3:ec:24:20:d4:fc:a3:23:8d:3b:19:9d:67:
         a6:0a:f9:0f:0c:f3:c1:b3:b0:5e:ae:b4:9b:75:b7:c5:c5:1a:
         dc:b8:f1:01:e5:09:22:9d:3c:ca:5d:61:60:d8:d7:80:10:00:
         61:bb:bc:2e:51:4f:dc:b5:11:80:65:15:d0:3e:15:e5:3b:fc:
         3b:78:ed:d0:b6:d4:ac:51:44:30:09:53:f2:a8:81:1f:38:f7:
         94:26:ba:df:fd:1d:21:25:21:a4:2f:b2:7d:ec:93:ab:1a:d4:
         20:eb:a1:cc:b3:f6:30:c3:a9:fd:e9:fd:a8:7d:59:b8:27:0c:
         de:b5:a5:50:05:15:01:1d:08:08:f8:59:fc:dc:63:0e:de:24:
         a1:5e:78:ae:03:93:6f:14:39:be:43:9f:7c:9c:a6:a2:4f:3a:
         18:cf:82:63:95:80:b0:62:2c:62:59:cc:55:19:fd:73:3c:aa:
         a8:56:79:88:b3:43:95:ac:6e:56:10:ab:69:d0:af:be:02:aa:
         54:53:72:1b:d3:7d:10:3f:4c:c2:bb:e1:d5:98:6f:fd:e3:24:
         e2:ea:4d:3b:b1:a8:f7:1d:a8:49:4f:8f:9c:6b:79:23:dd:cd:
         7f:38:e3:9a:b0:c3:02:0d:60:47:2a:86:61:71:28:f7:d5:8a:
         af:5e:0b:02:e0:a0:64:2f:9e:2c:63:0b:9c:b3:69:8c:51:70:
         00:f9:ac:15:8f:90:4f:9b:6f:db:4f:c9:b1:a7:c8:f8:fc:d8:
         8d:5f:57:bd:1a:df:b2:6e:34:cf:ed:f2:eb:66:af:78:cb:53:
         f8:1a:8d:1d:97:2d:60:38:a5:00:00:ae:b0:93:83:ee:e4:99:
         0c:88:b9:f0:d3:19:5f:86:30:fb:fd:79:49:11:35:62:ba:7a:
         f7:33:e2:93:83:37:de:52:cb:5b:f9:7e:7d:73:2f:a9:9b:c9:
         25:7e:05:01:66:6e:80:96
-----BEGIN CERTIFICATE-----
MIIE4zCCAsugAwIBAgIBHTANBgkqhkiG9w0BAQUFADBTMRMwEQYKCZImiZPyLGQB
GRYDb3JnMRYwFAYKCZImiZPyLGQBGRYGbW9ucm9lMRAwDgYDVQQLDAdSb290LUNB
MRIwEAYDVQQDDAlSb290LUNBLTEwHhcNMTUxMDE1MTQyOTMzWhcNMTcxMDE0MTQy
OTMzWjBrMRMwEQYKCZImiZPyLGQBGRYDb3JnMRYwFAYKCZImiZPyLGQBGRYGbW9u
cm9lMQ8wDQYDVQQKDAZQT0xJVE8xEzARBgNVBAsMCkNvbXBvbmVudHMxFjAUBgNV
BAMMDU1vbnJvZV9Ob2RlXzEwggEiMA0GCSqGSIb3DQEBAQUAA4IBDwAwggEKAoIB
AQDBThlHAm2ukgYtX877xhWpEnCKfpIHXwXOSl0xNikLRNgwwSsRzbhO2wa55fC3
6/qM/0N9kHV7yAuO5u8V0G5dP5d+atAzpxU+lHJ6fiyRTHFKNOoJkxgNIrGr1RCJ
p6jrai70OtNgfHogphB9sZwEcBX1lKMjVi/ZKs6MH+nWrpxKf014MGSBcz2grZio
sy3mBqyWvl6UC2+he4w0IvTUCW7CHDYP+jnULY23Q1tGkqfSSfFa9wFIoTENK+p6
ptHWtmhga+3Yxzlre4F/ddIyekkhcNpiMlZ8xZbPXbnwpPvDRsj4lHXd30CxjUqY
so9JnqYMTTosZh78sE+qs0ZHAgMBAAGjgakwgaYwDgYDVR0PAQH/BAQDAgWgMAkG
A1UdEwQCMAAwHQYDVR0lBBYwFAYIKwYBBQUHAwEGCCsGAQUFBwMCMB0GA1UdDgQW
BBQ1sYJni3cMDvxByDmMDgy7+bv/yjAfBgNVHSMEGDAWgBTY6Bw30NT3JCyEVuAX
CucjqZTKlDAqBgNVHREEIzAhgh9Nb25yb2VfTm9kZV8xLlBPTElUTy5tb25yb2Uu
b3JnMA0GCSqGSIb3DQEBBQUAA4ICAQBGDFcO5+0T1HeEpuPOIVGpaCpZ7artbjtz
XAPwVo2U2RumsXC4WaxtQvD5GxpBY7coUBANhFD7VGsri41Bg93eHiF9kzytq5HF
TLhCqc9mHp1lWLfBFcyqoWitZJm7QlHt97A78vH/bLBZPv5CdAu7oSdps/NkG42i
aLfvT+uE5XA6WLFh51b8zJoiB5FPW4UA7CXbftPsJCDU/KMjjTsZnWemCvkPDPPB
s7BerrSbdbfFxRrcuPEB5QkinTzKXWFg2NeAEABhu7wuUU/ctRGAZRXQPhXlO/w7
eO3QttSsUUQwCVPyqIEfOPeUJrrf/R0hJSGkL7J97JOrGtQg66HMs/Yww6n96f2o
fVm4JwzetaVQBRUBHQgI+Fn83GMO3iShXniuA5NvFDm+Q598nKaiTzoYz4JjlYCw
YixiWcxVGf1zPKqoVnmIs0OVrG5WEKtp0K++AqpUU3Ib030QP0zCu+HVmG/94yTi
6k07saj3HahJT4+ca3kj3c1/OOOasMMCDWBHKoZhcSj31YqvXgsC4KBkL54sYwuc
s2mMUXAA+awVj5BPm2/bT8mxp8j4/NiNX1e9Gt+ybjTP7fLrZq94y1P4Go0dly1g
OKUAAK6wk4Pu5JkMiLnw0xlfhjD7/XlJETViunr3M+KTgzfeUstb+X59cy+pm8kl
fgUBZm6Alg==
-----END CERTIFICATE-----
