Certificate:
    Data:
        Version: 3 (0x2)
        Serial Number: 30 (0x1e)
    Signature Algorithm: sha1WithRSAEncryption
        Issuer: DC=org, DC=monroe, OU=Root-CA, CN=Root-CA-1
        Validity
            Not Before: Oct 15 14:29:42 2015 GMT
            Not After : Oct 14 14:29:42 2017 GMT
        Subject: DC=org, DC=monroe, O=POLITO, OU=Components, CN=Monroe_Node_1
        Subject Public Key Info:
            Public Key Algorithm: rsaEncryption
                Public-Key: (2048 bit)
                Modulus:
                    00:c0:12:d0:3b:db:62:ea:25:5f:a5:09:62:4b:23:
                    d1:72:14:dc:07:57:b8:c6:4d:30:6a:ce:88:0c:16:
                    42:fd:82:97:b0:5c:50:ba:1c:c5:6c:2f:19:ea:b6:
                    60:53:8a:4e:5a:69:af:d5:0b:2c:54:78:3d:e7:a0:
                    c8:b3:f3:a6:ce:00:99:68:3e:03:d5:9e:e8:37:2e:
                    a5:2f:5d:88:e2:c7:6d:a2:61:ac:82:3b:8d:99:55:
                    c4:16:1b:28:fe:a3:dc:44:88:67:99:9e:b2:e0:1e:
                    74:f1:ca:b9:dc:eb:b8:30:94:b7:9a:02:2d:25:44:
                    7a:1f:9c:4c:b9:23:3f:74:09:2e:33:38:e6:3f:10:
                    3a:4b:6e:25:93:26:b6:f8:ec:ba:3d:05:db:9f:23:
                    d7:00:2a:b3:d5:5c:d0:5e:43:9a:63:60:3b:6b:c1:
                    13:9a:a1:ee:87:80:ae:b2:fa:33:41:39:cd:17:f0:
                    ed:f3:72:53:27:50:a9:8d:63:87:f0:a6:c6:6a:66:
                    c3:9f:3e:9d:86:4d:e5:bb:b5:31:0b:09:da:37:80:
                    88:80:84:0a:9e:3f:47:eb:6f:7e:ef:85:82:bd:f6:
                    2a:98:75:ac:fe:fc:1d:02:88:3c:2c:cc:cb:b8:c9:
                    de:27:e8:9c:d0:31:3c:6e:70:91:29:a9:df:06:4a:
                    73:e7
                Exponent: 65537 (0x10001)
        X509v3 extensions:
            X509v3 Key Usage: critical
                Digital Signature, Key Encipherment
            X509v3 Basic Constraints: 
                CA:FALSE
            X509v3 Extended Key Usage: 
                TLS Web Server Authentication, TLS Web Client Authentication
            X509v3 Subject Key Identifier: 
                25:13:67:00:27:D3:1F:0F:28:36:CE:E7:30:82:1F:F6:BC:C3:B1:B9
            X509v3 Authority Key Identifier: 
                keyid:D8:E8:1C:37:D0:D4:F7:24:2C:84:56:E0:17:0A:E7:23:A9:94:CA:94

            X509v3 Subject Alternative Name: 
                DNS:Monroe_Node_1.POLITO.monroe.org
    Signature Algorithm: sha1WithRSAEncryption
         29:3e:77:2e:0c:f5:91:22:d2:55:1f:2c:8c:a3:9d:3d:9d:be:
         4c:46:2d:b4:2a:4c:1c:a5:54:73:ea:75:99:8c:7c:2c:f9:46:
         40:83:9e:70:ca:c3:1e:76:5e:9a:04:ca:8a:64:f8:f8:bf:24:
         6b:7d:4b:f7:a3:0f:ef:39:08:8c:fb:a0:f7:4b:37:0e:1b:81:
         6c:17:e1:22:8f:7d:b8:4e:12:77:03:5c:e0:07:64:9b:de:0a:
         8a:46:ba:dc:64:da:c7:aa:f8:ef:34:d1:b8:fd:8d:33:f1:25:
         f1:f9:28:b3:96:c7:38:cf:06:75:ff:5e:98:f6:98:b3:8a:51:
         36:8f:0d:c4:8b:c7:55:b5:cc:f5:de:34:d0:3a:39:8a:80:29:
         15:b9:3e:ae:b0:f1:69:aa:7c:f7:79:bb:a2:3e:9b:95:96:46:
         ef:da:6b:65:1c:8a:9c:e8:17:29:e8:f6:53:23:02:2f:eb:9e:
         07:66:20:eb:3d:96:6c:ae:dc:6b:c7:ec:dc:1c:78:de:b3:a4:
         fb:84:43:fc:c5:78:43:a2:46:6a:90:3b:d2:df:b5:6e:a0:01:
         09:e1:88:f0:08:3a:09:d7:ab:27:fb:2e:53:0b:7a:82:ef:fd:
         f5:05:51:f7:23:60:f3:10:d3:97:e3:56:fe:b4:2e:8b:12:ed:
         db:fd:b3:ec:71:2b:52:98:c5:ab:e4:b4:a7:de:d8:e2:d5:5d:
         75:f8:be:8d:48:57:1d:70:d0:1d:2c:59:7b:68:25:52:59:a3:
         ec:41:13:77:fa:5f:9e:74:ca:42:d4:a3:ea:20:4e:67:42:30:
         b5:45:0d:cf:7b:45:0a:86:41:7c:02:96:60:5b:58:00:91:2a:
         4c:9b:bb:a5:34:4c:41:d2:d4:b0:99:24:6c:e8:6a:f6:a5:7f:
         39:8c:30:dc:98:a8:9d:6d:ef:b9:f5:d1:b1:f0:b0:f5:d9:07:
         62:34:7a:43:83:5d:b5:8a:00:9f:df:4a:14:97:47:ec:89:3a:
         63:e3:42:ca:1c:a0:9e:c2:c1:91:c1:f4:24:ab:26:60:db:09:
         c6:7c:57:9e:89:52:c0:83:0f:b3:93:82:ab:de:5b:d8:6f:ee:
         76:af:27:ea:b3:b0:92:8a:54:df:b5:c4:fc:75:31:cf:63:bd:
         fd:2d:a1:69:00:0a:d3:73:57:ab:37:b2:77:23:bf:58:c0:ce:
         ca:7a:ac:9a:66:27:f1:f7:42:69:ac:60:9a:72:ca:a0:92:b2:
         76:83:65:48:f3:fc:41:ae:d4:52:fd:61:18:27:b3:eb:f0:77:
         c0:2c:e1:ca:93:8f:c9:76:f3:c8:76:6c:c9:ac:fd:64:cb:50:
         c9:31:dd:1e:15:04:d5:a0
-----BEGIN CERTIFICATE-----
MIIE4zCCAsugAwIBAgIBHjANBgkqhkiG9w0BAQUFADBTMRMwEQYKCZImiZPyLGQB
GRYDb3JnMRYwFAYKCZImiZPyLGQBGRYGbW9ucm9lMRAwDgYDVQQLDAdSb290LUNB
MRIwEAYDVQQDDAlSb290LUNBLTEwHhcNMTUxMDE1MTQyOTQyWhcNMTcxMDE0MTQy
OTQyWjBrMRMwEQYKCZImiZPyLGQBGRYDb3JnMRYwFAYKCZImiZPyLGQBGRYGbW9u
cm9lMQ8wDQYDVQQKDAZQT0xJVE8xEzARBgNVBAsMCkNvbXBvbmVudHMxFjAUBgNV
BAMMDU1vbnJvZV9Ob2RlXzEwggEiMA0GCSqGSIb3DQEBAQUAA4IBDwAwggEKAoIB
AQDAEtA722LqJV+lCWJLI9FyFNwHV7jGTTBqzogMFkL9gpewXFC6HMVsLxnqtmBT
ik5aaa/VCyxUeD3noMiz86bOAJloPgPVnug3LqUvXYjix22iYayCO42ZVcQWGyj+
o9xEiGeZnrLgHnTxyrnc67gwlLeaAi0lRHofnEy5Iz90CS4zOOY/EDpLbiWTJrb4
7Lo9BdufI9cAKrPVXNBeQ5pjYDtrwROaoe6HgK6y+jNBOc0X8O3zclMnUKmNY4fw
psZqZsOfPp2GTeW7tTELCdo3gIiAhAqeP0frb37vhYK99iqYdaz+/B0CiDwszMu4
yd4n6JzQMTxucJEpqd8GSnPnAgMBAAGjgakwgaYwDgYDVR0PAQH/BAQDAgWgMAkG
A1UdEwQCMAAwHQYDVR0lBBYwFAYIKwYBBQUHAwEGCCsGAQUFBwMCMB0GA1UdDgQW
BBQlE2cAJ9MfDyg2zucwgh/2vMOxuTAfBgNVHSMEGDAWgBTY6Bw30NT3JCyEVuAX
CucjqZTKlDAqBgNVHREEIzAhgh9Nb25yb2VfTm9kZV8xLlBPTElUTy5tb25yb2Uu
b3JnMA0GCSqGSIb3DQEBBQUAA4ICAQApPncuDPWRItJVHyyMo509nb5MRi20Kkwc
pVRz6nWZjHws+UZAg55wysMedl6aBMqKZPj4vyRrfUv3ow/vOQiM+6D3SzcOG4Fs
F+Eij324ThJ3A1zgB2Sb3gqKRrrcZNrHqvjvNNG4/Y0z8SXx+Sizlsc4zwZ1/16Y
9pizilE2jw3Ei8dVtcz13jTQOjmKgCkVuT6usPFpqnz3ebuiPpuVlkbv2mtlHIqc
6Bcp6PZTIwIv654HZiDrPZZsrtxrx+zcHHjes6T7hEP8xXhDokZqkDvS37VuoAEJ
4YjwCDoJ16sn+y5TC3qC7/31BVH3I2DzENOX41b+tC6LEu3b/bPscStSmMWr5LSn
3tji1V11+L6NSFcdcNAdLFl7aCVSWaPsQRN3+l+edMpC1KPqIE5nQjC1RQ3Pe0UK
hkF8ApZgW1gAkSpMm7ulNExB0tSwmSRs6Gr2pX85jDDcmKidbe+59dGx8LD12Qdi
NHpDg121igCf30oUl0fsiTpj40LKHKCewsGRwfQkqyZg2wnGfFeeiVLAgw+zk4Kr
3lvYb+52ryfqs7CSilTftcT8dTHPY739LaFpAArTc1erN7J3I79YwM7KeqyaZifx
90JprGCacsqgkrJ2g2VI8/xBrtRS/WEYJ7Pr8HfALOHKk4/JdvPIdmzJrP1ky1DJ
Md0eFQTVoA==
-----END CERTIFICATE-----
