Certificate:
    Data:
        Version: 3 (0x2)
        Serial Number: 31 (0x1f)
    Signature Algorithm: sha1WithRSAEncryption
        Issuer: DC=org, DC=monroe, OU=Root-CA, CN=Root-CA-1
        Validity
            Not Before: Oct 15 14:31:07 2015 GMT
            Not After : Oct 14 14:31:07 2017 GMT
        Subject: DC=org, DC=monroe, O=POLITO, OU=Components, CN=Monroe_Node_1
        Subject Public Key Info:
            Public Key Algorithm: rsaEncryption
                Public-Key: (2048 bit)
                Modulus:
                    00:c8:35:61:d8:e9:42:4d:fb:e9:cb:91:9b:4c:cb:
                    7a:57:f3:e3:c2:f3:ad:fb:de:62:32:eb:fa:a4:ab:
                    79:0e:c0:6b:f6:2d:72:8a:01:b2:26:7c:68:94:bd:
                    c4:33:ac:be:32:9a:19:fb:98:2e:c1:f5:64:b6:dd:
                    87:47:b6:3a:8b:c7:0d:fe:01:49:e7:b8:08:7a:35:
                    c2:1a:f9:2b:39:6f:c8:40:7a:cd:f4:dd:e7:d9:1f:
                    0c:37:1e:a4:1b:aa:23:5e:86:75:6c:c7:a4:5c:81:
                    d4:da:78:12:49:00:9e:3f:7f:13:5a:16:ca:36:b9:
                    7d:67:cc:c3:6f:42:f2:f9:ba:ad:b6:79:8a:0c:7f:
                    e5:9d:06:7d:5c:61:9f:44:4f:37:15:37:1a:af:a4:
                    ee:94:2f:27:4f:4e:27:d8:04:f8:48:af:12:f7:a0:
                    15:21:e6:57:50:7f:99:3f:82:19:bb:90:ed:ff:1a:
                    e1:7c:dc:56:6e:d0:cb:7d:8e:75:5d:97:2b:b5:18:
                    65:8e:09:8a:04:dd:00:b6:82:33:71:66:7c:0d:74:
                    35:a1:d9:72:0f:1e:e8:9d:6a:dc:3e:20:54:7d:87:
                    09:52:44:1c:77:32:ad:47:5b:3d:54:1f:94:32:94:
                    c2:53:25:f5:8f:a1:56:d4:13:89:5b:31:8d:ec:e2:
                    dc:65
                Exponent: 65537 (0x10001)
        X509v3 extensions:
            X509v3 Key Usage: critical
                Digital Signature, Key Encipherment
            X509v3 Basic Constraints: 
                CA:FALSE
            X509v3 Extended Key Usage: 
                TLS Web Server Authentication, TLS Web Client Authentication
            X509v3 Subject Key Identifier: 
                7C:7B:38:E6:72:BA:5B:3A:B8:6E:91:2F:37:45:33:20:F4:A6:6B:4A
            X509v3 Authority Key Identifier: 
                keyid:D8:E8:1C:37:D0:D4:F7:24:2C:84:56:E0:17:0A:E7:23:A9:94:CA:94

            X509v3 Subject Alternative Name: 
                DNS:Monroe_Node_1.POLITO.monroe.org
    Signature Algorithm: sha1WithRSAEncryption
         1a:9a:50:60:9d:a1:cb:65:ca:43:94:e5:a0:6d:85:63:61:84:
         1d:d2:19:b6:44:f8:e8:a7:75:74:b7:e1:a8:e2:a7:81:f9:63:
         e8:a4:81:e3:87:88:fc:3a:c3:fc:cf:d6:cc:c4:08:7a:2f:f1:
         ed:c4:76:8e:7d:c8:17:fb:fe:b0:ba:fb:d2:b3:ee:f3:21:fe:
         8b:cd:7d:d9:50:34:22:06:17:3c:46:f2:84:c8:3c:76:8c:3d:
         36:5a:f5:bc:35:be:1a:42:90:c2:2f:41:dd:db:3e:ff:8f:06:
         96:b3:2d:11:5f:2d:6b:29:b5:00:6a:f0:d9:75:12:13:d5:9f:
         99:73:a7:7a:a6:78:00:38:fa:5e:d2:41:d7:87:9d:8e:54:3e:
         94:e9:c8:55:06:ac:2b:56:fc:ff:d2:e0:10:42:1c:af:f0:2e:
         eb:34:20:80:ae:97:4b:e1:0e:d8:62:d2:30:12:39:8b:a0:67:
         7d:0b:10:82:86:99:52:93:3d:77:7a:e1:d9:37:65:35:68:33:
         9e:e2:fa:32:b8:b0:f2:8d:fa:e5:c0:52:4d:42:d1:75:45:2f:
         ea:6b:e4:9f:5e:2e:96:79:da:6b:59:69:88:7a:e2:54:3e:de:
         0a:66:01:c6:a0:3b:e1:b1:2c:6a:bd:d2:fc:e8:47:09:59:5a:
         51:4d:b1:cb:ba:b9:5a:0a:7e:01:bf:ae:95:e0:01:ce:6d:88:
         16:1f:ef:0a:b9:b7:97:e3:9b:9b:1d:e4:d8:44:00:28:53:4e:
         88:5f:fe:47:c9:34:b2:36:25:a5:1b:6d:35:78:e6:04:73:30:
         bf:9c:ed:25:b2:ce:ec:b2:a6:d7:45:14:48:41:ca:41:83:b9:
         0f:2a:91:7a:a7:4b:8d:01:75:96:89:18:0a:df:1a:a2:52:69:
         29:b2:93:5f:36:58:bf:77:b6:05:d4:18:d7:a9:c0:ea:04:d6:
         62:3b:a1:48:34:cb:7c:37:61:3c:d8:e5:2e:43:80:36:df:e4:
         b3:0c:cc:79:af:ad:e0:f4:20:8f:2b:99:34:44:98:fb:5e:d5:
         f0:5f:7a:5a:15:c3:67:0d:57:85:a2:d8:71:3c:b2:02:60:67:
         18:0d:68:1a:f5:a4:92:2a:44:21:62:08:71:7c:03:11:d4:d9:
         08:4c:ec:2c:78:e1:04:1e:df:68:54:7a:f5:a8:e2:9b:f7:e8:
         f6:84:22:27:b3:ab:28:9e:f3:df:08:b0:0d:99:fd:82:c3:8f:
         f5:87:63:dd:1f:10:89:1c:85:21:1b:2b:ee:aa:2f:a0:6a:f4:
         85:b7:f2:75:3f:97:52:fd:4b:f8:54:4e:96:07:2e:a2:c3:53:
         75:b9:7c:1f:4f:a7:b4:24
-----BEGIN CERTIFICATE-----
MIIE4zCCAsugAwIBAgIBHzANBgkqhkiG9w0BAQUFADBTMRMwEQYKCZImiZPyLGQB
GRYDb3JnMRYwFAYKCZImiZPyLGQBGRYGbW9ucm9lMRAwDgYDVQQLDAdSb290LUNB
MRIwEAYDVQQDDAlSb290LUNBLTEwHhcNMTUxMDE1MTQzMTA3WhcNMTcxMDE0MTQz
MTA3WjBrMRMwEQYKCZImiZPyLGQBGRYDb3JnMRYwFAYKCZImiZPyLGQBGRYGbW9u
cm9lMQ8wDQYDVQQKDAZQT0xJVE8xEzARBgNVBAsMCkNvbXBvbmVudHMxFjAUBgNV
BAMMDU1vbnJvZV9Ob2RlXzEwggEiMA0GCSqGSIb3DQEBAQUAA4IBDwAwggEKAoIB
AQDINWHY6UJN++nLkZtMy3pX8+PC86373mIy6/qkq3kOwGv2LXKKAbImfGiUvcQz
rL4ymhn7mC7B9WS23YdHtjqLxw3+AUnnuAh6NcIa+Ss5b8hAes303efZHww3HqQb
qiNehnVsx6RcgdTaeBJJAJ4/fxNaFso2uX1nzMNvQvL5uq22eYoMf+WdBn1cYZ9E
TzcVNxqvpO6ULydPTifYBPhIrxL3oBUh5ldQf5k/ghm7kO3/GuF83FZu0Mt9jnVd
lyu1GGWOCYoE3QC2gjNxZnwNdDWh2XIPHuidatw+IFR9hwlSRBx3Mq1HWz1UH5Qy
lMJTJfWPoVbUE4lbMY3s4txlAgMBAAGjgakwgaYwDgYDVR0PAQH/BAQDAgWgMAkG
A1UdEwQCMAAwHQYDVR0lBBYwFAYIKwYBBQUHAwEGCCsGAQUFBwMCMB0GA1UdDgQW
BBR8ezjmcrpbOrhukS83RTMg9KZrSjAfBgNVHSMEGDAWgBTY6Bw30NT3JCyEVuAX
CucjqZTKlDAqBgNVHREEIzAhgh9Nb25yb2VfTm9kZV8xLlBPTElUTy5tb25yb2Uu
b3JnMA0GCSqGSIb3DQEBBQUAA4ICAQAamlBgnaHLZcpDlOWgbYVjYYQd0hm2RPjo
p3V0t+Go4qeB+WPopIHjh4j8OsP8z9bMxAh6L/HtxHaOfcgX+/6wuvvSs+7zIf6L
zX3ZUDQiBhc8RvKEyDx2jD02WvW8Nb4aQpDCL0Hd2z7/jwaWsy0RXy1rKbUAavDZ
dRIT1Z+Zc6d6pngAOPpe0kHXh52OVD6U6chVBqwrVvz/0uAQQhyv8C7rNCCArpdL
4Q7YYtIwEjmLoGd9CxCChplSkz13euHZN2U1aDOe4voyuLDyjfrlwFJNQtF1RS/q
a+SfXi6WedprWWmIeuJUPt4KZgHGoDvhsSxqvdL86EcJWVpRTbHLurlaCn4Bv66V
4AHObYgWH+8KubeX45ubHeTYRAAoU06IX/5HyTSyNiWlG201eOYEczC/nO0lss7s
sqbXRRRIQcpBg7kPKpF6p0uNAXWWiRgK3xqiUmkpspNfNli/d7YF1BjXqcDqBNZi
O6FINMt8N2E82OUuQ4A23+SzDMx5r63g9CCPK5k0RJj7XtXwX3paFcNnDVeFothx
PLICYGcYDWga9aSSKkQhYghxfAMR1NkITOwseOEEHt9oVHr1qOKb9+j2hCIns6so
nvPfCLANmf2Cw4/1h2PdHxCJHIUhGyvuqi+gavSFt/J1P5dS/Uv4VE6WBy6iw1N1
uXwfT6e0JA==
-----END CERTIFICATE-----
