Certificate:
    Data:
        Version: 3 (0x2)
        Serial Number: 32 (0x20)
    Signature Algorithm: sha1WithRSAEncryption
        Issuer: DC=org, DC=monroe, OU=Root-CA, CN=Root-CA-1
        Validity
            Not Before: Oct 15 14:31:27 2015 GMT
            Not After : Oct 14 14:31:27 2017 GMT
        Subject: DC=org, DC=monroe, O=POLITO, OU=Components, CN=Monroe_Node_1
        Subject Public Key Info:
            Public Key Algorithm: rsaEncryption
                Public-Key: (2048 bit)
                Modulus:
                    00:c1:7e:0d:f3:dc:68:87:58:4c:f9:6a:33:2a:09:
                    b5:d2:40:ad:ce:01:9d:66:ce:4a:0e:dd:07:0c:16:
                    0a:d7:c5:06:63:91:42:e0:64:a3:87:ab:8f:5b:a8:
                    d5:57:6e:9c:ea:fe:cf:76:64:be:05:bf:9f:da:49:
                    89:36:fd:45:d1:cd:4c:bc:96:0d:f3:71:55:3c:2e:
                    43:c4:ce:49:5a:a4:9f:72:57:5e:6c:33:25:8e:35:
                    41:94:33:3f:5f:7f:36:59:db:85:29:33:3e:4c:9e:
                    4c:e2:e4:d9:9e:66:e2:dd:a0:3e:7f:33:54:c1:1a:
                    10:c1:47:a7:28:91:5d:f6:4b:1a:d4:0b:cf:78:ff:
                    1e:1e:a7:bd:b2:4a:7f:13:67:41:43:b3:41:35:7a:
                    1e:d6:d4:82:ae:fd:05:fe:76:25:b8:bc:f7:3b:d1:
                    8f:24:7b:1c:56:93:1d:ce:c8:48:9a:64:58:7d:42:
                    4f:15:af:aa:33:9a:da:e6:05:2b:74:0f:73:1d:79:
                    06:ab:9a:cf:66:13:fd:bf:6f:80:00:3e:88:61:0a:
                    27:3f:c6:ae:75:04:68:9d:78:2d:0f:bb:82:e5:03:
                    8f:15:0f:e2:31:a5:4a:ba:68:df:36:a1:58:a2:43:
                    17:0a:06:80:b2:8c:f7:cf:34:53:41:6b:4e:10:11:
                    64:11
                Exponent: 65537 (0x10001)
        X509v3 extensions:
            X509v3 Key Usage: critical
                Digital Signature, Key Encipherment
            X509v3 Basic Constraints: 
                CA:FALSE
            X509v3 Extended Key Usage: 
                TLS Web Server Authentication, TLS Web Client Authentication
            X509v3 Subject Key Identifier: 
                72:66:A9:42:D6:34:D9:85:03:1D:71:76:F6:68:05:1D:8C:0A:1D:2D
            X509v3 Authority Key Identifier: 
                keyid:D8:E8:1C:37:D0:D4:F7:24:2C:84:56:E0:17:0A:E7:23:A9:94:CA:94

            X509v3 Subject Alternative Name: 
                DNS:Monroe_Node_1.POLITO.monroe.org
    Signature Algorithm: sha1WithRSAEncryption
         87:57:38:20:2c:3d:b4:82:63:a4:f0:92:86:3f:c7:2b:bc:14:
         06:9f:24:77:35:0c:37:ec:4e:aa:65:a6:35:06:37:60:23:62:
         3e:28:dc:08:36:d3:6c:1b:ba:92:6c:b5:28:3f:be:c2:7d:f8:
         6b:e6:e5:ea:63:dd:b8:c7:65:6a:ba:1b:b7:21:63:e2:e7:2d:
         1d:02:69:b7:01:66:84:6e:5d:4e:58:17:5a:b2:b3:b2:3d:39:
         1f:87:f3:9d:b4:96:c8:66:32:ee:00:04:4d:88:bc:77:73:b3:
         64:69:e4:09:e9:57:49:17:f4:1e:6a:14:7d:92:90:e5:e3:6a:
         e5:ff:79:5d:6a:f2:21:17:d0:3b:7a:f0:78:35:c8:09:92:c4:
         a5:af:eb:7b:e6:d8:20:09:e8:d0:8f:ce:5c:dc:de:1f:40:55:
         45:fd:de:30:a7:f8:8a:f4:7b:70:51:b6:aa:87:57:c7:38:ce:
         3c:f8:77:f0:fc:4b:db:85:05:78:10:a7:df:2a:a5:8e:45:04:
         56:91:82:0e:9d:a8:09:65:41:9d:df:06:b4:f7:ea:1e:94:1d:
         45:76:46:f6:48:43:f1:57:19:ba:59:f0:c8:50:72:ce:95:e3:
         fc:f3:bb:26:4c:c2:ee:85:da:81:91:43:ca:cc:83:68:f8:f0:
         da:67:f9:63:6d:e1:bc:50:24:6b:30:e9:9a:26:84:aa:0d:3c:
         82:63:9c:6d:3f:ee:be:3d:65:fb:05:c1:dd:5b:9b:09:86:8c:
         32:cf:af:16:d8:7d:d2:08:60:05:c5:04:b4:53:01:dd:84:6c:
         70:6d:14:cf:fa:8a:45:90:15:96:9a:95:a4:f0:35:d5:d6:57:
         7c:e7:ea:a5:80:51:a3:9a:54:a1:f2:7c:64:0f:40:5a:a1:15:
         87:bf:23:a7:14:9b:35:b7:63:8e:b4:0a:7e:39:19:6b:b7:da:
         ae:e6:af:c6:b6:2c:e1:1a:6f:0a:c6:93:82:73:68:f1:eb:65:
         f7:5c:32:ba:5f:e9:ef:42:e2:bc:5d:62:1f:0a:f4:3a:ce:01:
         12:6c:67:01:4d:5b:19:1b:2a:53:de:14:ed:0b:ff:8e:20:0f:
         cc:71:bb:55:99:32:8e:57:8b:f5:a1:fd:0e:23:e8:a3:38:98:
         e2:e7:33:0e:4f:5f:5f:ad:54:49:b8:92:41:97:ee:6c:44:4d:
         e5:ab:a7:64:5e:0a:b1:09:e6:a9:47:0f:1e:81:41:63:4f:ee:
         ac:39:9c:c8:b8:19:0d:b7:c8:2d:77:aa:d0:c8:a7:7c:bc:d3:
         8c:79:f4:2f:b5:0a:4b:fd:99:2b:c5:8c:a8:b3:07:9d:b6:96:
         13:a2:73:41:f6:ec:1d:bc
-----BEGIN CERTIFICATE-----
MIIE4zCCAsugAwIBAgIBIDANBgkqhkiG9w0BAQUFADBTMRMwEQYKCZImiZPyLGQB
GRYDb3JnMRYwFAYKCZImiZPyLGQBGRYGbW9ucm9lMRAwDgYDVQQLDAdSb290LUNB
MRIwEAYDVQQDDAlSb290LUNBLTEwHhcNMTUxMDE1MTQzMTI3WhcNMTcxMDE0MTQz
MTI3WjBrMRMwEQYKCZImiZPyLGQBGRYDb3JnMRYwFAYKCZImiZPyLGQBGRYGbW9u
cm9lMQ8wDQYDVQQKDAZQT0xJVE8xEzARBgNVBAsMCkNvbXBvbmVudHMxFjAUBgNV
BAMMDU1vbnJvZV9Ob2RlXzEwggEiMA0GCSqGSIb3DQEBAQUAA4IBDwAwggEKAoIB
AQDBfg3z3GiHWEz5ajMqCbXSQK3OAZ1mzkoO3QcMFgrXxQZjkULgZKOHq49bqNVX
bpzq/s92ZL4Fv5/aSYk2/UXRzUy8lg3zcVU8LkPEzklapJ9yV15sMyWONUGUMz9f
fzZZ24UpMz5Mnkzi5NmeZuLdoD5/M1TBGhDBR6cokV32SxrUC894/x4ep72ySn8T
Z0FDs0E1eh7W1IKu/QX+diW4vPc70Y8kexxWkx3OyEiaZFh9Qk8Vr6ozmtrmBSt0
D3MdeQarms9mE/2/b4AAPohhCic/xq51BGideC0Pu4LlA48VD+IxpUq6aN82oVii
QxcKBoCyjPfPNFNBa04QEWQRAgMBAAGjgakwgaYwDgYDVR0PAQH/BAQDAgWgMAkG
A1UdEwQCMAAwHQYDVR0lBBYwFAYIKwYBBQUHAwEGCCsGAQUFBwMCMB0GA1UdDgQW
BBRyZqlC1jTZhQMdcXb2aAUdjAodLTAfBgNVHSMEGDAWgBTY6Bw30NT3JCyEVuAX
CucjqZTKlDAqBgNVHREEIzAhgh9Nb25yb2VfTm9kZV8xLlBPTElUTy5tb25yb2Uu
b3JnMA0GCSqGSIb3DQEBBQUAA4ICAQCHVzggLD20gmOk8JKGP8crvBQGnyR3NQw3
7E6qZaY1BjdgI2I+KNwINtNsG7qSbLUoP77Cffhr5uXqY924x2Vquhu3IWPi5y0d
Amm3AWaEbl1OWBdasrOyPTkfh/OdtJbIZjLuAARNiLx3c7NkaeQJ6VdJF/QeahR9
kpDl42rl/3ldavIhF9A7evB4NcgJksSlr+t75tggCejQj85c3N4fQFVF/d4wp/iK
9HtwUbaqh1fHOM48+Hfw/EvbhQV4EKffKqWORQRWkYIOnagJZUGd3wa09+oelB1F
dkb2SEPxVxm6WfDIUHLOleP887smTMLuhdqBkUPKzINo+PDaZ/ljbeG8UCRrMOma
JoSqDTyCY5xtP+6+PWX7BcHdW5sJhowyz68W2H3SCGAFxQS0UwHdhGxwbRTP+opF
kBWWmpWk8DXV1ld85+qlgFGjmlSh8nxkD0BaoRWHvyOnFJs1t2OOtAp+ORlrt9qu
5q/GtizhGm8KxpOCc2jx62X3XDK6X+nvQuK8XWIfCvQ6zgESbGcBTVsZGypT3hTt
C/+OIA/McbtVmTKOV4v1of0OI+ijOJji5zMOT19frVRJuJJBl+5sRE3lq6dkXgqx
CeapRw8egUFjT+6sOZzIuBkNt8gtd6rQyKd8vNOMefQvtQpL/ZkrxYyoswedtpYT
onNB9uwdvA==
-----END CERTIFICATE-----
