Certificate:
    Data:
        Version: 3 (0x2)
        Serial Number: 33 (0x21)
    Signature Algorithm: sha1WithRSAEncryption
        Issuer: DC=org, DC=monroe, OU=Root-CA, CN=Root-CA-1
        Validity
            Not Before: Oct 15 14:31:29 2015 GMT
            Not After : Oct 14 14:31:29 2017 GMT
        Subject: DC=org, DC=monroe, O=POLITO, OU=Components, CN=Monroe_Node_1
        Subject Public Key Info:
            Public Key Algorithm: rsaEncryption
                Public-Key: (2048 bit)
                Modulus:
                    00:dd:fd:05:73:e3:31:9f:e7:85:0f:0a:4c:49:37:
                    bc:36:10:3b:a9:bb:ba:c4:bc:fa:d5:9f:f4:4e:69:
                    4b:b5:b6:28:fe:bf:3b:98:c0:87:76:55:ac:66:1d:
                    9b:74:7c:fc:fe:a4:27:6f:1a:e3:36:2f:4a:9f:03:
                    ae:c8:ea:19:4e:2b:17:31:53:38:62:63:46:e0:c6:
                    3d:e9:c5:e3:87:2a:04:5a:7c:7e:0e:e3:33:77:2f:
                    2e:6f:a6:85:a1:c4:4e:6d:e0:f4:13:f5:f3:3c:4b:
                    e6:c8:6a:4e:f6:41:b2:70:69:3b:2b:be:38:67:9b:
                    99:f9:0e:ee:f6:1b:96:0d:1c:a4:16:17:c0:bb:76:
                    81:f8:51:b7:36:21:69:06:94:22:47:41:c2:48:2f:
                    7c:99:5d:6d:08:23:e9:2b:08:30:f9:47:b2:a0:9f:
                    10:d8:f0:12:7d:44:d2:9b:1b:f1:b6:a3:df:af:65:
                    0d:a0:e0:02:56:a0:e1:f9:a2:6d:f3:0d:a6:0d:f3:
                    8b:8a:a1:7a:ce:ab:da:c2:c3:4d:47:fe:cb:0a:af:
                    98:be:50:a4:19:eb:a5:84:53:dd:a8:2a:01:5d:3a:
                    a5:af:b7:58:d7:33:20:9f:23:30:79:72:98:62:33:
                    08:fb:10:35:a5:1f:4b:09:e6:cd:42:7f:bb:97:5b:
                    83:65
                Exponent: 65537 (0x10001)
        X509v3 extensions:
            X509v3 Key Usage: critical
                Digital Signature, Key Encipherment
            X509v3 Basic Constraints: 
                CA:FALSE
            X509v3 Extended Key Usage: 
                TLS Web Server Authentication, TLS Web Client Authentication
            X509v3 Subject Key Identifier: 
                B6:16:06:4A:F9:24:F2:B4:63:07:C8:90:0D:C4:B5:C8:07:7F:0E:75
            X509v3 Authority Key Identifier: 
                keyid:D8:E8:1C:37:D0:D4:F7:24:2C:84:56:E0:17:0A:E7:23:A9:94:CA:94

            X509v3 Subject Alternative Name: 
                DNS:Monroe_Node_1.POLITO.monroe.org
    Signature Algorithm: sha1WithRSAEncryption
         2d:22:b0:00:3a:f5:e3:e1:95:01:51:6f:1a:77:46:f2:b9:2f:
         68:57:b5:e6:d7:5c:09:82:38:10:41:22:8d:e0:a6:09:03:54:
         38:23:bd:80:de:c2:e3:54:37:b7:6f:94:77:eb:43:b9:5b:62:
         e9:76:d7:bb:8a:f1:b6:03:1f:a5:2d:ef:9c:5e:d5:b5:36:1b:
         c6:c8:86:41:25:27:50:97:cf:a9:2d:96:f0:03:d3:e5:ec:33:
         48:4d:f8:ac:9b:16:56:cf:45:b3:67:6a:29:e7:38:83:8a:ec:
         e1:d0:25:fe:93:d9:2a:6b:b4:e3:3c:82:e5:87:0f:5e:ba:ce:
         bc:28:ab:67:eb:37:ca:a8:47:f7:a4:a6:fe:60:6a:7a:fb:14:
         9d:b5:b0:af:1d:5c:38:2e:83:0b:13:97:43:d8:2d:8e:b5:e2:
         7b:0b:cc:6b:e5:dc:2a:d7:0d:54:14:ad:21:f6:9c:f3:b9:b2:
         05:58:99:83:a9:99:0e:8c:97:9c:13:04:83:23:82:73:bf:54:
         6a:e0:68:86:74:8a:2e:f1:5e:7b:d9:3f:e7:db:66:fd:2d:fd:
         4c:18:60:9e:61:76:43:4d:15:67:35:3a:a7:b6:36:92:2f:0d:
         9d:2f:02:dd:3e:c3:6b:e1:ad:cb:2f:27:bf:f4:c6:7b:25:76:
         e8:ce:63:3b:1e:d2:e3:27:09:19:ce:d4:7a:7f:73:f5:0c:f2:
         e9:c2:76:e3:fb:63:8d:2d:45:04:a8:23:9b:ce:c4:09:fc:33:
         c5:2b:61:10:b1:d3:a0:7a:18:f6:a5:8a:37:5e:b9:8e:69:8a:
         12:48:6d:a2:bf:e4:40:7e:e4:c3:ae:fe:64:93:35:f9:25:2d:
         a1:0b:9d:42:83:a2:68:fd:e9:c3:db:c6:8b:38:84:00:88:79:
         41:68:57:45:c1:46:22:3a:75:7e:74:69:0d:bc:ba:8d:93:ef:
         d1:ca:82:cf:bf:19:79:ac:03:7e:14:95:2f:be:e4:1e:c6:fe:
         c4:7a:9e:8d:eb:49:f9:20:4d:e8:59:47:9e:aa:7e:9c:c5:48:
         7a:e9:b8:89:7c:92:52:1a:7a:04:4c:df:b8:7d:01:b3:bb:b7:
         12:1a:20:b3:5a:1b:db:73:a0:59:28:2a:ef:8c:15:cb:34:8a:
         23:de:c3:eb:18:a3:1e:f7:47:74:cb:f3:7c:47:0b:90:61:f9:
         c5:cf:eb:ca:ba:cb:16:5e:d6:a5:97:3c:8d:7e:03:41:da:0e:
         d0:b4:84:81:ee:7d:6d:55:47:9e:44:40:db:3c:6b:93:1d:2b:
         52:29:77:33:6c:ce:42:63:ae:ab:87:41:c4:8a:f1:c3:84:a9:
         d1:aa:84:ee:bf:ed:18:db
-----BEGIN CERTIFICATE-----
MIIE4zCCAsugAwIBAgIBITANBgkqhkiG9w0BAQUFADBTMRMwEQYKCZImiZPyLGQB
GRYDb3JnMRYwFAYKCZImiZPyLGQBGRYGbW9ucm9lMRAwDgYDVQQLDAdSb290LUNB
MRIwEAYDVQQDDAlSb290LUNBLTEwHhcNMTUxMDE1MTQzMTI5WhcNMTcxMDE0MTQz
MTI5WjBrMRMwEQYKCZImiZPyLGQBGRYDb3JnMRYwFAYKCZImiZPyLGQBGRYGbW9u
cm9lMQ8wDQYDVQQKDAZQT0xJVE8xEzARBgNVBAsMCkNvbXBvbmVudHMxFjAUBgNV
BAMMDU1vbnJvZV9Ob2RlXzEwggEiMA0GCSqGSIb3DQEBAQUAA4IBDwAwggEKAoIB
AQDd/QVz4zGf54UPCkxJN7w2EDupu7rEvPrVn/ROaUu1tij+vzuYwId2VaxmHZt0
fPz+pCdvGuM2L0qfA67I6hlOKxcxUzhiY0bgxj3pxeOHKgRafH4O4zN3Ly5vpoWh
xE5t4PQT9fM8S+bIak72QbJwaTsrvjhnm5n5Du72G5YNHKQWF8C7doH4Ubc2IWkG
lCJHQcJIL3yZXW0II+krCDD5R7KgnxDY8BJ9RNKbG/G2o9+vZQ2g4AJWoOH5om3z
DaYN84uKoXrOq9rCw01H/ssKr5i+UKQZ66WEU92oKgFdOqWvt1jXMyCfIzB5cphi
Mwj7EDWlH0sJ5s1Cf7uXW4NlAgMBAAGjgakwgaYwDgYDVR0PAQH/BAQDAgWgMAkG
A1UdEwQCMAAwHQYDVR0lBBYwFAYIKwYBBQUHAwEGCCsGAQUFBwMCMB0GA1UdDgQW
BBS2FgZK+STytGMHyJANxLXIB38OdTAfBgNVHSMEGDAWgBTY6Bw30NT3JCyEVuAX
CucjqZTKlDAqBgNVHREEIzAhgh9Nb25yb2VfTm9kZV8xLlBPTElUTy5tb25yb2Uu
b3JnMA0GCSqGSIb3DQEBBQUAA4ICAQAtIrAAOvXj4ZUBUW8ad0byuS9oV7Xm11wJ
gjgQQSKN4KYJA1Q4I72A3sLjVDe3b5R360O5W2Lpdte7ivG2Ax+lLe+cXtW1NhvG
yIZBJSdQl8+pLZbwA9Pl7DNITfismxZWz0WzZ2op5ziDiuzh0CX+k9kqa7TjPILl
hw9eus68KKtn6zfKqEf3pKb+YGp6+xSdtbCvHVw4LoMLE5dD2C2OteJ7C8xr5dwq
1w1UFK0h9pzzubIFWJmDqZkOjJecEwSDI4Jzv1Rq4GiGdIou8V572T/n22b9Lf1M
GGCeYXZDTRVnNTqntjaSLw2dLwLdPsNr4a3LLye/9MZ7JXbozmM7HtLjJwkZztR6
f3P1DPLpwnbj+2ONLUUEqCObzsQJ/DPFK2EQsdOgehj2pYo3XrmOaYoSSG2iv+RA
fuTDrv5kkzX5JS2hC51Cg6Jo/enD28aLOIQAiHlBaFdFwUYiOnV+dGkNvLqNk+/R
yoLPvxl5rAN+FJUvvuQexv7Eep6N60n5IE3oWUeeqn6cxUh66biJfJJSGnoETN+4
fQGzu7cSGiCzWhvbc6BZKCrvjBXLNIoj3sPrGKMe90d0y/N8RwuQYfnFz+vKussW
XtallzyNfgNB2g7QtISB7n1tVUeeREDbPGuTHStSKXczbM5CY66rh0HEivHDhKnR
qoTuv+0Y2w==
-----END CERTIFICATE-----
