Certificate:
    Data:
        Version: 3 (0x2)
        Serial Number: 34 (0x22)
    Signature Algorithm: sha1WithRSAEncryption
        Issuer: DC=org, DC=monroe, OU=Root-CA, CN=Root-CA-1
        Validity
            Not Before: Oct 15 14:32:13 2015 GMT
            Not After : Oct 14 14:32:13 2017 GMT
        Subject: DC=org, DC=monroe, O=POLITO, OU=Components, CN=Monroe_Node_1
        Subject Public Key Info:
            Public Key Algorithm: rsaEncryption
                Public-Key: (2048 bit)
                Modulus:
                    00:cb:7b:f9:a4:9a:2c:b4:02:0c:15:20:c0:4e:a3:
                    bd:26:c8:d3:92:3f:92:83:7d:22:e3:83:26:06:3c:
                    83:a9:e0:d2:22:13:a4:9c:0c:9b:6f:f4:56:60:2f:
                    00:30:b5:72:22:fb:a2:7e:86:51:96:43:08:6d:61:
                    fd:18:4c:42:91:22:03:d2:81:13:f4:47:54:88:2e:
                    84:62:35:6c:e3:ff:8a:87:80:9a:75:f5:6f:e2:d8:
                    e0:d8:ae:d7:83:94:de:28:61:49:2b:3e:0c:76:77:
                    f9:79:64:d9:f9:b3:40:00:4e:32:0e:ad:bf:d3:31:
                    91:74:16:79:95:be:b1:e3:5b:1d:16:ab:1d:02:6e:
                    ea:8f:72:99:33:bc:73:c6:96:8d:95:09:0a:1e:cf:
                    98:a9:2f:6d:2a:97:12:6e:86:99:30:e6:1d:af:49:
                    de:84:ed:74:3a:00:df:1f:eb:71:4b:cc:ba:0b:86:
                    9a:80:fa:28:ea:64:57:2f:f1:e1:f7:6d:b6:19:81:
                    fe:c8:34:09:97:9e:cb:a7:f3:2c:d7:59:39:e6:40:
                    6c:de:9e:c2:7e:81:cf:4d:e7:23:82:e7:e1:a7:d2:
                    26:93:ed:4c:45:56:b0:c1:d5:0c:53:d5:5c:8e:1b:
                    9e:f6:bd:f3:e8:2a:94:97:18:9b:83:f7:ce:8e:43:
                    06:31
                Exponent: 65537 (0x10001)
        X509v3 extensions:
            X509v3 Key Usage: critical
                Digital Signature, Key Encipherment
            X509v3 Basic Constraints: 
                CA:FALSE
            X509v3 Extended Key Usage: 
                TLS Web Server Authentication, TLS Web Client Authentication
            X509v3 Subject Key Identifier: 
                19:55:0B:16:45:E1:11:8A:9E:DB:C4:E2:DC:DA:BF:0C:A5:CF:58:50
            X509v3 Authority Key Identifier: 
                keyid:D8:E8:1C:37:D0:D4:F7:24:2C:84:56:E0:17:0A:E7:23:A9:94:CA:94

            X509v3 Subject Alternative Name: 
                DNS:Monroe_Node_1.POLITO.monroe.org
    Signature Algorithm: sha1WithRSAEncryption
         a3:7f:6c:f0:e0:7b:1a:0d:91:06:44:45:ab:78:74:2f:66:15:
         73:a3:80:d0:97:be:81:79:06:42:d7:5d:a1:dd:90:1c:92:bd:
         f5:a2:c0:f9:c8:07:1b:63:29:60:2a:0e:6f:73:89:e6:6e:c4:
         fa:ee:0f:76:e5:3a:d2:07:38:80:18:fc:63:f9:30:cf:20:19:
         e7:92:c6:e2:73:74:b8:94:e1:ad:db:21:36:9f:2c:c3:5c:7c:
         54:96:4e:ac:f0:cb:e0:f5:1c:a1:ff:d9:97:c7:43:e3:b7:2a:
         1d:32:96:5d:db:7a:a3:ff:84:42:e5:05:cd:6e:88:58:0e:d0:
         d8:31:68:e5:fb:e6:d8:62:0a:b0:f3:47:22:cc:c0:6b:d8:27:
         32:7c:d9:88:29:d1:de:23:4b:46:82:9f:4c:46:1a:e8:99:4f:
         47:5d:fa:03:2b:69:e1:e1:bf:1c:71:55:ab:a3:44:c2:39:3b:
         4e:ed:84:87:80:06:dc:90:2b:5f:52:9a:ac:6c:67:ab:10:e7:
         87:bb:b5:ad:b7:bd:14:c0:34:f0:82:d6:b4:4c:42:38:fe:73:
         f7:13:29:df:7b:16:5d:83:67:f1:6b:00:5e:ac:e7:98:6f:52:
         23:90:5d:34:50:ed:bf:d3:3e:c4:89:84:30:04:e5:60:7a:9b:
         37:f5:68:45:20:f1:a8:9b:7d:56:04:81:3a:48:7c:18:c2:01:
         89:d7:ea:c1:00:d4:b7:83:b3:41:97:ab:9e:8d:3b:b6:b4:1d:
         de:b5:d4:90:9c:ee:f5:58:0d:c8:54:fb:ca:a4:2f:b3:79:94:
         ff:be:b8:b1:e4:1a:55:33:8d:4a:c2:8d:69:8d:b5:35:4a:13:
         22:f6:4f:c4:ec:b5:06:4f:82:7d:90:a8:13:f4:bb:ae:f6:af:
         c9:25:93:06:7b:14:7c:3d:61:e8:42:e9:e3:42:e4:89:ad:3a:
         cd:3c:b5:02:50:ac:72:a2:86:60:1f:5e:cf:25:c7:aa:ba:0e:
         e0:eb:a0:63:e2:24:42:f7:99:14:2f:b4:e5:27:52:21:43:a5:
         72:59:9a:67:4d:d1:71:46:a8:a2:19:be:a9:97:29:13:7f:81:
         cd:5e:20:99:9c:78:9e:96:57:2c:fa:e0:04:21:3c:00:e8:a8:
         47:d7:ab:26:74:8e:d8:fb:d0:1b:0e:8e:32:75:cd:d2:4c:e0:
         51:a4:53:5a:5a:27:e8:f9:34:fe:58:0e:f8:2e:b3:db:4d:9a:
         cf:ff:5c:c5:67:bc:9a:ed:fd:79:34:9c:4c:e6:4f:e4:8c:8b:
         f6:cc:89:5c:36:03:64:6a:04:b5:dd:7f:2f:24:98:e0:f7:07:
         d3:5e:58:d4:aa:4d:ea:87
-----BEGIN CERTIFICATE-----
MIIE4zCCAsugAwIBAgIBIjANBgkqhkiG9w0BAQUFADBTMRMwEQYKCZImiZPyLGQB
GRYDb3JnMRYwFAYKCZImiZPyLGQBGRYGbW9ucm9lMRAwDgYDVQQLDAdSb290LUNB
MRIwEAYDVQQDDAlSb290LUNBLTEwHhcNMTUxMDE1MTQzMjEzWhcNMTcxMDE0MTQz
MjEzWjBrMRMwEQYKCZImiZPyLGQBGRYDb3JnMRYwFAYKCZImiZPyLGQBGRYGbW9u
cm9lMQ8wDQYDVQQKDAZQT0xJVE8xEzARBgNVBAsMCkNvbXBvbmVudHMxFjAUBgNV
BAMMDU1vbnJvZV9Ob2RlXzEwggEiMA0GCSqGSIb3DQEBAQUAA4IBDwAwggEKAoIB
AQDLe/mkmiy0AgwVIMBOo70myNOSP5KDfSLjgyYGPIOp4NIiE6ScDJtv9FZgLwAw
tXIi+6J+hlGWQwhtYf0YTEKRIgPSgRP0R1SILoRiNWzj/4qHgJp19W/i2ODYrteD
lN4oYUkrPgx2d/l5ZNn5s0AATjIOrb/TMZF0FnmVvrHjWx0Wqx0CbuqPcpkzvHPG
lo2VCQoez5ipL20qlxJuhpkw5h2vSd6E7XQ6AN8f63FLzLoLhpqA+ijqZFcv8eH3
bbYZgf7INAmXnsun8yzXWTnmQGzensJ+gc9N5yOC5+Gn0iaT7UxFVrDB1QxT1VyO
G572vfPoKpSXGJuD986OQwYxAgMBAAGjgakwgaYwDgYDVR0PAQH/BAQDAgWgMAkG
A1UdEwQCMAAwHQYDVR0lBBYwFAYIKwYBBQUHAwEGCCsGAQUFBwMCMB0GA1UdDgQW
BBQZVQsWReERip7bxOLc2r8Mpc9YUDAfBgNVHSMEGDAWgBTY6Bw30NT3JCyEVuAX
CucjqZTKlDAqBgNVHREEIzAhgh9Nb25yb2VfTm9kZV8xLlBPTElUTy5tb25yb2Uu
b3JnMA0GCSqGSIb3DQEBBQUAA4ICAQCjf2zw4HsaDZEGREWreHQvZhVzo4DQl76B
eQZC112h3ZAckr31osD5yAcbYylgKg5vc4nmbsT67g925TrSBziAGPxj+TDPIBnn
ksbic3S4lOGt2yE2nyzDXHxUlk6s8Mvg9Ryh/9mXx0PjtyodMpZd23qj/4RC5QXN
bohYDtDYMWjl++bYYgqw80cizMBr2CcyfNmIKdHeI0tGgp9MRhromU9HXfoDK2nh
4b8ccVWro0TCOTtO7YSHgAbckCtfUpqsbGerEOeHu7Wtt70UwDTwgta0TEI4/nP3
EynfexZdg2fxawBerOeYb1IjkF00UO2/0z7EiYQwBOVgeps39WhFIPGom31WBIE6
SHwYwgGJ1+rBANS3g7NBl6uejTu2tB3etdSQnO71WA3IVPvKpC+zeZT/vrix5BpV
M41Kwo1pjbU1ShMi9k/E7LUGT4J9kKgT9Luu9q/JJZMGexR8PWHoQunjQuSJrTrN
PLUCUKxyooZgH17PJcequg7g66Bj4iRC95kUL7TlJ1IhQ6VyWZpnTdFxRqiiGb6p
lykTf4HNXiCZnHiellcs+uAEITwA6KhH16smdI7Y+9AbDo4ydc3STOBRpFNaWifo
+TT+WA74LrPbTZrP/1zFZ7ya7f15NJxM5k/kjIv2zIlcNgNkagS13X8vJJjg9wfT
XljUqk3qhw==
-----END CERTIFICATE-----
