Certificate:
    Data:
        Version: 3 (0x2)
        Serial Number: 35 (0x23)
    Signature Algorithm: sha1WithRSAEncryption
        Issuer: DC=org, DC=monroe, OU=Root-CA, CN=Root-CA-1
        Validity
            Not Before: Oct 15 14:33:07 2015 GMT
            Not After : Oct 14 14:33:07 2017 GMT
        Subject: DC=org, DC=monroe, O=POLITO, OU=Components, CN=Monroe_Node_1
        Subject Public Key Info:
            Public Key Algorithm: rsaEncryption
                Public-Key: (2048 bit)
                Modulus:
                    00:b8:36:d1:c5:57:02:fc:b7:d3:4e:6a:e6:72:d1:
                    34:08:34:cf:23:82:1f:98:32:05:26:70:99:86:0a:
                    49:26:29:09:6c:f0:c9:83:dd:f3:27:18:f7:49:10:
                    3e:2f:53:88:26:2d:f8:fb:cd:43:e3:6a:1b:2c:45:
                    ff:58:ed:9c:76:80:99:36:50:ea:c1:5d:1c:a4:d3:
                    e6:6c:46:ef:1d:55:f1:a1:02:93:73:99:84:74:6a:
                    34:cd:db:da:c0:8a:f3:4d:09:ee:14:11:28:83:8b:
                    d9:86:78:61:9c:94:e5:74:e5:57:06:25:ab:b0:60:
                    3e:43:51:6a:9a:de:83:17:3b:d7:63:86:ba:a5:c9:
                    a8:df:cd:db:76:a6:ac:f4:26:32:6e:fa:fe:03:d6:
                    fa:ab:f0:1a:4d:59:e6:13:7f:67:56:52:12:38:65:
                    a9:de:59:d5:0c:e7:b2:6c:63:7f:9f:9b:e7:79:ee:
                    2d:f1:3a:d4:56:9b:50:27:e7:1f:2b:73:5a:a3:af:
                    a8:04:33:28:91:75:88:41:b3:ed:54:3f:0a:20:bc:
                    8d:16:4c:50:0d:8f:0c:fd:51:ba:ac:f6:3d:e1:ec:
                    7c:79:24:6e:ce:75:e4:12:e9:a6:81:16:0e:43:5c:
                    93:a6:88:00:91:01:72:e7:54:9e:b1:c1:a9:a8:03:
                    b0:e1
                Exponent: 65537 (0x10001)
        X509v3 extensions:
            X509v3 Key Usage: critical
                Digital Signature, Key Encipherment
            X509v3 Basic Constraints: 
                CA:FALSE
            X509v3 Extended Key Usage: 
                TLS Web Server Authentication, TLS Web Client Authentication
            X509v3 Subject Key Identifier: 
                73:E3:CD:91:D3:D9:3B:7E:F0:65:9F:E9:09:98:3E:56:66:50:C8:FC
            X509v3 Authority Key Identifier: 
                keyid:D8:E8:1C:37:D0:D4:F7:24:2C:84:56:E0:17:0A:E7:23:A9:94:CA:94

            X509v3 Subject Alternative Name: 
                DNS:Monroe_Node_1.POLITO.monroe.org
    Signature Algorithm: sha1WithRSAEncryption
         05:46:a8:63:1a:1b:c7:72:c4:f3:75:bb:34:5f:17:8c:ad:f4:
         61:7f:1b:6d:11:f8:a8:cf:3a:89:f9:28:1d:8f:7d:cb:65:63:
         3b:a7:20:c0:06:9c:ec:37:98:9b:cf:ac:60:30:a1:b6:d8:7c:
         fa:59:73:8e:90:56:64:42:d3:f7:44:31:50:e5:d4:98:a8:a8:
         88:ff:61:03:39:8a:88:f7:ac:43:cb:42:17:5d:25:f8:a6:10:
         7d:8e:30:a0:df:1b:82:72:58:5c:fa:0d:4c:1f:77:b6:20:e2:
         d8:bf:d8:c4:9d:b9:c3:07:36:95:75:7e:f9:7e:fb:53:96:bc:
         61:93:8c:9c:83:56:56:55:4f:07:ff:63:28:bf:a1:95:18:77:
         e4:1c:3e:ed:bc:8a:5f:9f:7c:c5:c1:80:2c:fa:ab:03:14:ff:
         43:7a:f5:f8:7e:01:50:89:bd:6e:6e:89:3d:ef:29:87:76:d8:
         f7:49:ba:22:9e:d6:a0:1d:3d:21:c1:57:4c:9a:51:f6:52:19:
         e8:d7:ea:18:65:9f:0e:52:2e:32:c8:22:e1:65:f0:ca:17:75:
         f5:d4:26:c2:1a:c6:28:c2:27:06:be:5b:33:78:03:38:7d:b4:
         83:22:4f:ce:8d:4f:ce:be:24:1d:93:18:3c:d9:27:61:a4:cb:
         f2:86:0b:06:ca:a7:d2:23:ee:4b:34:28:1b:c8:1e:78:49:6a:
         9f:66:37:e8:8f:b4:b0:8d:73:e5:7e:78:a2:e6:6a:fd:d6:d3:
         8f:7a:66:68:34:8c:9f:6c:b0:e6:46:f5:45:53:b9:9e:e5:df:
         ff:4e:aa:27:ac:ff:e8:66:6d:d4:d3:2d:76:e0:77:17:18:3d:
         2a:b7:6b:78:26:c7:4a:ff:a6:b1:71:8e:c0:f3:6f:ac:8b:30:
         81:3b:d0:f1:aa:9b:93:5b:1c:0c:47:4a:09:3a:d9:c4:80:e1:
         ba:ef:29:73:2d:ef:28:af:41:7c:a7:72:d4:ba:68:38:64:25:
         84:11:d1:d3:4b:36:c1:c4:af:7f:09:e7:9e:17:53:81:47:0e:
         f0:d5:7d:83:fc:76:34:bc:46:f0:7c:f0:70:a7:6d:ca:9c:ba:
         bf:c3:f4:c9:1e:96:83:87:a9:4d:98:fa:c9:d0:0c:04:8a:bf:
         28:fc:bc:4c:71:fc:90:2e:43:a2:85:71:72:a4:55:1f:89:47:
         23:b5:e5:a3:e2:00:0f:b4:c5:a6:e0:f2:04:48:91:13:8f:05:
         3f:f6:73:cc:96:f1:d6:c4:c6:7f:b3:30:b6:d4:64:e2:1c:86:
         1b:e7:e9:e3:30:46:0d:3c:1a:19:80:1f:b3:01:36:7d:a6:ee:
         f6:a3:11:70:6f:2e:bb:03
-----BEGIN CERTIFICATE-----
MIIE4zCCAsugAwIBAgIBIzANBgkqhkiG9w0BAQUFADBTMRMwEQYKCZImiZPyLGQB
GRYDb3JnMRYwFAYKCZImiZPyLGQBGRYGbW9ucm9lMRAwDgYDVQQLDAdSb290LUNB
MRIwEAYDVQQDDAlSb290LUNBLTEwHhcNMTUxMDE1MTQzMzA3WhcNMTcxMDE0MTQz
MzA3WjBrMRMwEQYKCZImiZPyLGQBGRYDb3JnMRYwFAYKCZImiZPyLGQBGRYGbW9u
cm9lMQ8wDQYDVQQKDAZQT0xJVE8xEzARBgNVBAsMCkNvbXBvbmVudHMxFjAUBgNV
BAMMDU1vbnJvZV9Ob2RlXzEwggEiMA0GCSqGSIb3DQEBAQUAA4IBDwAwggEKAoIB
AQC4NtHFVwL8t9NOauZy0TQINM8jgh+YMgUmcJmGCkkmKQls8MmD3fMnGPdJED4v
U4gmLfj7zUPjahssRf9Y7Zx2gJk2UOrBXRyk0+ZsRu8dVfGhApNzmYR0ajTN29rA
ivNNCe4UESiDi9mGeGGclOV05VcGJauwYD5DUWqa3oMXO9djhrqlyajfzdt2pqz0
JjJu+v4D1vqr8BpNWeYTf2dWUhI4ZaneWdUM57JsY3+fm+d57i3xOtRWm1An5x8r
c1qjr6gEMyiRdYhBs+1UPwogvI0WTFANjwz9Ubqs9j3h7Hx5JG7OdeQS6aaBFg5D
XJOmiACRAXLnVJ6xwamoA7DhAgMBAAGjgakwgaYwDgYDVR0PAQH/BAQDAgWgMAkG
A1UdEwQCMAAwHQYDVR0lBBYwFAYIKwYBBQUHAwEGCCsGAQUFBwMCMB0GA1UdDgQW
BBRz482R09k7fvBln+kJmD5WZlDI/DAfBgNVHSMEGDAWgBTY6Bw30NT3JCyEVuAX
CucjqZTKlDAqBgNVHREEIzAhgh9Nb25yb2VfTm9kZV8xLlBPTElUTy5tb25yb2Uu
b3JnMA0GCSqGSIb3DQEBBQUAA4ICAQAFRqhjGhvHcsTzdbs0XxeMrfRhfxttEfio
zzqJ+Sgdj33LZWM7pyDABpzsN5ibz6xgMKG22Hz6WXOOkFZkQtP3RDFQ5dSYqKiI
/2EDOYqI96xDy0IXXSX4phB9jjCg3xuCclhc+g1MH3e2IOLYv9jEnbnDBzaVdX75
fvtTlrxhk4ycg1ZWVU8H/2Mov6GVGHfkHD7tvIpfn3zFwYAs+qsDFP9DevX4fgFQ
ib1ubok97ymHdtj3SbointagHT0hwVdMmlH2Uhno1+oYZZ8OUi4yyCLhZfDKF3X1
1CbCGsYowicGvlszeAM4fbSDIk/OjU/OviQdkxg82SdhpMvyhgsGyqfSI+5LNCgb
yB54SWqfZjfoj7SwjXPlfnii5mr91tOPemZoNIyfbLDmRvVFU7me5d//TqonrP/o
Zm3U0y124HcXGD0qt2t4JsdK/6axcY7A82+sizCBO9DxqpuTWxwMR0oJOtnEgOG6
7ylzLe8or0F8p3LUumg4ZCWEEdHTSzbBxK9/CeeeF1OBRw7w1X2D/HY0vEbwfPBw
p23KnLq/w/TJHpaDh6lNmPrJ0AwEir8o/LxMcfyQLkOihXFypFUfiUcjteWj4gAP
tMWm4PIESJETjwU/9nPMlvHWxMZ/szC21GTiHIYb5+njMEYNPBoZgB+zATZ9pu72
oxFwby67Aw==
-----END CERTIFICATE-----
