Certificate:
    Data:
        Version: 3 (0x2)
        Serial Number: 36 (0x24)
    Signature Algorithm: sha1WithRSAEncryption
        Issuer: DC=org, DC=monroe, OU=Root-CA, CN=Root-CA-1
        Validity
            Not Before: Oct 15 14:33:37 2015 GMT
            Not After : Oct 14 14:33:37 2017 GMT
        Subject: DC=org, DC=monroe, O=POLITO, OU=Components, CN=Monroe_Node_1
        Subject Public Key Info:
            Public Key Algorithm: rsaEncryption
                Public-Key: (2048 bit)
                Modulus:
                    00:e1:7e:0e:cc:df:aa:29:d0:1b:e5:c6:d5:42:35:
                    b5:1e:8f:3c:b1:8c:c1:f0:e4:81:ed:92:3b:f0:dc:
                    57:dd:5e:43:55:25:a2:70:85:e7:22:43:a6:66:ed:
                    e0:90:38:1e:46:7b:53:54:a5:33:ee:50:1e:5a:a3:
                    b4:28:91:fa:e6:f5:7b:35:17:cd:5e:bc:08:38:9b:
                    9f:a5:79:dd:cf:02:8d:45:df:a2:bd:f1:55:62:3a:
                    cc:25:3b:93:b5:11:79:c6:83:46:30:cc:96:dc:a5:
                    d0:fd:d0:6f:dc:bd:21:ed:32:cb:eb:9b:2d:f0:cd:
                    f0:8d:5c:00:9b:a5:73:13:f4:32:f6:b9:da:9d:57:
                    e8:39:04:6c:35:ec:98:a4:33:e6:45:41:6d:8d:93:
                    00:84:69:d7:63:1c:fc:f6:26:a5:00:43:e2:d3:90:
                    dd:52:ba:00:94:cd:06:5a:dd:05:04:2f:95:d5:59:
                    ff:b3:b1:1b:2e:f6:ce:be:70:6c:7d:39:f4:bd:6c:
                    91:25:d1:ba:73:74:e8:51:67:43:c2:91:42:c1:d2:
                    5e:b8:8e:c4:92:84:0f:93:09:23:f7:09:56:ba:f2:
                    9b:bd:a1:35:31:53:9c:fe:ec:d1:cd:2c:e4:cf:aa:
                    ba:09:cb:24:25:58:d1:af:9f:33:f9:33:bc:eb:68:
                    2e:97
                Exponent: 65537 (0x10001)
        X509v3 extensions:
            X509v3 Key Usage: critical
                Digital Signature, Key Encipherment
            X509v3 Basic Constraints: 
                CA:FALSE
            X509v3 Extended Key Usage: 
                TLS Web Server Authentication, TLS Web Client Authentication
            X509v3 Subject Key Identifier: 
                73:BA:2F:AC:B3:07:8E:AF:95:0D:B4:12:C7:B7:0D:4B:06:A8:3C:4F
            X509v3 Authority Key Identifier: 
                keyid:D8:E8:1C:37:D0:D4:F7:24:2C:84:56:E0:17:0A:E7:23:A9:94:CA:94

            X509v3 Subject Alternative Name: 
                DNS:Monroe_Node_1.POLITO.monroe.org
    Signature Algorithm: sha1WithRSAEncryption
         67:a0:a9:ae:0c:70:44:1a:04:ca:e5:9a:4c:93:27:5e:2d:f5:
         97:5f:dd:d6:51:f2:8b:ce:98:bb:55:a4:61:95:e6:0e:f0:1c:
         5f:2c:6d:2b:e9:80:65:54:db:2e:9d:94:03:c2:d9:51:2e:c0:
         97:27:9b:96:28:b3:0f:e5:9b:9a:15:f0:67:a2:52:de:0b:11:
         71:2c:83:15:5a:ce:2d:4c:0e:99:2d:db:f6:02:8b:2f:1a:ba:
         23:80:52:f1:33:64:9a:23:6b:15:a0:d2:72:0a:ce:f2:2b:12:
         7d:fd:5d:4e:97:e4:5b:42:a1:ef:57:ea:af:b7:2f:87:10:40:
         69:6a:07:0e:ff:5c:9e:a8:4c:0d:ff:e9:39:9e:28:a5:d2:dc:
         21:0e:61:af:57:14:a3:65:6f:67:53:fb:59:0a:d4:60:5c:3b:
         3f:b6:25:21:74:0d:b2:2f:be:b8:23:28:18:fd:38:3e:dd:50:
         3f:5a:54:c1:d8:d4:05:d7:4e:f7:1d:22:f4:98:f1:f4:99:4f:
         02:a0:9c:19:7d:f6:5a:e2:4d:af:cd:40:02:4b:9e:72:21:b1:
         08:32:c3:52:b8:9b:72:bd:3c:46:4d:cd:a7:f3:b3:5f:35:05:
         2c:b7:a0:db:a0:92:3e:0d:f8:f7:fe:23:b3:4a:f0:cc:21:b3:
         01:16:fd:35:f1:ba:e9:5c:a0:48:72:01:bb:c2:d8:34:8d:a8:
         43:f4:00:89:7b:1c:29:7c:78:24:f2:a3:04:f6:89:d8:25:ea:
         f4:ab:6c:9a:7e:4e:f9:03:ea:30:96:70:7e:3b:d4:53:c1:04:
         3c:9a:82:1b:14:53:6c:7a:00:37:b3:e0:33:4a:c4:d7:35:ae:
         87:8a:e8:10:19:22:9a:85:d5:b2:4d:2c:f2:13:d8:a6:5c:c9:
         98:0d:b7:5c:ff:cb:d2:81:39:8a:23:74:41:7b:09:12:a8:da:
         9b:37:f5:33:a1:76:1e:63:be:16:78:46:2a:88:68:d7:fb:09:
         3b:77:c2:5f:4b:c0:29:8a:4b:81:cc:4e:80:6a:f9:ba:71:f7:
         ee:64:e3:55:e8:60:d9:9a:09:70:e5:76:d1:0b:9f:57:f1:7b:
         cd:b1:a4:5d:7e:22:4b:1a:2c:96:5b:5b:15:ae:d0:00:4f:34:
         2d:ae:1c:3f:b1:64:d9:f3:66:26:b2:61:27:bd:b0:9e:dd:dd:
         32:0f:33:c7:7e:bc:ba:0d:d5:f4:ff:2f:fc:52:f2:61:02:c1:
         5f:3d:bf:01:13:e3:29:6c:38:8f:9e:79:38:5c:d6:bc:b0:cd:
         ee:88:e3:2e:31:63:6f:32:18:84:a2:4e:78:24:dd:12:a7:d9:
         32:9c:d6:ff:f0:4d:0e:7b
-----BEGIN CERTIFICATE-----
MIIE4zCCAsugAwIBAgIBJDANBgkqhkiG9w0BAQUFADBTMRMwEQYKCZImiZPyLGQB
GRYDb3JnMRYwFAYKCZImiZPyLGQBGRYGbW9ucm9lMRAwDgYDVQQLDAdSb290LUNB
MRIwEAYDVQQDDAlSb290LUNBLTEwHhcNMTUxMDE1MTQzMzM3WhcNMTcxMDE0MTQz
MzM3WjBrMRMwEQYKCZImiZPyLGQBGRYDb3JnMRYwFAYKCZImiZPyLGQBGRYGbW9u
cm9lMQ8wDQYDVQQKDAZQT0xJVE8xEzARBgNVBAsMCkNvbXBvbmVudHMxFjAUBgNV
BAMMDU1vbnJvZV9Ob2RlXzEwggEiMA0GCSqGSIb3DQEBAQUAA4IBDwAwggEKAoIB
AQDhfg7M36op0BvlxtVCNbUejzyxjMHw5IHtkjvw3FfdXkNVJaJwheciQ6Zm7eCQ
OB5Ge1NUpTPuUB5ao7Qokfrm9Xs1F81evAg4m5+led3PAo1F36K98VViOswlO5O1
EXnGg0YwzJbcpdD90G/cvSHtMsvrmy3wzfCNXACbpXMT9DL2udqdV+g5BGw17Jik
M+ZFQW2NkwCEaddjHPz2JqUAQ+LTkN1SugCUzQZa3QUEL5XVWf+zsRsu9s6+cGx9
OfS9bJEl0bpzdOhRZ0PCkULB0l64jsSShA+TCSP3CVa68pu9oTUxU5z+7NHNLOTP
qroJyyQlWNGvnzP5M7zraC6XAgMBAAGjgakwgaYwDgYDVR0PAQH/BAQDAgWgMAkG
A1UdEwQCMAAwHQYDVR0lBBYwFAYIKwYBBQUHAwEGCCsGAQUFBwMCMB0GA1UdDgQW
BBRzui+ssweOr5UNtBLHtw1LBqg8TzAfBgNVHSMEGDAWgBTY6Bw30NT3JCyEVuAX
CucjqZTKlDAqBgNVHREEIzAhgh9Nb25yb2VfTm9kZV8xLlBPTElUTy5tb25yb2Uu
b3JnMA0GCSqGSIb3DQEBBQUAA4ICAQBnoKmuDHBEGgTK5ZpMkydeLfWXX93WUfKL
zpi7VaRhleYO8BxfLG0r6YBlVNsunZQDwtlRLsCXJ5uWKLMP5ZuaFfBnolLeCxFx
LIMVWs4tTA6ZLdv2AosvGrojgFLxM2SaI2sVoNJyCs7yKxJ9/V1Ol+RbQqHvV+qv
ty+HEEBpagcO/1yeqEwN/+k5niil0twhDmGvVxSjZW9nU/tZCtRgXDs/tiUhdA2y
L764IygY/Tg+3VA/WlTB2NQF1073HSL0mPH0mU8CoJwZffZa4k2vzUACS55yIbEI
MsNSuJtyvTxGTc2n87NfNQUst6DboJI+Dfj3/iOzSvDMIbMBFv018brpXKBIcgG7
wtg0jahD9ACJexwpfHgk8qME9onYJer0q2yafk75A+owlnB+O9RTwQQ8moIbFFNs
egA3s+AzSsTXNa6HiugQGSKahdWyTSzyE9imXMmYDbdc/8vSgTmKI3RBewkSqNqb
N/UzoXYeY74WeEYqiGjX+wk7d8JfS8ApikuBzE6Aavm6cffuZONV6GDZmglw5XbR
C59X8XvNsaRdfiJLGiyWW1sVrtAATzQtrhw/sWTZ82YmsmEnvbCe3d0yDzPHfry6
DdX0/y/8UvJhAsFfPb8BE+MpbDiPnnk4XNa8sM3uiOMuMWNvMhiEok54JN0Sp9ky
nNb/8E0Oew==
-----END CERTIFICATE-----
