Certificate:
    Data:
        Version: 3 (0x2)
        Serial Number: 37 (0x25)
    Signature Algorithm: sha1WithRSAEncryption
        Issuer: DC=org, DC=monroe, OU=Root-CA, CN=Root-CA-1
        Validity
            Not Before: Oct 15 14:34:11 2015 GMT
            Not After : Oct 14 14:34:11 2017 GMT
        Subject: DC=org, DC=monroe, O=POLITO, OU=Components, CN=Monroe_Node_1
        Subject Public Key Info:
            Public Key Algorithm: rsaEncryption
                Public-Key: (2048 bit)
                Modulus:
                    00:f1:d6:9e:01:bc:dd:0b:00:22:a0:ef:56:01:12:
                    17:dc:3c:23:09:d8:e8:39:02:13:14:ec:b4:86:e4:
                    19:45:99:8a:dc:75:8b:5b:60:20:14:bb:36:b2:d2:
                    36:e2:1c:d4:37:00:9f:16:de:37:3b:4d:6f:9d:dc:
                    79:e9:9b:a5:02:a6:20:94:5c:57:db:e2:39:3e:0c:
                    d0:4c:3f:b5:25:69:1b:4b:38:51:3f:72:a0:01:e5:
                    4a:b4:e7:e3:44:b0:3d:9d:23:1c:95:2d:2e:10:87:
                    4b:9e:c9:36:36:61:ee:f5:05:36:ab:98:78:29:8a:
                    64:a0:d1:c8:4f:f0:35:ff:2c:33:4e:e0:e0:5a:67:
                    79:45:c5:93:34:09:25:c5:a2:86:76:09:5e:fa:9e:
                    86:f7:22:88:d5:db:7c:51:89:78:7e:d1:3f:da:f1:
                    81:7a:ea:eb:da:03:2a:8e:3d:0f:5d:01:c4:ac:81:
                    0d:83:b8:77:7f:d5:bf:9c:b2:b6:c9:9b:aa:4f:9a:
                    ea:fb:a7:91:60:80:3d:5b:e6:97:4e:45:11:fe:4b:
                    0d:5e:c0:47:51:a3:fb:78:38:f6:1f:8e:7d:58:e4:
                    66:e0:de:ce:13:61:51:d1:c6:0d:47:17:fc:a4:df:
                    ea:ff:14:86:ab:34:dc:49:86:e1:2d:3b:41:4a:cd:
                    8f:4d
                Exponent: 65537 (0x10001)
        X509v3 extensions:
            X509v3 Key Usage: critical
                Digital Signature, Key Encipherment
            X509v3 Basic Constraints: 
                CA:FALSE
            X509v3 Extended Key Usage: 
                TLS Web Server Authentication, TLS Web Client Authentication
            X509v3 Subject Key Identifier: 
                F7:80:42:89:61:93:46:9C:13:CC:0D:98:6C:79:D2:E6:C5:0F:F7:20
            X509v3 Authority Key Identifier: 
                keyid:D8:E8:1C:37:D0:D4:F7:24:2C:84:56:E0:17:0A:E7:23:A9:94:CA:94

            X509v3 Subject Alternative Name: 
                DNS:Monroe_Node_1.POLITO.monroe.org
    Signature Algorithm: sha1WithRSAEncryption
         aa:cb:23:e3:94:b8:9e:ac:c3:da:71:24:bc:56:02:61:16:36:
         53:1d:f1:ae:7e:af:3d:07:e2:02:df:2c:c0:ea:0c:44:27:60:
         ee:ff:3a:e2:d5:15:fe:98:b9:24:e0:0f:11:69:ac:bf:9a:ee:
         75:b2:87:87:61:ed:8c:e9:e5:8e:f3:d7:75:c3:de:6c:f9:67:
         09:aa:f8:bb:40:fa:9f:65:c4:a0:8a:3a:8b:e2:8d:57:d5:bf:
         ec:90:f1:bf:89:46:fb:20:c8:9f:2d:9a:ec:9c:89:01:9b:64:
         62:c0:0d:f7:9a:ed:11:c2:5f:06:76:b3:f9:8b:43:8b:40:1c:
         bb:91:66:bd:e1:e0:a0:6f:d7:7d:30:fa:f5:96:5c:0e:5e:32:
         33:1a:08:29:8c:75:3e:34:3c:05:ac:b7:41:4f:81:14:85:b7:
         42:24:59:0a:83:c3:76:65:9c:b9:c0:bd:62:f5:76:b8:01:28:
         62:3a:82:d4:52:48:99:8b:db:e9:e7:2b:4d:cd:e1:cc:52:c3:
         7c:1b:33:4e:36:9f:d3:78:51:23:e0:27:97:eb:4b:1c:22:4c:
         3d:40:7c:3c:f5:7f:3b:1e:ef:e4:5f:95:df:d6:d2:45:f9:73:
         0e:76:b3:de:d7:39:7d:0e:0b:8d:6a:b2:c7:e0:26:05:47:3a:
         6c:f1:6a:36:3d:95:f6:18:f6:7b:30:33:0f:22:96:ff:0f:75:
         ca:bb:75:63:ea:ed:08:99:35:86:19:64:4d:61:d5:e1:46:be:
         dc:5a:11:4f:ce:44:97:2d:77:e2:3b:38:dc:aa:3a:3e:bb:b1:
         8a:46:df:f4:e4:7f:a5:64:f7:2c:79:f6:a8:f6:3f:e4:ee:49:
         79:0e:7d:c6:4c:ad:2c:43:15:75:20:e6:77:59:53:88:26:bc:
         43:a1:01:a1:e3:4b:0a:e7:4c:24:c9:c8:c7:74:1a:70:9c:c4:
         be:c6:c1:e0:f5:f8:c2:95:58:54:c8:24:a9:48:90:17:96:4a:
         d4:7e:6b:05:33:75:ef:99:2d:72:82:30:65:9e:44:7e:64:55:
         5c:4d:5d:a6:a2:c4:5c:9e:9e:ef:ab:35:dd:6c:eb:1a:e4:f1:
         22:5f:64:0b:7e:aa:1f:22:1a:d5:41:00:fb:52:31:f9:2c:00:
         52:07:56:8e:3e:20:9b:cf:19:12:5c:6f:f5:91:06:17:da:c0:
         a9:4b:db:34:2e:da:c8:3d:29:38:a7:5a:fd:5a:d1:14:a7:5c:
         9e:22:11:e5:0a:0a:51:94:bd:53:58:49:88:f6:0f:30:ba:e4:
         49:fd:c5:93:cb:0a:aa:67:fb:68:d9:ec:d9:37:6b:b3:87:5b:
         7f:b1:e2:fd:eb:9d:85:fb
-----BEGIN CERTIFICATE-----
MIIE4zCCAsugAwIBAgIBJTANBgkqhkiG9w0BAQUFADBTMRMwEQYKCZImiZPyLGQB
GRYDb3JnMRYwFAYKCZImiZPyLGQBGRYGbW9ucm9lMRAwDgYDVQQLDAdSb290LUNB
MRIwEAYDVQQDDAlSb290LUNBLTEwHhcNMTUxMDE1MTQzNDExWhcNMTcxMDE0MTQz
NDExWjBrMRMwEQYKCZImiZPyLGQBGRYDb3JnMRYwFAYKCZImiZPyLGQBGRYGbW9u
cm9lMQ8wDQYDVQQKDAZQT0xJVE8xEzARBgNVBAsMCkNvbXBvbmVudHMxFjAUBgNV
BAMMDU1vbnJvZV9Ob2RlXzEwggEiMA0GCSqGSIb3DQEBAQUAA4IBDwAwggEKAoIB
AQDx1p4BvN0LACKg71YBEhfcPCMJ2Og5AhMU7LSG5BlFmYrcdYtbYCAUuzay0jbi
HNQ3AJ8W3jc7TW+d3Hnpm6UCpiCUXFfb4jk+DNBMP7UlaRtLOFE/cqAB5Uq05+NE
sD2dIxyVLS4Qh0ueyTY2Ye71BTarmHgpimSg0chP8DX/LDNO4OBaZ3lFxZM0CSXF
ooZ2CV76nob3IojV23xRiXh+0T/a8YF66uvaAyqOPQ9dAcSsgQ2DuHd/1b+csrbJ
m6pPmur7p5FggD1b5pdORRH+Sw1ewEdRo/t4OPYfjn1Y5Gbg3s4TYVHRxg1HF/yk
3+r/FIarNNxJhuEtO0FKzY9NAgMBAAGjgakwgaYwDgYDVR0PAQH/BAQDAgWgMAkG
A1UdEwQCMAAwHQYDVR0lBBYwFAYIKwYBBQUHAwEGCCsGAQUFBwMCMB0GA1UdDgQW
BBT3gEKJYZNGnBPMDZhsedLmxQ/3IDAfBgNVHSMEGDAWgBTY6Bw30NT3JCyEVuAX
CucjqZTKlDAqBgNVHREEIzAhgh9Nb25yb2VfTm9kZV8xLlBPTElUTy5tb25yb2Uu
b3JnMA0GCSqGSIb3DQEBBQUAA4ICAQCqyyPjlLierMPacSS8VgJhFjZTHfGufq89
B+IC3yzA6gxEJ2Du/zri1RX+mLkk4A8Raay/mu51soeHYe2M6eWO89d1w95s+WcJ
qvi7QPqfZcSgijqL4o1X1b/skPG/iUb7IMifLZrsnIkBm2RiwA33mu0Rwl8GdrP5
i0OLQBy7kWa94eCgb9d9MPr1llwOXjIzGggpjHU+NDwFrLdBT4EUhbdCJFkKg8N2
ZZy5wL1i9Xa4AShiOoLUUkiZi9vp5ytNzeHMUsN8GzNONp/TeFEj4CeX60scIkw9
QHw89X87Hu/kX5Xf1tJF+XMOdrPe1zl9DguNarLH4CYFRzps8Wo2PZX2GPZ7MDMP
Ipb/D3XKu3Vj6u0ImTWGGWRNYdXhRr7cWhFPzkSXLXfiOzjcqjo+u7GKRt/05H+l
ZPcsefao9j/k7kl5Dn3GTK0sQxV1IOZ3WVOIJrxDoQGh40sK50wkycjHdBpwnMS+
xsHg9fjClVhUyCSpSJAXlkrUfmsFM3XvmS1ygjBlnkR+ZFVcTV2mosRcnp7vqzXd
bOsa5PEiX2QLfqofIhrVQQD7UjH5LABSB1aOPiCbzxkSXG/1kQYX2sCpS9s0LtrI
PSk4p1r9WtEUp1yeIhHlCgpRlL1TWEmI9g8wuuRJ/cWTywqqZ/to2ezZN2uzh1t/
seL9652F+w==
-----END CERTIFICATE-----
