Certificate:
    Data:
        Version: 3 (0x2)
        Serial Number: 38 (0x26)
    Signature Algorithm: sha1WithRSAEncryption
        Issuer: DC=org, DC=monroe, OU=Root-CA, CN=Root-CA-1
        Validity
            Not Before: Oct 15 14:35:12 2015 GMT
            Not After : Oct 14 14:35:12 2017 GMT
        Subject: DC=org, DC=monroe, O=POLITO, OU=Components, CN=Monroe_Node_1
        Subject Public Key Info:
            Public Key Algorithm: rsaEncryption
                Public-Key: (2048 bit)
                Modulus:
                    00:bc:fc:b9:4d:d6:ff:be:2e:08:99:55:19:99:1d:
                    33:8f:5c:3c:be:31:5a:69:c9:d2:cf:c8:13:19:83:
                    15:4a:72:e5:dc:ef:16:fc:79:9e:fe:f8:04:a6:2c:
                    41:e0:ae:7f:62:bf:72:ac:5e:d3:a3:42:39:a4:1c:
                    28:b7:35:8b:02:81:fc:41:ff:0d:e6:71:fa:3e:7f:
                    0e:44:df:97:14:25:d3:f1:76:2d:67:fb:30:1e:4c:
                    7b:3f:0b:a3:c0:5e:47:3b:af:2e:70:6a:17:8c:5c:
                    93:f9:fe:dd:66:2b:30:3c:52:f5:39:c3:d8:e5:82:
                    53:6f:4e:66:84:e3:8a:76:a2:2d:ee:6b:00:f6:5e:
                    0a:2c:5f:f3:ad:1c:8c:d9:85:1a:21:0d:42:e5:40:
                    61:92:a5:ca:58:e2:5a:10:22:68:2f:55:d2:e1:9f:
                    a3:db:1e:78:62:df:83:80:39:1e:70:1d:86:b9:a1:
                    8e:a0:27:cb:7f:b9:dd:c1:3d:1b:5f:f7:08:ee:a8:
                    36:2b:ae:e0:49:e0:d2:48:4f:87:bd:3f:69:71:4d:
                    ac:cf:3d:97:fb:cd:10:0b:66:fb:35:ed:cf:c8:7a:
                    81:be:c6:d1:21:1c:9c:23:c5:37:fa:0f:16:d0:44:
                    d2:9a:9c:7a:51:e1:8d:4d:68:dd:d1:f1:f6:af:48:
                    d3:e9
                Exponent: 65537 (0x10001)
        X509v3 extensions:
            X509v3 Key Usage: critical
                Digital Signature, Key Encipherment
            X509v3 Basic Constraints: 
                CA:FALSE
            X509v3 Extended Key Usage: 
                TLS Web Server Authentication, TLS Web Client Authentication
            X509v3 Subject Key Identifier: 
                F4:86:97:4A:7F:FE:B6:4F:42:DF:5C:C7:3A:4A:CE:AA:DB:85:E4:63
            X509v3 Authority Key Identifier: 
                keyid:D8:E8:1C:37:D0:D4:F7:24:2C:84:56:E0:17:0A:E7:23:A9:94:CA:94

            X509v3 Subject Alternative Name: 
                DNS:Monroe_Node_1.POLITO.monroe.org
    Signature Algorithm: sha1WithRSAEncryption
         4c:ae:53:44:50:00:e9:d3:a1:0b:78:3d:48:d6:17:35:32:0f:
         d1:fd:2a:93:b6:e8:b9:00:31:7b:b9:31:d6:40:10:d7:b8:81:
         f1:46:b8:c9:f1:b3:3e:33:4c:23:39:cd:c3:62:09:b1:0a:de:
         f6:dd:db:01:f3:70:41:72:ab:eb:28:97:6c:a5:29:87:d8:ec:
         c8:a8:a8:d1:f1:88:4e:ff:55:41:3d:02:3c:43:d8:a0:ca:9f:
         d3:f5:dc:6b:09:5f:57:b4:e7:3d:fe:f9:a1:f3:4d:e4:28:0c:
         e2:00:f1:73:02:4d:a9:7a:4f:db:dd:b6:01:ec:b3:6a:96:2e:
         a1:86:68:da:ec:ee:78:6d:c5:5b:c1:19:00:03:b3:a8:c2:7d:
         90:e1:80:23:10:2d:5e:25:28:8f:86:bb:d3:33:4a:1e:a7:6c:
         32:e8:de:1c:0a:10:81:47:af:97:88:b7:ef:ba:6d:83:e0:85:
         89:40:52:4b:e5:f9:a0:da:b6:e1:17:67:c1:67:dc:f7:ff:34:
         94:81:0f:9a:89:90:76:6f:29:a8:22:9b:91:7c:74:9d:18:2d:
         3c:04:ea:dc:2f:a3:4e:b3:6b:ab:97:43:ac:87:c4:8e:75:f9:
         e2:5a:16:fb:6d:7a:cd:94:99:51:54:2a:da:6c:af:8d:7d:e7:
         a3:61:28:02:51:54:d6:75:d0:21:41:e3:69:56:a2:7b:56:5b:
         84:e3:d2:f1:4b:72:00:13:92:5f:3c:14:3f:2c:90:02:52:90:
         38:21:63:56:ad:59:04:9e:8d:ed:96:6e:89:ac:75:f8:2c:be:
         ad:21:fe:b5:2f:22:72:85:c6:1c:80:57:2e:a5:72:45:9a:8f:
         b3:d9:1e:f2:32:37:92:d3:e4:03:70:d7:dd:40:25:3f:a7:7d:
         9d:cd:75:87:15:d0:b7:38:00:41:5d:a9:5c:e9:63:c9:28:91:
         d0:90:8a:a7:5d:36:65:36:0b:b2:25:eb:83:0f:5c:af:f9:12:
         a9:75:62:8c:a3:81:8b:4e:2d:cf:18:4e:05:c5:ef:15:4c:42:
         0b:dc:ac:6e:7d:bf:23:7d:44:30:a0:14:2f:77:05:50:f9:89:
         12:64:38:a1:4a:43:17:51:49:aa:19:0e:a7:38:56:4f:3b:7d:
         93:88:0e:79:b2:49:ac:31:56:41:b0:c4:1a:fd:6e:b2:bc:05:
         93:41:14:7c:0a:a8:17:62:41:2c:da:44:39:4d:3a:cd:ee:15:
         e7:71:78:f2:c8:ed:40:9e:37:f1:29:b0:f1:3b:fe:eb:5f:93:
         7a:81:fc:da:94:ed:08:d1:55:0a:52:c2:8b:5b:a5:cd:83:0e:
         dc:ef:77:38:8e:ba:34:83
-----BEGIN CERTIFICATE-----
MIIE4zCCAsugAwIBAgIBJjANBgkqhkiG9w0BAQUFADBTMRMwEQYKCZImiZPyLGQB
GRYDb3JnMRYwFAYKCZImiZPyLGQBGRYGbW9ucm9lMRAwDgYDVQQLDAdSb290LUNB
MRIwEAYDVQQDDAlSb290LUNBLTEwHhcNMTUxMDE1MTQzNTEyWhcNMTcxMDE0MTQz
NTEyWjBrMRMwEQYKCZImiZPyLGQBGRYDb3JnMRYwFAYKCZImiZPyLGQBGRYGbW9u
cm9lMQ8wDQYDVQQKDAZQT0xJVE8xEzARBgNVBAsMCkNvbXBvbmVudHMxFjAUBgNV
BAMMDU1vbnJvZV9Ob2RlXzEwggEiMA0GCSqGSIb3DQEBAQUAA4IBDwAwggEKAoIB
AQC8/LlN1v++LgiZVRmZHTOPXDy+MVppydLPyBMZgxVKcuXc7xb8eZ7++ASmLEHg
rn9iv3KsXtOjQjmkHCi3NYsCgfxB/w3mcfo+fw5E35cUJdPxdi1n+zAeTHs/C6PA
Xkc7ry5waheMXJP5/t1mKzA8UvU5w9jlglNvTmaE44p2oi3uawD2XgosX/OtHIzZ
hRohDULlQGGSpcpY4loQImgvVdLhn6PbHnhi34OAOR5wHYa5oY6gJ8t/ud3BPRtf
9wjuqDYrruBJ4NJIT4e9P2lxTazPPZf7zRALZvs17c/IeoG+xtEhHJwjxTf6DxbQ
RNKanHpR4Y1NaN3R8favSNPpAgMBAAGjgakwgaYwDgYDVR0PAQH/BAQDAgWgMAkG
A1UdEwQCMAAwHQYDVR0lBBYwFAYIKwYBBQUHAwEGCCsGAQUFBwMCMB0GA1UdDgQW
BBT0hpdKf/62T0LfXMc6Ss6q24XkYzAfBgNVHSMEGDAWgBTY6Bw30NT3JCyEVuAX
CucjqZTKlDAqBgNVHREEIzAhgh9Nb25yb2VfTm9kZV8xLlBPTElUTy5tb25yb2Uu
b3JnMA0GCSqGSIb3DQEBBQUAA4ICAQBMrlNEUADp06ELeD1I1hc1Mg/R/SqTtui5
ADF7uTHWQBDXuIHxRrjJ8bM+M0wjOc3DYgmxCt723dsB83BBcqvrKJdspSmH2OzI
qKjR8YhO/1VBPQI8Q9igyp/T9dxrCV9XtOc9/vmh803kKAziAPFzAk2pek/b3bYB
7LNqli6hhmja7O54bcVbwRkAA7Oown2Q4YAjEC1eJSiPhrvTM0oep2wy6N4cChCB
R6+XiLfvum2D4IWJQFJL5fmg2rbhF2fBZ9z3/zSUgQ+aiZB2bymoIpuRfHSdGC08
BOrcL6NOs2url0Osh8SOdfniWhb7bXrNlJlRVCrabK+NfeejYSgCUVTWddAhQeNp
VqJ7VluE49LxS3IAE5JfPBQ/LJACUpA4IWNWrVkEno3tlm6JrHX4LL6tIf61LyJy
hcYcgFcupXJFmo+z2R7yMjeS0+QDcNfdQCU/p32dzXWHFdC3OABBXalc6WPJKJHQ
kIqnXTZlNguyJeuDD1yv+RKpdWKMo4GLTi3PGE4Fxe8VTEIL3Kxufb8jfUQwoBQv
dwVQ+YkSZDihSkMXUUmqGQ6nOFZPO32TiA55skmsMVZBsMQa/W6yvAWTQRR8CqgX
YkEs2kQ5TTrN7hXncXjyyO1AnjfxKbDxO/7rX5N6gfzalO0I0VUKUsKLW6XNgw7c
73c4jro0gw==
-----END CERTIFICATE-----
