Certificate:
    Data:
        Version: 3 (0x2)
        Serial Number: 39 (0x27)
    Signature Algorithm: sha1WithRSAEncryption
        Issuer: DC=org, DC=monroe, OU=Root-CA, CN=Root-CA-1
        Validity
            Not Before: Oct 15 14:38:24 2015 GMT
            Not After : Oct 14 14:38:24 2017 GMT
        Subject: DC=org, DC=monroe, O=POLITO, OU=Components, CN=Monroe_Node_1
        Subject Public Key Info:
            Public Key Algorithm: rsaEncryption
                Public-Key: (2048 bit)
                Modulus:
                    00:99:c4:eb:82:2c:9f:3e:b0:2f:9f:13:d9:02:e8:
                    02:b1:e5:ff:d1:bb:a1:33:30:fc:b1:a1:6d:1c:c6:
                    03:7b:c6:18:be:86:71:7b:14:76:34:63:33:88:f5:
                    f4:41:91:32:50:01:e2:d3:75:ff:61:a4:f8:cc:1d:
                    f4:b8:8f:91:c1:c1:71:ea:68:26:79:c7:cd:1e:54:
                    83:3e:9b:0e:87:fa:8f:c3:3e:a9:04:17:52:eb:0a:
                    e8:6a:41:1b:be:0b:91:6f:87:20:69:af:79:b7:c0:
                    31:a5:c7:bc:fe:85:06:50:ef:76:02:1a:04:5f:0c:
                    05:bd:3a:13:18:a2:73:aa:73:d9:ac:98:f8:8c:50:
                    22:a1:73:fd:a7:3e:28:56:86:42:d8:77:2f:a2:2e:
                    65:a3:9a:b0:71:8e:bd:e8:27:12:6f:3f:8a:67:4a:
                    85:25:50:fd:c1:ee:a7:a5:1e:21:83:9a:9f:c3:d8:
                    be:17:f5:c7:a1:a2:6f:74:59:9a:fd:85:a2:81:ef:
                    19:a9:74:6d:32:32:aa:34:82:fb:d7:12:f1:56:fe:
                    f4:5d:26:47:34:af:82:ca:b4:ff:af:d1:69:84:98:
                    c2:89:92:91:73:ea:23:fa:48:42:94:ed:80:3c:18:
                    9f:6c:93:1f:c2:50:64:77:0d:24:6e:45:ed:c4:33:
                    73:25
                Exponent: 65537 (0x10001)
        X509v3 extensions:
            X509v3 Key Usage: critical
                Digital Signature, Key Encipherment
            X509v3 Basic Constraints: 
                CA:FALSE
            X509v3 Extended Key Usage: 
                TLS Web Server Authentication, TLS Web Client Authentication
            X509v3 Subject Key Identifier: 
                3E:CB:84:E5:6F:49:AE:C0:CC:D2:FD:F6:C4:24:09:66:1D:79:AD:05
            X509v3 Authority Key Identifier: 
                keyid:D8:E8:1C:37:D0:D4:F7:24:2C:84:56:E0:17:0A:E7:23:A9:94:CA:94

            X509v3 Subject Alternative Name: 
                DNS:Monroe_Node_1.POLITO.monroe.org
    Signature Algorithm: sha1WithRSAEncryption
         2e:6b:29:3d:61:8c:cd:63:87:ef:52:f5:d4:cf:23:8b:b4:f7:
         b2:88:59:28:6e:e9:6c:e9:ee:4c:a1:cb:6e:7a:ac:2f:14:6d:
         c7:af:66:c1:e1:aa:23:f0:b7:79:60:8c:3e:98:ad:81:61:f4:
         42:62:f9:14:a9:bc:b9:74:6e:c1:4d:4a:8f:46:b6:5c:5f:d2:
         6a:d8:41:1c:8a:34:50:c4:97:92:12:7e:2d:e1:fe:8a:6b:ee:
         96:ff:06:0a:bd:df:31:77:97:6d:6c:d7:eb:87:0e:27:8e:6a:
         b2:45:b0:15:8e:19:0e:b3:53:0c:63:41:52:45:71:52:a1:0e:
         0a:94:77:19:33:ed:fb:40:10:b0:5a:84:27:49:89:c0:9b:5f:
         6b:bc:4c:7f:0c:6d:3e:db:ae:c7:bb:82:31:32:19:6b:ab:a3:
         80:99:f1:29:30:a7:a7:f2:ed:a4:ff:e5:bb:dd:a1:47:57:32:
         1b:93:34:60:ee:cf:c7:8b:7d:68:bc:0c:5a:90:19:ea:83:63:
         eb:5e:30:3e:50:d1:82:f3:13:11:48:f4:bf:34:74:1f:58:0d:
         0c:88:72:d3:ee:e3:e1:c8:03:e7:b9:6b:c2:ae:bb:a6:50:c1:
         2c:be:5b:16:eb:6c:18:f1:17:66:ff:ab:aa:f6:4c:6f:7e:da:
         e6:3c:9e:13:d9:1e:7b:45:a8:b9:18:20:87:36:e5:f7:69:b5:
         31:08:00:81:71:dc:93:c5:6f:18:0a:e9:37:ab:33:23:a5:f3:
         34:cc:88:63:ad:9a:e7:4c:98:ca:31:90:84:15:e8:9b:51:d0:
         f2:c1:25:76:47:60:d4:ee:0e:6d:ee:af:85:8a:e6:9c:b0:d5:
         9e:64:91:df:e0:61:6b:75:ce:24:42:1a:0d:80:72:4f:fc:bc:
         5e:cb:2c:ee:cf:49:d0:ec:63:2c:b2:d5:ca:64:3c:bd:c1:9d:
         6e:4e:f9:81:47:9f:b3:da:c1:de:e8:82:02:9c:dd:07:4d:9d:
         cd:ec:8b:44:f9:5f:ce:30:78:dc:ff:ba:3d:8a:0a:29:f7:92:
         f6:7e:c8:9a:df:f2:cb:2b:a9:de:1e:d0:0b:fe:11:c4:d8:c9:
         30:78:01:3a:63:ad:9f:3a:c9:cb:42:d1:54:87:ba:3c:8a:c8:
         5a:be:50:d6:c1:fe:c0:b2:9e:d6:95:0a:1b:21:67:13:2d:1b:
         24:97:16:aa:85:06:36:95:26:00:b0:cf:a8:29:1b:66:1f:cc:
         8a:9b:f1:7c:5a:d1:3e:a2:93:5d:42:42:66:0b:6b:22:8c:76:
         3c:e3:99:8e:79:4a:e2:0e:ba:07:ba:1d:85:40:ff:5f:34:6f:
         8b:5b:d8:6c:30:a3:76:8d
-----BEGIN CERTIFICATE-----
MIIE4zCCAsugAwIBAgIBJzANBgkqhkiG9w0BAQUFADBTMRMwEQYKCZImiZPyLGQB
GRYDb3JnMRYwFAYKCZImiZPyLGQBGRYGbW9ucm9lMRAwDgYDVQQLDAdSb290LUNB
MRIwEAYDVQQDDAlSb290LUNBLTEwHhcNMTUxMDE1MTQzODI0WhcNMTcxMDE0MTQz
ODI0WjBrMRMwEQYKCZImiZPyLGQBGRYDb3JnMRYwFAYKCZImiZPyLGQBGRYGbW9u
cm9lMQ8wDQYDVQQKDAZQT0xJVE8xEzARBgNVBAsMCkNvbXBvbmVudHMxFjAUBgNV
BAMMDU1vbnJvZV9Ob2RlXzEwggEiMA0GCSqGSIb3DQEBAQUAA4IBDwAwggEKAoIB
AQCZxOuCLJ8+sC+fE9kC6AKx5f/Ru6EzMPyxoW0cxgN7xhi+hnF7FHY0YzOI9fRB
kTJQAeLTdf9hpPjMHfS4j5HBwXHqaCZ5x80eVIM+mw6H+o/DPqkEF1LrCuhqQRu+
C5FvhyBpr3m3wDGlx7z+hQZQ73YCGgRfDAW9OhMYonOqc9msmPiMUCKhc/2nPihW
hkLYdy+iLmWjmrBxjr3oJxJvP4pnSoUlUP3B7qelHiGDmp/D2L4X9cehom90WZr9
haKB7xmpdG0yMqo0gvvXEvFW/vRdJkc0r4LKtP+v0WmEmMKJkpFz6iP6SEKU7YA8
GJ9skx/CUGR3DSRuRe3EM3MlAgMBAAGjgakwgaYwDgYDVR0PAQH/BAQDAgWgMAkG
A1UdEwQCMAAwHQYDVR0lBBYwFAYIKwYBBQUHAwEGCCsGAQUFBwMCMB0GA1UdDgQW
BBQ+y4Tlb0muwMzS/fbEJAlmHXmtBTAfBgNVHSMEGDAWgBTY6Bw30NT3JCyEVuAX
CucjqZTKlDAqBgNVHREEIzAhgh9Nb25yb2VfTm9kZV8xLlBPTElUTy5tb25yb2Uu
b3JnMA0GCSqGSIb3DQEBBQUAA4ICAQAuayk9YYzNY4fvUvXUzyOLtPeyiFkobuls
6e5MoctueqwvFG3Hr2bB4aoj8Ld5YIw+mK2BYfRCYvkUqby5dG7BTUqPRrZcX9Jq
2EEcijRQxJeSEn4t4f6Ka+6W/wYKvd8xd5dtbNfrhw4njmqyRbAVjhkOs1MMY0FS
RXFSoQ4KlHcZM+37QBCwWoQnSYnAm19rvEx/DG0+267Hu4IxMhlrq6OAmfEpMKen
8u2k/+W73aFHVzIbkzRg7s/Hi31ovAxakBnqg2PrXjA+UNGC8xMRSPS/NHQfWA0M
iHLT7uPhyAPnuWvCrrumUMEsvlsW62wY8Rdm/6uq9kxvftrmPJ4T2R57Rai5GCCH
NuX3abUxCACBcdyTxW8YCuk3qzMjpfM0zIhjrZrnTJjKMZCEFeibUdDywSV2R2DU
7g5t7q+FiuacsNWeZJHf4GFrdc4kQhoNgHJP/Lxeyyzuz0nQ7GMsstXKZDy9wZ1u
TvmBR5+z2sHe6IICnN0HTZ3N7ItE+V/OMHjc/7o9igop95L2fsia3/LLK6neHtAL
/hHE2MkweAE6Y62fOsnLQtFUh7o8ishavlDWwf7Asp7WlQobIWcTLRsklxaqhQY2
lSYAsM+oKRtmH8yKm/F8WtE+opNdQkJmC2sijHY845mOeUriDroHuh2FQP9fNG+L
W9hsMKN2jQ==
-----END CERTIFICATE-----
