Certificate:
    Data:
        Version: 3 (0x2)
        Serial Number: 40 (0x28)
    Signature Algorithm: sha1WithRSAEncryption
        Issuer: DC=org, DC=monroe, OU=Root-CA, CN=Root-CA-1
        Validity
            Not Before: Oct 15 14:39:09 2015 GMT
            Not After : Oct 14 14:39:09 2017 GMT
        Subject: DC=org, DC=monroe, O=POLITO, OU=Components, CN=Monroe_Node_1
        Subject Public Key Info:
            Public Key Algorithm: rsaEncryption
                Public-Key: (2048 bit)
                Modulus:
                    00:a6:8b:4d:38:48:a4:ba:80:36:35:5a:9a:be:d4:
                    d2:bd:b0:87:4e:dd:75:bf:bf:0d:3c:83:d4:10:6e:
                    99:a8:6f:5b:8f:df:79:01:73:45:55:ae:46:49:a0:
                    af:7b:5a:db:22:f1:1a:94:53:2c:12:e9:d4:61:97:
                    0e:1e:94:cc:04:7d:20:e6:e3:2a:92:b4:aa:06:a4:
                    db:3d:64:bf:09:5e:4d:0c:37:ee:41:10:15:9a:ea:
                    cc:94:99:a7:6e:af:bc:27:9a:66:da:cb:c6:ef:c9:
                    50:78:59:db:e7:93:a4:6f:90:bd:4a:da:a6:95:28:
                    63:b9:73:2e:d3:ff:fa:05:14:20:f4:b6:a3:35:06:
                    c0:f0:0b:90:90:4c:6c:77:a2:0c:a5:38:86:dc:45:
                    9b:c9:3e:94:ef:24:4a:2f:c6:31:7d:97:d0:c2:0b:
                    60:d2:60:1b:76:3f:e3:7b:be:77:63:1b:23:82:8a:
                    78:df:3a:53:11:7e:cd:f4:b7:a3:74:38:9b:16:ed:
                    cc:e6:da:1d:cb:1e:c6:82:35:2d:84:80:e7:4a:00:
                    95:59:26:32:ec:86:7a:1c:b5:13:c5:f0:b8:60:92:
                    82:c0:38:46:63:30:35:ce:6c:e9:1a:db:78:67:99:
                    b5:3e:92:1e:cb:bb:e0:8d:24:39:6f:64:8e:7a:5a:
                    07:05
                Exponent: 65537 (0x10001)
        X509v3 extensions:
            X509v3 Key Usage: critical
                Digital Signature, Key Encipherment
            X509v3 Basic Constraints: 
                CA:FALSE
            X509v3 Extended Key Usage: 
                TLS Web Server Authentication, TLS Web Client Authentication
            X509v3 Subject Key Identifier: 
                43:EE:88:F0:C3:2C:05:C5:A1:2E:40:8F:CA:A2:50:E5:93:D7:FD:8F
            X509v3 Authority Key Identifier: 
                keyid:D8:E8:1C:37:D0:D4:F7:24:2C:84:56:E0:17:0A:E7:23:A9:94:CA:94

            X509v3 Subject Alternative Name: 
                DNS:Monroe_Node_1.POLITO.monroe.org
    Signature Algorithm: sha1WithRSAEncryption
         0c:8d:e9:9d:77:ae:86:ad:af:fa:02:f7:61:bd:55:a9:5f:27:
         c4:3c:5a:22:d1:b1:c8:a4:a8:02:de:8d:b0:88:7d:9c:36:d4:
         10:8a:80:ee:07:91:88:68:b1:b7:14:d1:49:f5:09:7c:79:e9:
         7b:11:a9:9d:61:ef:2b:b2:b8:6f:7f:3a:2c:f1:3c:58:0d:26:
         be:94:21:c0:0f:5a:24:92:51:c8:e8:53:27:10:6f:44:c7:49:
         39:9f:eb:3c:b5:4f:af:21:fd:04:b7:0d:ab:40:d6:75:8d:24:
         4d:a7:7f:f8:b6:eb:25:c0:1b:d7:1c:27:67:e1:4f:dd:aa:65:
         3e:ae:8b:d2:90:58:93:d4:a9:2b:ed:37:22:35:15:4c:c3:75:
         93:60:e7:5c:6c:55:f6:82:c5:4b:1e:74:a5:fb:bb:f9:3b:2f:
         04:9a:e5:72:fa:18:20:f8:3e:33:bd:30:c9:f2:e6:88:1a:e4:
         5c:68:1e:f5:94:a5:db:24:48:05:b7:84:44:e3:e5:9d:46:6b:
         72:7f:a6:34:ba:9c:8c:c3:49:69:69:a2:d1:c3:5d:6e:bf:f5:
         61:94:d5:2a:92:4c:92:ea:e9:c4:71:23:88:ea:35:59:52:d0:
         a5:51:ed:12:a1:a6:a3:3b:5f:0a:19:cd:82:b3:cb:78:53:8c:
         c0:29:5a:47:aa:93:e9:29:c9:a2:c4:99:d3:a5:63:a9:ac:45:
         3d:3f:46:ee:d7:02:fb:73:57:9a:c2:41:62:b1:57:00:06:0e:
         64:54:43:7c:a7:31:58:e1:49:09:48:6d:ff:d1:f3:80:18:52:
         63:92:6e:07:7c:9e:27:57:64:3f:47:cf:63:5d:85:83:c6:91:
         b7:f8:5a:49:77:de:04:4e:f0:64:5a:e6:13:6e:9c:d9:94:a9:
         3d:ca:40:ae:f1:ab:55:ee:60:69:d2:54:0d:db:f5:23:d7:9f:
         cd:08:2f:b4:47:84:aa:ba:7a:9f:2c:1b:e7:64:4e:af:5b:b6:
         bc:c3:8b:04:38:88:da:bf:5f:70:4f:3b:a3:9c:58:48:cb:f0:
         3e:8a:64:0b:32:6f:78:e1:17:fa:5e:9c:b5:91:4e:81:05:d5:
         90:55:db:bb:6d:23:c0:5f:a9:93:a5:0b:ad:61:86:1b:14:f4:
         df:d6:33:3c:4f:87:43:f5:32:fb:24:fd:2c:ce:b7:ba:da:fe:
         81:29:a8:bd:b1:f1:43:1b:e0:4d:0c:25:72:de:ac:74:1d:c1:
         fd:00:23:3d:f7:f7:4e:7f:66:4b:74:40:d6:86:f5:af:b7:b1:
         00:01:60:d5:c7:6f:36:31:c1:5c:5e:28:40:b3:c1:26:42:0d:
         aa:98:c1:41:09:27:06:60
-----BEGIN CERTIFICATE-----
MIIE4zCCAsugAwIBAgIBKDANBgkqhkiG9w0BAQUFADBTMRMwEQYKCZImiZPyLGQB
GRYDb3JnMRYwFAYKCZImiZPyLGQBGRYGbW9ucm9lMRAwDgYDVQQLDAdSb290LUNB
MRIwEAYDVQQDDAlSb290LUNBLTEwHhcNMTUxMDE1MTQzOTA5WhcNMTcxMDE0MTQz
OTA5WjBrMRMwEQYKCZImiZPyLGQBGRYDb3JnMRYwFAYKCZImiZPyLGQBGRYGbW9u
cm9lMQ8wDQYDVQQKDAZQT0xJVE8xEzARBgNVBAsMCkNvbXBvbmVudHMxFjAUBgNV
BAMMDU1vbnJvZV9Ob2RlXzEwggEiMA0GCSqGSIb3DQEBAQUAA4IBDwAwggEKAoIB
AQCmi004SKS6gDY1Wpq+1NK9sIdO3XW/vw08g9QQbpmob1uP33kBc0VVrkZJoK97
Wtsi8RqUUywS6dRhlw4elMwEfSDm4yqStKoGpNs9ZL8JXk0MN+5BEBWa6syUmadu
r7wnmmbay8bvyVB4Wdvnk6RvkL1K2qaVKGO5cy7T//oFFCD0tqM1BsDwC5CQTGx3
ogylOIbcRZvJPpTvJEovxjF9l9DCC2DSYBt2P+N7vndjGyOCinjfOlMRfs30t6N0
OJsW7czm2h3LHsaCNS2EgOdKAJVZJjLshnoctRPF8LhgkoLAOEZjMDXObOka23hn
mbU+kh7Lu+CNJDlvZI56WgcFAgMBAAGjgakwgaYwDgYDVR0PAQH/BAQDAgWgMAkG
A1UdEwQCMAAwHQYDVR0lBBYwFAYIKwYBBQUHAwEGCCsGAQUFBwMCMB0GA1UdDgQW
BBRD7ojwwywFxaEuQI/KolDlk9f9jzAfBgNVHSMEGDAWgBTY6Bw30NT3JCyEVuAX
CucjqZTKlDAqBgNVHREEIzAhgh9Nb25yb2VfTm9kZV8xLlBPTElUTy5tb25yb2Uu
b3JnMA0GCSqGSIb3DQEBBQUAA4ICAQAMjemdd66Gra/6AvdhvVWpXyfEPFoi0bHI
pKgC3o2wiH2cNtQQioDuB5GIaLG3FNFJ9Ql8eel7EamdYe8rsrhvfzos8TxYDSa+
lCHAD1okklHI6FMnEG9Ex0k5n+s8tU+vIf0Etw2rQNZ1jSRNp3/4tuslwBvXHCdn
4U/dqmU+rovSkFiT1Kkr7TciNRVMw3WTYOdcbFX2gsVLHnSl+7v5Oy8EmuVy+hgg
+D4zvTDJ8uaIGuRcaB71lKXbJEgFt4RE4+WdRmtyf6Y0upyMw0lpaaLRw11uv/Vh
lNUqkkyS6unEcSOI6jVZUtClUe0SoaajO18KGc2Cs8t4U4zAKVpHqpPpKcmixJnT
pWOprEU9P0bu1wL7c1eawkFisVcABg5kVEN8pzFY4UkJSG3/0fOAGFJjkm4HfJ4n
V2Q/R89jXYWDxpG3+FpJd94ETvBkWuYTbpzZlKk9ykCu8atV7mBp0lQN2/Uj15/N
CC+0R4SqunqfLBvnZE6vW7a8w4sEOIjav19wTzujnFhIy/A+imQLMm944Rf6Xpy1
kU6BBdWQVdu7bSPAX6mTpQutYYYbFPTf1jM8T4dD9TL7JP0szre62v6BKai9sfFD
G+BNDCVy3qx0HcH9ACM99/dOf2ZLdEDWhvWvt7EAAWDVx282McFcXihAs8EmQg2q
mMFBCScGYA==
-----END CERTIFICATE-----
