Certificate:
    Data:
        Version: 3 (0x2)
        Serial Number: 41 (0x29)
    Signature Algorithm: sha1WithRSAEncryption
        Issuer: DC=org, DC=monroe, OU=Root-CA, CN=Root-CA-1
        Validity
            Not Before: Oct 16 06:08:49 2015 GMT
            Not After : Oct 15 06:08:49 2017 GMT
        Subject: DC=org, DC=monroe, O=POLITO, OU=Components, CN=Monroe_Node_1
        Subject Public Key Info:
            Public Key Algorithm: rsaEncryption
                Public-Key: (2048 bit)
                Modulus:
                    00:de:39:28:e7:ef:9d:c2:3d:49:e5:9c:31:59:ee:
                    ab:1c:12:58:60:30:f8:a5:e8:fc:6f:27:f0:55:54:
                    17:cb:46:9a:c5:d1:64:f8:5a:1a:c4:8c:f5:5f:5e:
                    0e:7a:63:25:1e:fb:7c:3c:9b:78:3f:45:e2:e0:10:
                    75:8f:94:a6:d2:72:1e:c1:72:a5:82:86:f5:e1:e3:
                    97:32:b5:61:0f:eb:99:55:94:d3:33:48:f2:f5:50:
                    7f:a6:19:06:a2:db:7e:1e:ae:43:2a:e5:fd:a6:85:
                    77:06:1d:7c:5c:be:2d:7c:4c:9a:85:cc:b7:24:30:
                    14:60:40:34:9f:5b:8d:ed:b6:d6:9d:79:33:3e:d3:
                    09:b7:0e:42:c0:ae:ea:22:2e:33:38:fb:90:27:f9:
                    29:a0:0e:bf:95:7d:1a:48:40:8b:43:5e:8a:15:54:
                    da:48:75:3d:bb:e9:c6:2d:26:d6:ca:f0:ae:1a:e5:
                    95:14:e2:80:3e:85:48:be:ff:fa:26:36:3e:9a:bc:
                    a9:0f:79:7f:3d:bd:66:63:20:21:c2:e8:e0:eb:9d:
                    37:e4:31:0c:71:15:26:16:34:18:a0:dd:90:73:e7:
                    92:2f:16:ed:3d:f4:9e:3f:46:aa:0c:cc:7d:09:87:
                    42:b2:d2:c8:69:1b:a1:e2:fe:30:c8:6d:0f:2c:63:
                    72:07
                Exponent: 65537 (0x10001)
        X509v3 extensions:
            X509v3 Key Usage: critical
                Digital Signature, Key Encipherment
            X509v3 Basic Constraints: 
                CA:FALSE
            X509v3 Extended Key Usage: 
                TLS Web Server Authentication, TLS Web Client Authentication
            X509v3 Subject Key Identifier: 
                AF:B2:08:B7:67:70:19:C0:87:0E:67:24:F4:FD:2E:72:03:C2:57:F2
            X509v3 Authority Key Identifier: 
                keyid:D8:E8:1C:37:D0:D4:F7:24:2C:84:56:E0:17:0A:E7:23:A9:94:CA:94

            X509v3 Subject Alternative Name: 
                DNS:Monroe_Node_1.POLITO.monroe.org
    Signature Algorithm: sha1WithRSAEncryption
         71:6a:45:aa:9e:2b:bd:84:7f:cd:f2:b6:90:51:62:23:d4:8e:
         b9:ce:78:98:d2:f7:d6:d8:9a:88:07:5d:76:ce:89:d7:20:a4:
         ba:3c:ba:47:92:7b:32:2a:22:73:13:44:a0:63:98:4e:98:fc:
         37:03:b3:06:c5:c0:b0:6e:15:86:a4:57:b2:1a:34:f4:13:c6:
         32:2c:bd:28:08:13:9a:e0:34:9f:4a:38:3b:36:b5:e2:3f:b6:
         7a:f3:97:19:ed:2c:6c:f6:29:ca:2b:53:47:aa:11:72:66:55:
         17:94:43:d5:24:e3:6a:a8:15:8f:cf:07:4d:49:bb:b3:51:6b:
         87:a7:03:3f:41:d8:ac:bc:a9:91:de:08:c0:cd:d0:fc:d9:89:
         90:c0:92:84:f9:9f:e5:5c:7d:a4:91:4c:7c:50:1f:f2:f8:64:
         86:d8:96:6b:88:b7:75:35:93:4a:71:23:fc:34:42:29:7e:e4:
         3d:dc:0d:61:78:98:3b:c6:df:68:01:3d:bc:24:37:f6:12:5e:
         a3:7a:53:0e:fc:e7:a6:1e:29:cb:9b:a9:78:37:61:33:dd:44:
         67:df:04:d3:7e:ef:d2:95:da:71:98:7d:77:de:39:73:79:d3:
         b7:1c:47:19:be:22:84:c6:75:6c:74:30:06:c1:bb:64:0b:5f:
         18:e0:e5:58:5b:f7:2e:ed:a1:e4:5a:0d:d5:82:17:ae:f5:14:
         af:3b:8d:b8:61:f5:56:f0:3a:d3:0a:bc:59:71:59:58:b9:97:
         73:33:68:9d:c4:66:56:15:44:7f:a6:7e:c1:78:85:e8:eb:f0:
         00:80:9a:ea:0f:38:05:a6:4c:0d:3f:cd:d1:81:e5:07:d5:61:
         f1:83:92:78:54:f4:af:72:f1:5d:d1:5e:06:19:88:5f:2e:61:
         78:67:0f:7b:09:d4:65:24:e0:f7:73:a4:67:c5:32:c5:9f:1e:
         bc:97:e9:9a:27:47:15:14:7b:83:2a:34:ed:32:48:a3:99:77:
         9f:8a:2c:dc:da:8d:da:96:49:6b:93:8d:f8:32:77:55:0d:d8:
         ec:eb:02:64:5a:dc:eb:ff:3e:aa:e1:9c:54:0c:a0:8d:30:d4:
         80:0c:f3:e7:31:17:b0:54:a0:6a:f7:49:c6:e5:f4:a4:3e:da:
         9b:71:f7:46:3c:d1:32:4e:d9:3e:36:42:3a:6d:73:8a:c5:17:
         de:04:09:9c:a8:44:75:63:43:b0:f6:86:9c:ae:9e:0f:7c:cd:
         57:c8:56:5c:1b:35:a3:f8:c1:05:ff:f0:41:d9:72:92:71:67:
         e2:1e:5b:9b:f2:a4:3b:a3:f8:03:29:40:97:65:a8:58:51:b4:
         cd:1d:41:17:8f:e4:67:fe
-----BEGIN CERTIFICATE-----
MIIE4zCCAsugAwIBAgIBKTANBgkqhkiG9w0BAQUFADBTMRMwEQYKCZImiZPyLGQB
GRYDb3JnMRYwFAYKCZImiZPyLGQBGRYGbW9ucm9lMRAwDgYDVQQLDAdSb290LUNB
MRIwEAYDVQQDDAlSb290LUNBLTEwHhcNMTUxMDE2MDYwODQ5WhcNMTcxMDE1MDYw
ODQ5WjBrMRMwEQYKCZImiZPyLGQBGRYDb3JnMRYwFAYKCZImiZPyLGQBGRYGbW9u
cm9lMQ8wDQYDVQQKDAZQT0xJVE8xEzARBgNVBAsMCkNvbXBvbmVudHMxFjAUBgNV
BAMMDU1vbnJvZV9Ob2RlXzEwggEiMA0GCSqGSIb3DQEBAQUAA4IBDwAwggEKAoIB
AQDeOSjn753CPUnlnDFZ7qscElhgMPil6PxvJ/BVVBfLRprF0WT4WhrEjPVfXg56
YyUe+3w8m3g/ReLgEHWPlKbSch7BcqWChvXh45cytWEP65lVlNMzSPL1UH+mGQai
234erkMq5f2mhXcGHXxcvi18TJqFzLckMBRgQDSfW43tttadeTM+0wm3DkLAruoi
LjM4+5An+SmgDr+VfRpIQItDXooVVNpIdT276cYtJtbK8K4a5ZUU4oA+hUi+//om
Nj6avKkPeX89vWZjICHC6ODrnTfkMQxxFSYWNBig3ZBz55IvFu099J4/RqoMzH0J
h0Ky0shpG6Hi/jDIbQ8sY3IHAgMBAAGjgakwgaYwDgYDVR0PAQH/BAQDAgWgMAkG
A1UdEwQCMAAwHQYDVR0lBBYwFAYIKwYBBQUHAwEGCCsGAQUFBwMCMB0GA1UdDgQW
BBSvsgi3Z3AZwIcOZyT0/S5yA8JX8jAfBgNVHSMEGDAWgBTY6Bw30NT3JCyEVuAX
CucjqZTKlDAqBgNVHREEIzAhgh9Nb25yb2VfTm9kZV8xLlBPTElUTy5tb25yb2Uu
b3JnMA0GCSqGSIb3DQEBBQUAA4ICAQBxakWqniu9hH/N8raQUWIj1I65zniY0vfW
2JqIB112zonXIKS6PLpHknsyKiJzE0SgY5hOmPw3A7MGxcCwbhWGpFeyGjT0E8Yy
LL0oCBOa4DSfSjg7NrXiP7Z685cZ7Sxs9inKK1NHqhFyZlUXlEPVJONqqBWPzwdN
SbuzUWuHpwM/QdisvKmR3gjAzdD82YmQwJKE+Z/lXH2kkUx8UB/y+GSG2JZriLd1
NZNKcSP8NEIpfuQ93A1heJg7xt9oAT28JDf2El6jelMO/OemHinLm6l4N2Ez3URn
3wTTfu/SldpxmH133jlzedO3HEcZviKExnVsdDAGwbtkC18Y4OVYW/cu7aHkWg3V
gheu9RSvO424YfVW8DrTCrxZcVlYuZdzM2idxGZWFUR/pn7BeIXo6/AAgJrqDzgF
pkwNP83RgeUH1WHxg5J4VPSvcvFd0V4GGYhfLmF4Zw97CdRlJOD3c6RnxTLFnx68
l+maJ0cVFHuDKjTtMkijmXefiizc2o3alklrk434MndVDdjs6wJkWtzr/z6q4ZxU
DKCNMNSADPPnMRewVKBq90nG5fSkPtqbcfdGPNEyTtk+NkI6bXOKxRfeBAmcqER1
Y0Ow9oacrp4PfM1XyFZcGzWj+MEF//BB2XKScWfiHlub8qQ7o/gDKUCXZahYUbTN
HUEXj+Rn/g==
-----END CERTIFICATE-----
