Certificate:
    Data:
        Version: 3 (0x2)
        Serial Number: 42 (0x2a)
    Signature Algorithm: sha1WithRSAEncryption
        Issuer: DC=org, DC=monroe, OU=Root-CA, CN=Root-CA-1
        Validity
            Not Before: Oct 16 06:08:58 2015 GMT
            Not After : Oct 15 06:08:58 2017 GMT
        Subject: DC=org, DC=monroe, O=POLITO, OU=Components, CN=Monroe_Node_1
        Subject Public Key Info:
            Public Key Algorithm: rsaEncryption
                Public-Key: (2048 bit)
                Modulus:
                    00:a0:ce:e1:db:d9:43:f5:ca:88:18:30:56:d1:ea:
                    b3:7b:f2:4a:2c:59:41:3d:81:be:6c:84:ee:51:3d:
                    fd:3f:15:51:64:80:27:99:8a:5c:55:a1:c0:a8:c3:
                    59:a1:3f:85:af:a5:3d:ae:e0:45:66:d5:92:50:3c:
                    9e:70:3f:68:53:87:cf:b3:96:3f:ff:1c:c9:b2:0c:
                    e1:87:26:63:2a:c2:e7:f2:1c:c5:3e:5c:71:4d:eb:
                    05:32:e2:81:dd:88:3c:d5:c3:40:12:a6:e3:7b:a6:
                    d8:6f:23:01:7a:2d:4f:17:da:13:49:43:35:16:71:
                    56:22:7c:4d:82:c8:00:96:62:55:8a:c1:38:37:18:
                    35:7d:79:7f:87:f1:bc:fe:8b:65:5f:19:f7:43:88:
                    d6:00:36:7c:00:5f:d8:43:74:bc:9b:5f:c5:d1:50:
                    f3:f4:47:ac:f3:c7:53:4e:98:a5:94:96:16:7c:20:
                    37:be:ef:2e:a2:29:1f:6b:5f:16:cc:ef:09:61:52:
                    db:3f:b3:92:71:ea:0a:2c:44:47:ea:a6:ef:2e:18:
                    b0:a1:ed:4f:77:d4:00:49:76:aa:10:eb:75:cb:c5:
                    6a:4c:fa:98:85:c1:3d:58:df:96:ad:db:95:56:9f:
                    33:52:c1:d5:ee:bc:de:ce:8e:54:72:e0:0e:58:f5:
                    0f:e5
                Exponent: 65537 (0x10001)
        X509v3 extensions:
            X509v3 Key Usage: critical
                Digital Signature, Key Encipherment
            X509v3 Basic Constraints: 
                CA:FALSE
            X509v3 Extended Key Usage: 
                TLS Web Server Authentication, TLS Web Client Authentication
            X509v3 Subject Key Identifier: 
                F8:93:BB:E9:2E:FB:BF:4B:51:C7:3C:BB:8E:8B:D8:7B:E2:71:2B:27
            X509v3 Authority Key Identifier: 
                keyid:D8:E8:1C:37:D0:D4:F7:24:2C:84:56:E0:17:0A:E7:23:A9:94:CA:94

            X509v3 Subject Alternative Name: 
                DNS:Monroe_Node_1.POLITO.monroe.org
    Signature Algorithm: sha1WithRSAEncryption
         38:19:3b:31:20:8f:4c:ae:4b:90:44:0a:b1:7f:68:8f:77:87:
         ea:3d:07:cf:b0:d2:37:70:0b:4b:da:45:b7:f0:33:8a:ea:54:
         f7:dc:d3:71:5f:62:ff:b8:7a:23:21:a7:e7:b4:3e:e9:61:e2:
         b1:5a:a0:5a:6f:30:1c:a6:70:51:1c:68:89:bb:50:9f:09:80:
         3c:96:4b:c8:85:54:79:d0:34:7c:2e:54:3e:53:00:45:7c:6e:
         30:9d:d3:5a:53:31:94:02:f9:5a:2e:57:84:86:e0:64:0d:35:
         1f:ee:d9:d6:c0:ba:c2:2a:2e:9a:e3:bd:2a:e3:e9:3b:09:93:
         f2:98:11:30:a9:84:e7:0d:03:52:71:db:b1:51:8d:27:61:97:
         7b:34:cc:36:fd:33:26:ad:83:5e:bc:41:e4:70:03:a2:49:54:
         30:b6:dd:ee:2e:f1:39:e6:39:41:d4:12:1d:f1:15:02:fd:39:
         bd:03:11:72:94:d6:32:da:5c:7c:00:69:35:fb:24:a8:df:a7:
         fa:ad:ed:04:99:a9:d3:6e:7f:39:5a:02:12:13:9b:3e:9f:84:
         57:1d:d2:3e:88:a8:79:22:bd:9d:de:59:8a:4a:1c:51:8f:69:
         dc:2a:f2:aa:bd:de:b9:77:30:56:ec:cf:4f:46:69:db:b8:29:
         07:56:8b:b3:6e:79:91:f0:47:67:13:45:91:47:35:a7:49:20:
         72:40:51:6d:73:e3:8d:19:f7:de:f3:0a:5a:a6:c9:36:24:24:
         1a:0a:99:1b:45:93:78:b4:b3:d3:e2:91:bc:3d:7e:f8:1a:6b:
         82:39:64:26:bf:3e:1a:11:cb:8f:71:a9:13:04:68:43:90:d3:
         56:0f:0a:21:e6:45:35:92:ff:47:31:06:af:b0:9b:32:d3:8a:
         69:1d:93:47:8f:8b:ae:bc:66:ba:38:cf:2c:4c:ba:5d:25:91:
         79:a5:29:9d:a7:b9:c3:7f:a9:25:79:a0:1e:cd:01:2e:70:6e:
         47:ad:6b:68:69:1c:1a:ef:28:9c:b3:95:8f:47:db:b7:10:ba:
         e4:95:94:5c:12:ee:ce:35:a8:bb:36:55:a2:27:9b:a1:55:da:
         46:1f:4c:cf:20:67:6d:7b:09:d8:2d:5b:10:59:27:d1:88:81:
         9f:df:f1:5d:38:73:96:ba:db:d1:c6:04:7c:fc:3d:0d:1e:ac:
         f9:04:b4:aa:d2:ce:09:cc:05:ca:29:24:7e:84:28:dc:18:6f:
         f2:c9:87:7e:a9:85:17:4f:01:a5:1b:a2:7b:cc:ba:ca:ba:4d:
         e4:28:d6:b5:49:a4:37:0f:b6:df:e3:97:87:c0:69:1a:a7:b6:
         6f:90:0c:f7:b0:37:7a:e6
-----BEGIN CERTIFICATE-----
MIIE4zCCAsugAwIBAgIBKjANBgkqhkiG9w0BAQUFADBTMRMwEQYKCZImiZPyLGQB
GRYDb3JnMRYwFAYKCZImiZPyLGQBGRYGbW9ucm9lMRAwDgYDVQQLDAdSb290LUNB
MRIwEAYDVQQDDAlSb290LUNBLTEwHhcNMTUxMDE2MDYwODU4WhcNMTcxMDE1MDYw
ODU4WjBrMRMwEQYKCZImiZPyLGQBGRYDb3JnMRYwFAYKCZImiZPyLGQBGRYGbW9u
cm9lMQ8wDQYDVQQKDAZQT0xJVE8xEzARBgNVBAsMCkNvbXBvbmVudHMxFjAUBgNV
BAMMDU1vbnJvZV9Ob2RlXzEwggEiMA0GCSqGSIb3DQEBAQUAA4IBDwAwggEKAoIB
AQCgzuHb2UP1yogYMFbR6rN78kosWUE9gb5shO5RPf0/FVFkgCeZilxVocCow1mh
P4WvpT2u4EVm1ZJQPJ5wP2hTh8+zlj//HMmyDOGHJmMqwufyHMU+XHFN6wUy4oHd
iDzVw0ASpuN7pthvIwF6LU8X2hNJQzUWcVYifE2CyACWYlWKwTg3GDV9eX+H8bz+
i2VfGfdDiNYANnwAX9hDdLybX8XRUPP0R6zzx1NOmKWUlhZ8IDe+7y6iKR9rXxbM
7wlhUts/s5Jx6gosREfqpu8uGLCh7U931ABJdqoQ63XLxWpM+piFwT1Y35at25VW
nzNSwdXuvN7OjlRy4A5Y9Q/lAgMBAAGjgakwgaYwDgYDVR0PAQH/BAQDAgWgMAkG
A1UdEwQCMAAwHQYDVR0lBBYwFAYIKwYBBQUHAwEGCCsGAQUFBwMCMB0GA1UdDgQW
BBT4k7vpLvu/S1HHPLuOi9h74nErJzAfBgNVHSMEGDAWgBTY6Bw30NT3JCyEVuAX
CucjqZTKlDAqBgNVHREEIzAhgh9Nb25yb2VfTm9kZV8xLlBPTElUTy5tb25yb2Uu
b3JnMA0GCSqGSIb3DQEBBQUAA4ICAQA4GTsxII9MrkuQRAqxf2iPd4fqPQfPsNI3
cAtL2kW38DOK6lT33NNxX2L/uHojIafntD7pYeKxWqBabzAcpnBRHGiJu1CfCYA8
lkvIhVR50DR8LlQ+UwBFfG4wndNaUzGUAvlaLleEhuBkDTUf7tnWwLrCKi6a470q
4+k7CZPymBEwqYTnDQNScduxUY0nYZd7NMw2/TMmrYNevEHkcAOiSVQwtt3uLvE5
5jlB1BId8RUC/Tm9AxFylNYy2lx8AGk1+ySo36f6re0EmanTbn85WgISE5s+n4RX
HdI+iKh5Ir2d3lmKShxRj2ncKvKqvd65dzBW7M9PRmnbuCkHVouzbnmR8EdnE0WR
RzWnSSByQFFtc+ONGffe8wpapsk2JCQaCpkbRZN4tLPT4pG8PX74GmuCOWQmvz4a
EcuPcakTBGhDkNNWDwoh5kU1kv9HMQavsJsy04ppHZNHj4uuvGa6OM8sTLpdJZF5
pSmdp7nDf6kleaAezQEucG5HrWtoaRwa7yics5WPR9u3ELrklZRcEu7ONai7NlWi
J5uhVdpGH0zPIGdtewnYLVsQWSfRiIGf3/FdOHOWutvRxgR8/D0NHqz5BLSq0s4J
zAXKKSR+hCjcGG/yyYd+qYUXTwGlG6J7zLrKuk3kKNa1SaQ3D7bf45eHwGkap7Zv
kAz3sDd65g==
-----END CERTIFICATE-----
