Certificate:
    Data:
        Version: 3 (0x2)
        Serial Number: 43 (0x2b)
    Signature Algorithm: sha1WithRSAEncryption
        Issuer: DC=org, DC=monroe, OU=Root-CA, CN=Root-CA-1
        Validity
            Not Before: Oct 16 06:11:38 2015 GMT
            Not After : Oct 15 06:11:38 2017 GMT
        Subject: DC=org, DC=monroe, O=POLITO, OU=Components, CN=Monroe_Node_1
        Subject Public Key Info:
            Public Key Algorithm: rsaEncryption
                Public-Key: (2048 bit)
                Modulus:
                    00:a3:d9:a0:dd:b8:11:df:73:c5:3b:2f:67:2b:09:
                    a6:9e:ca:c8:45:77:a4:58:06:8c:95:47:eb:a5:69:
                    63:bd:d0:39:37:9d:f2:2d:28:8d:31:84:fe:1c:ef:
                    30:45:b8:54:2c:b8:68:22:61:c1:38:01:e9:1b:27:
                    a0:06:f0:79:f5:09:92:71:4c:e0:ac:fb:31:e3:a9:
                    c8:3c:39:6f:a3:a5:f6:e4:1d:61:82:9f:17:79:49:
                    7b:ac:92:54:57:44:29:76:9f:ae:01:66:e7:dd:e3:
                    a7:7f:a8:52:b4:18:24:07:f5:f4:38:34:76:91:ce:
                    c0:d9:99:5c:db:ed:b0:6e:f3:f9:2e:8d:f5:09:30:
                    81:2f:3a:35:e1:1d:08:52:0d:d2:96:31:58:1f:b6:
                    b6:f4:6c:42:e7:7c:0a:82:7a:19:3a:e9:ff:26:d7:
                    88:9e:28:1e:6c:f8:6b:a6:68:72:0a:5f:26:30:f8:
                    fa:12:2a:61:a9:a2:ed:66:06:4f:4b:ca:56:4b:91:
                    b8:63:95:b3:af:3b:87:44:19:15:75:c5:1c:48:00:
                    37:4f:3d:26:c1:a7:06:7e:39:2b:bb:b5:6c:e6:2e:
                    00:e4:85:68:ef:0d:d7:c0:2a:54:8f:40:36:47:81:
                    12:a3:75:49:0c:96:e3:5f:7c:82:ca:ea:88:b1:aa:
                    55:87
                Exponent: 65537 (0x10001)
        X509v3 extensions:
            X509v3 Key Usage: critical
                Digital Signature, Key Encipherment
            X509v3 Basic Constraints: 
                CA:FALSE
            X509v3 Extended Key Usage: 
                TLS Web Server Authentication, TLS Web Client Authentication
            X509v3 Subject Key Identifier: 
                72:82:78:12:83:E9:B6:69:C0:E2:67:1E:2A:42:E1:4E:16:76:D5:44
            X509v3 Authority Key Identifier: 
                keyid:D8:E8:1C:37:D0:D4:F7:24:2C:84:56:E0:17:0A:E7:23:A9:94:CA:94

            X509v3 Subject Alternative Name: 
                DNS:Monroe_Node_1.POLITO.monroe.org
    Signature Algorithm: sha1WithRSAEncryption
         a3:41:aa:d3:29:62:8e:79:1a:2e:52:fd:89:e3:dc:e5:cb:28:
         35:0a:88:ca:30:44:db:d8:a1:f9:53:c9:48:a4:a6:f4:68:08:
         58:11:d1:33:5a:b7:b1:54:05:44:a0:e3:ff:ca:da:08:84:af:
         f2:b7:34:e1:07:c5:93:e5:89:63:e1:4a:4c:ce:ef:7c:62:03:
         56:5e:a3:06:73:45:ab:3d:5b:95:3c:a4:6f:04:2b:31:e5:90:
         7d:b3:13:ad:45:42:b9:5b:70:62:0e:c4:f5:a6:e3:da:fb:5d:
         69:f6:e3:a4:93:e2:fb:df:31:45:ed:93:0f:1e:7f:2d:21:c4:
         7e:14:2c:53:28:7c:89:b6:22:9d:98:d3:7f:f8:70:47:d2:0a:
         72:b6:32:08:35:7d:5c:3b:6c:d5:e1:97:53:52:92:59:ee:6a:
         1c:4c:45:26:66:ca:e1:f1:55:d7:68:78:96:12:d4:5d:59:5b:
         d6:af:30:b0:fe:82:33:e6:61:9c:36:bb:7e:3d:da:ca:1d:f5:
         8f:1e:4c:2e:8a:93:26:f1:a0:d8:41:dd:94:ab:59:dc:87:32:
         08:9d:3b:39:8e:15:37:fd:62:d3:31:30:07:97:36:cd:f8:20:
         16:39:99:99:ae:ec:46:f9:0e:b4:16:61:4c:c0:31:7b:1d:8c:
         70:23:68:31:ca:f9:41:62:51:61:11:9d:b7:7e:d8:f4:80:36:
         b0:8d:bd:bb:41:18:79:7f:d9:9a:c4:32:e8:5f:fb:fb:d3:2d:
         fa:81:db:cb:50:07:02:a4:c6:93:36:3d:a3:a5:d5:10:b0:2f:
         36:78:8d:c0:1f:b6:5f:0f:09:ba:95:72:4f:cf:5e:ec:11:f8:
         03:5e:36:c0:40:fc:69:7b:cc:26:ff:05:4a:fd:05:b1:85:ae:
         5d:87:6e:22:48:d6:2c:dd:20:99:e7:68:2c:b9:98:61:e8:e6:
         d5:cb:16:68:9a:23:cc:d3:f5:36:f9:ef:6a:5c:2b:7d:65:77:
         cc:6e:b5:1e:ed:ed:09:90:25:2d:e2:22:68:ad:01:8f:5b:1e:
         5f:69:df:4c:64:c0:bd:cb:6a:dd:d0:50:4b:8f:31:2c:ff:3f:
         da:96:e6:dd:63:03:09:f0:75:83:94:5b:c3:04:1f:d2:ca:5f:
         61:fe:c2:e7:e3:57:f4:9f:3c:5b:01:2e:69:34:3f:cb:09:88:
         3d:a1:a2:43:00:de:f1:ce:1b:6b:f4:7d:e7:f9:23:b3:a5:1e:
         23:8a:a2:45:8f:b0:cc:9b:a9:a8:2f:03:ff:44:a2:9f:b9:a8:
         a6:ff:67:73:3d:2b:86:c7:53:1c:71:1e:18:4b:4b:4f:c9:82:
         1a:64:91:05:f7:70:a2:af
-----BEGIN CERTIFICATE-----
MIIE4zCCAsugAwIBAgIBKzANBgkqhkiG9w0BAQUFADBTMRMwEQYKCZImiZPyLGQB
GRYDb3JnMRYwFAYKCZImiZPyLGQBGRYGbW9ucm9lMRAwDgYDVQQLDAdSb290LUNB
MRIwEAYDVQQDDAlSb290LUNBLTEwHhcNMTUxMDE2MDYxMTM4WhcNMTcxMDE1MDYx
MTM4WjBrMRMwEQYKCZImiZPyLGQBGRYDb3JnMRYwFAYKCZImiZPyLGQBGRYGbW9u
cm9lMQ8wDQYDVQQKDAZQT0xJVE8xEzARBgNVBAsMCkNvbXBvbmVudHMxFjAUBgNV
BAMMDU1vbnJvZV9Ob2RlXzEwggEiMA0GCSqGSIb3DQEBAQUAA4IBDwAwggEKAoIB
AQCj2aDduBHfc8U7L2crCaaeyshFd6RYBoyVR+ulaWO90Dk3nfItKI0xhP4c7zBF
uFQsuGgiYcE4AekbJ6AG8Hn1CZJxTOCs+zHjqcg8OW+jpfbkHWGCnxd5SXusklRX
RCl2n64BZufd46d/qFK0GCQH9fQ4NHaRzsDZmVzb7bBu8/kujfUJMIEvOjXhHQhS
DdKWMVgftrb0bELnfAqCehk66f8m14ieKB5s+GumaHIKXyYw+PoSKmGpou1mBk9L
ylZLkbhjlbOvO4dEGRV1xRxIADdPPSbBpwZ+OSu7tWzmLgDkhWjvDdfAKlSPQDZH
gRKjdUkMluNffILK6oixqlWHAgMBAAGjgakwgaYwDgYDVR0PAQH/BAQDAgWgMAkG
A1UdEwQCMAAwHQYDVR0lBBYwFAYIKwYBBQUHAwEGCCsGAQUFBwMCMB0GA1UdDgQW
BBRygngSg+m2acDiZx4qQuFOFnbVRDAfBgNVHSMEGDAWgBTY6Bw30NT3JCyEVuAX
CucjqZTKlDAqBgNVHREEIzAhgh9Nb25yb2VfTm9kZV8xLlBPTElUTy5tb25yb2Uu
b3JnMA0GCSqGSIb3DQEBBQUAA4ICAQCjQarTKWKOeRouUv2J49zlyyg1CojKMETb
2KH5U8lIpKb0aAhYEdEzWrexVAVEoOP/ytoIhK/ytzThB8WT5Ylj4UpMzu98YgNW
XqMGc0WrPVuVPKRvBCsx5ZB9sxOtRUK5W3BiDsT1puPa+11p9uOkk+L73zFF7ZMP
Hn8tIcR+FCxTKHyJtiKdmNN/+HBH0gpytjIINX1cO2zV4ZdTUpJZ7mocTEUmZsrh
8VXXaHiWEtRdWVvWrzCw/oIz5mGcNrt+PdrKHfWPHkwuipMm8aDYQd2Uq1nchzII
nTs5jhU3/WLTMTAHlzbN+CAWOZmZruxG+Q60FmFMwDF7HYxwI2gxyvlBYlFhEZ23
ftj0gDawjb27QRh5f9maxDLoX/v70y36gdvLUAcCpMaTNj2jpdUQsC82eI3AH7Zf
Dwm6lXJPz17sEfgDXjbAQPxpe8wm/wVK/QWxha5dh24iSNYs3SCZ52gsuZhh6ObV
yxZomiPM0/U2+e9qXCt9ZXfMbrUe7e0JkCUt4iJorQGPWx5fad9MZMC9y2rd0FBL
jzEs/z/alubdYwMJ8HWDlFvDBB/Syl9h/sLn41f0nzxbAS5pND/LCYg9oaJDAN7x
zhtr9H3n+SOzpR4jiqJFj7DMm6moLwP/RKKfuaim/2dzPSuGx1MccR4YS0tPyYIa
ZJEF93Cirw==
-----END CERTIFICATE-----
