Certificate:
    Data:
        Version: 3 (0x2)
        Serial Number: 44 (0x2c)
    Signature Algorithm: sha1WithRSAEncryption
        Issuer: DC=org, DC=monroe, OU=Root-CA, CN=Root-CA-1
        Validity
            Not Before: Oct 16 06:12:07 2015 GMT
            Not After : Oct 15 06:12:07 2017 GMT
        Subject: DC=org, DC=monroe, O=POLITO, OU=Components, CN=Monroe_Node_1
        Subject Public Key Info:
            Public Key Algorithm: rsaEncryption
                Public-Key: (2048 bit)
                Modulus:
                    00:c0:09:f5:3d:d0:78:c1:66:ec:ea:52:43:d1:8a:
                    ae:6e:fe:da:ef:cb:2f:f0:14:8a:17:c1:72:f6:23:
                    58:11:2f:22:85:36:49:a3:88:30:80:a9:31:73:68:
                    b8:f1:2f:89:da:7c:0b:d5:50:b5:3e:8c:43:5a:66:
                    a0:37:15:03:9a:32:48:3e:08:40:86:1d:26:ef:04:
                    52:30:43:23:99:b8:2b:07:9a:45:c4:8c:dc:c2:b6:
                    59:75:6d:1e:0e:b1:c2:0c:b8:eb:b2:27:dd:2b:c1:
                    a7:01:0c:01:5a:df:9a:aa:c3:c9:ed:4e:7f:bb:50:
                    04:51:f9:43:05:97:fa:1e:36:dc:cd:b5:28:51:bc:
                    a7:f1:a5:fc:3f:38:83:ec:e4:0e:0f:c9:12:d0:bb:
                    b9:76:72:73:ac:ab:4a:03:78:5b:58:90:63:b9:3d:
                    70:dd:8a:e1:15:f4:85:a8:90:f7:ba:9e:4d:f2:e1:
                    d7:76:52:b0:72:3e:a0:9a:2e:0f:7f:d4:12:12:15:
                    22:ff:0d:b8:7f:6d:b8:bf:1a:85:c1:6c:07:ed:41:
                    fd:44:e0:f6:50:c7:e4:12:8f:9d:7d:dc:34:61:6f:
                    dc:96:52:33:90:83:26:94:26:5e:27:6d:7f:49:43:
                    89:82:d4:13:43:0c:5e:2e:79:66:3b:29:85:2e:f4:
                    9b:e9
                Exponent: 65537 (0x10001)
        X509v3 extensions:
            X509v3 Key Usage: critical
                Digital Signature, Key Encipherment
            X509v3 Basic Constraints: 
                CA:FALSE
            X509v3 Extended Key Usage: 
                TLS Web Server Authentication, TLS Web Client Authentication
            X509v3 Subject Key Identifier: 
                AE:88:B7:F2:93:5A:09:6E:03:24:0B:AA:10:C3:F2:62:81:6A:12:25
            X509v3 Authority Key Identifier: 
                keyid:D8:E8:1C:37:D0:D4:F7:24:2C:84:56:E0:17:0A:E7:23:A9:94:CA:94

            X509v3 Subject Alternative Name: 
                DNS:Monroe_Node_1.POLITO.monroe.org
    Signature Algorithm: sha1WithRSAEncryption
         b8:e8:de:5c:fd:53:41:0a:65:3f:e3:c6:e5:e6:c8:4b:9f:a7:
         96:5c:7d:17:98:5f:19:ff:ad:29:1f:0c:23:5d:2a:21:6e:42:
         5e:81:f8:da:ff:e2:44:31:42:aa:d2:47:9d:17:eb:2b:55:b3:
         79:a8:24:19:4a:de:cc:9d:be:73:bb:8a:9b:4a:47:ec:e8:2a:
         41:8d:9b:5f:ad:bd:10:97:a7:c9:6d:81:6a:4f:33:35:f3:08:
         c6:47:f3:42:7b:f2:09:4f:6a:01:e8:4b:86:eb:01:f4:53:a0:
         d6:31:47:5b:53:3c:b1:58:bc:62:9b:51:0d:9e:22:8e:ed:51:
         4a:3e:42:a9:b2:ba:99:06:80:ab:cc:a1:63:0d:ce:37:c4:93:
         9b:5f:29:f2:dc:86:4f:ef:f9:72:f8:b2:75:9d:11:36:23:93:
         24:cb:ec:99:bb:d7:30:90:86:15:d0:ec:6a:4a:df:a8:cb:1d:
         ce:89:59:01:e4:46:ee:22:b8:20:a5:ef:34:0c:c1:9b:5d:72:
         79:59:34:e2:42:02:13:52:46:07:ed:84:13:f7:8b:97:b0:32:
         e8:71:2a:6c:d8:a5:82:7d:28:96:02:89:97:d2:64:01:bb:3c:
         0c:19:dd:2e:b6:0c:67:10:b0:4c:3d:ff:cd:bd:38:a4:81:9d:
         d6:9c:23:f4:84:d5:54:0a:2a:38:67:0c:cd:26:10:4c:d0:98:
         ff:55:7b:00:77:3d:33:cd:1b:10:29:1d:a3:01:e5:51:4c:c3:
         d9:1f:e7:7f:ba:16:02:77:50:91:4f:8a:4e:ce:c2:0c:ad:84:
         c0:1d:02:53:62:b9:16:7d:07:15:b5:92:1b:dd:3e:ec:78:f6:
         e9:16:8f:58:d0:d6:a2:3f:94:32:d3:28:44:a5:35:f3:4d:8b:
         2f:f5:9f:6e:84:22:3c:1f:c6:75:e2:82:76:97:9b:e8:0a:98:
         70:d9:07:86:00:40:fc:df:43:a6:4d:09:f0:00:a1:aa:f4:c0:
         5b:61:d2:77:82:37:dc:f7:ea:d5:1b:ac:74:37:f2:38:c1:bd:
         4f:87:0a:25:b6:5a:aa:89:d5:00:38:e8:5d:46:16:2e:95:33:
         81:30:c1:c0:42:29:0c:4e:af:30:c3:34:93:b1:f6:23:93:23:
         8f:e9:51:d7:e9:8d:58:00:e1:73:37:3a:38:e2:4c:1e:80:ab:
         8c:b1:84:34:f5:5c:3c:6d:6c:be:01:31:f9:ad:b0:c9:69:20:
         65:d4:2c:72:d7:f6:6b:4f:ff:aa:66:d0:5b:32:56:24:8e:7a:
         a9:22:95:46:f5:e0:f0:65:f4:22:e3:93:58:af:a9:7c:bd:e6:
         fd:5c:7c:63:1e:5e:a0:97
-----BEGIN CERTIFICATE-----
MIIE4zCCAsugAwIBAgIBLDANBgkqhkiG9w0BAQUFADBTMRMwEQYKCZImiZPyLGQB
GRYDb3JnMRYwFAYKCZImiZPyLGQBGRYGbW9ucm9lMRAwDgYDVQQLDAdSb290LUNB
MRIwEAYDVQQDDAlSb290LUNBLTEwHhcNMTUxMDE2MDYxMjA3WhcNMTcxMDE1MDYx
MjA3WjBrMRMwEQYKCZImiZPyLGQBGRYDb3JnMRYwFAYKCZImiZPyLGQBGRYGbW9u
cm9lMQ8wDQYDVQQKDAZQT0xJVE8xEzARBgNVBAsMCkNvbXBvbmVudHMxFjAUBgNV
BAMMDU1vbnJvZV9Ob2RlXzEwggEiMA0GCSqGSIb3DQEBAQUAA4IBDwAwggEKAoIB
AQDACfU90HjBZuzqUkPRiq5u/trvyy/wFIoXwXL2I1gRLyKFNkmjiDCAqTFzaLjx
L4nafAvVULU+jENaZqA3FQOaMkg+CECGHSbvBFIwQyOZuCsHmkXEjNzCtll1bR4O
scIMuOuyJ90rwacBDAFa35qqw8ntTn+7UARR+UMFl/oeNtzNtShRvKfxpfw/OIPs
5A4PyRLQu7l2cnOsq0oDeFtYkGO5PXDdiuEV9IWokPe6nk3y4dd2UrByPqCaLg9/
1BISFSL/Dbh/bbi/GoXBbAftQf1E4PZQx+QSj5193DRhb9yWUjOQgyaUJl4nbX9J
Q4mC1BNDDF4ueWY7KYUu9JvpAgMBAAGjgakwgaYwDgYDVR0PAQH/BAQDAgWgMAkG
A1UdEwQCMAAwHQYDVR0lBBYwFAYIKwYBBQUHAwEGCCsGAQUFBwMCMB0GA1UdDgQW
BBSuiLfyk1oJbgMkC6oQw/JigWoSJTAfBgNVHSMEGDAWgBTY6Bw30NT3JCyEVuAX
CucjqZTKlDAqBgNVHREEIzAhgh9Nb25yb2VfTm9kZV8xLlBPTElUTy5tb25yb2Uu
b3JnMA0GCSqGSIb3DQEBBQUAA4ICAQC46N5c/VNBCmU/48bl5shLn6eWXH0XmF8Z
/60pHwwjXSohbkJegfja/+JEMUKq0kedF+srVbN5qCQZSt7Mnb5zu4qbSkfs6CpB
jZtfrb0Ql6fJbYFqTzM18wjGR/NCe/IJT2oB6EuG6wH0U6DWMUdbUzyxWLxim1EN
niKO7VFKPkKpsrqZBoCrzKFjDc43xJObXyny3IZP7/ly+LJ1nRE2I5Mky+yZu9cw
kIYV0OxqSt+oyx3OiVkB5EbuIrggpe80DMGbXXJ5WTTiQgITUkYH7YQT94uXsDLo
cSps2KWCfSiWAomX0mQBuzwMGd0utgxnELBMPf/NvTikgZ3WnCP0hNVUCio4ZwzN
JhBM0Jj/VXsAdz0zzRsQKR2jAeVRTMPZH+d/uhYCd1CRT4pOzsIMrYTAHQJTYrkW
fQcVtZIb3T7sePbpFo9Y0NaiP5Qy0yhEpTXzTYsv9Z9uhCI8H8Z14oJ2l5voCphw
2QeGAED830OmTQnwAKGq9MBbYdJ3gjfc9+rVG6x0N/I4wb1PhwoltlqqidUAOOhd
RhYulTOBMMHAQikMTq8wwzSTsfYjkyOP6VHX6Y1YAOFzNzo44kwegKuMsYQ09Vw8
bWy+ATH5rbDJaSBl1Cxy1/ZrT/+qZtBbMlYkjnqpIpVG9eDwZfQi45NYr6l8veb9
XHxjHl6glw==
-----END CERTIFICATE-----
