Certificate:
    Data:
        Version: 3 (0x2)
        Serial Number: 45 (0x2d)
    Signature Algorithm: sha1WithRSAEncryption
        Issuer: DC=org, DC=monroe, OU=Root-CA, CN=Root-CA-1
        Validity
            Not Before: Oct 16 06:13:00 2015 GMT
            Not After : Oct 15 06:13:00 2017 GMT
        Subject: DC=org, DC=monroe, O=POLITO, OU=Components, CN=Monroe_Node_1
        Subject Public Key Info:
            Public Key Algorithm: rsaEncryption
                Public-Key: (2048 bit)
                Modulus:
                    00:a0:55:00:57:7e:a7:c2:7e:11:78:cc:d8:51:a6:
                    cb:86:bb:8e:e6:d0:82:a3:8d:ac:6b:42:d1:fc:d6:
                    75:fc:29:e2:18:3f:e4:00:db:e5:c4:d6:06:bd:13:
                    90:55:26:97:9b:13:de:98:a1:36:cd:4e:8c:3b:1c:
                    f7:86:7a:87:96:d4:b1:18:f4:33:26:bc:1d:52:93:
                    bf:23:61:2a:10:50:87:7a:aa:f7:87:45:09:a1:da:
                    8b:39:62:8b:df:02:f2:2a:6d:74:9a:31:81:a0:81:
                    9f:62:9c:9f:47:1a:ef:75:30:d4:39:76:ac:09:53:
                    a6:df:5a:49:38:dc:fb:8a:b7:8d:bb:d0:08:cf:18:
                    5f:a2:a1:34:5a:69:f1:e5:55:dd:bb:2c:66:06:a0:
                    9c:75:e3:60:b2:1c:75:a3:c6:56:e7:80:c6:82:8d:
                    85:37:c7:46:d1:f7:9a:ba:e3:d7:cc:ee:3a:dd:14:
                    d3:45:79:50:6d:ad:99:a2:de:1e:53:bc:55:47:a9:
                    62:42:73:ce:04:e7:c0:6f:a4:03:8f:06:1c:7c:63:
                    35:77:83:3e:d1:47:45:2f:16:f9:c3:b4:83:d2:ed:
                    05:87:90:dd:8b:be:3f:0f:5a:39:ca:b1:99:cd:ff:
                    68:c2:dc:f7:cb:41:95:47:72:d7:b5:16:00:71:83:
                    91:f7
                Exponent: 65537 (0x10001)
        X509v3 extensions:
            X509v3 Key Usage: critical
                Digital Signature, Key Encipherment
            X509v3 Basic Constraints: 
                CA:FALSE
            X509v3 Extended Key Usage: 
                TLS Web Server Authentication, TLS Web Client Authentication
            X509v3 Subject Key Identifier: 
                C3:EF:AD:BB:B4:96:BF:F0:AD:6F:34:59:D6:AF:EA:34:6A:CE:4C:F6
            X509v3 Authority Key Identifier: 
                keyid:D8:E8:1C:37:D0:D4:F7:24:2C:84:56:E0:17:0A:E7:23:A9:94:CA:94

            X509v3 Subject Alternative Name: 
                DNS:Monroe_Node_1.POLITO.monroe.org
    Signature Algorithm: sha1WithRSAEncryption
         3b:2e:b5:8a:d1:43:13:23:88:23:bd:2d:cf:03:d5:65:b7:13:
         d7:08:e9:07:a6:fc:17:1c:ea:da:e5:23:c1:9b:cc:18:3b:a0:
         89:37:0d:5b:b6:00:37:76:e7:10:9c:fc:b6:d7:38:b7:57:a8:
         e5:06:40:d5:0f:cf:ad:32:73:37:1d:30:79:c1:9c:8f:7c:00:
         4c:57:c2:dc:9e:c6:db:8a:14:58:0e:31:1a:94:df:7c:72:af:
         13:4f:27:b1:b3:83:aa:13:a4:a3:5e:fb:51:f5:d3:4d:52:93:
         40:c3:11:a3:d8:5d:0e:80:f4:d8:ba:bc:07:28:49:d8:3c:59:
         fb:52:f9:df:73:cc:c0:f9:00:f6:be:60:ce:ff:d6:df:94:a3:
         fa:02:bc:df:e4:8b:dd:79:1a:5b:a4:08:ce:46:d1:54:3a:6e:
         93:c0:9d:f5:5a:50:ad:12:b5:60:2c:db:e3:e7:ee:93:e8:b4:
         ab:92:f6:9b:f0:51:76:8f:e4:17:a6:33:a5:74:fe:95:00:2c:
         5b:1c:f6:2a:f3:88:d7:fe:60:b1:64:e0:28:d2:03:74:51:fa:
         e2:93:20:ce:d7:f1:13:e1:8c:8c:42:11:51:e5:03:13:de:3c:
         27:9a:f6:39:64:32:ee:70:48:ed:6e:43:8b:4a:a0:eb:28:07:
         f4:1e:fa:34:aa:04:ce:f3:70:e0:e8:bb:3b:e6:12:b0:27:1d:
         66:31:e9:19:ed:c5:51:27:93:fd:15:9e:b9:65:cd:78:dc:07:
         7d:0f:57:c4:ba:b9:7b:17:76:80:e3:ab:9d:9c:76:4d:b1:50:
         78:30:9b:76:1f:07:e9:44:b3:d7:25:d1:e8:12:cb:1d:28:92:
         7c:73:fc:4e:98:f2:fd:cb:d1:51:46:7f:3a:90:3f:8d:f2:ec:
         c3:95:db:4e:b0:c2:44:8c:96:03:43:5c:36:af:35:27:e1:81:
         9c:f1:44:0f:e1:11:62:0a:64:17:b3:fe:7e:b1:8e:16:f3:7b:
         cb:4e:43:b1:70:ef:80:e0:ae:ba:72:e0:29:1b:1f:c8:ac:50:
         38:77:73:79:9c:89:84:9e:22:3a:90:6c:14:92:37:0d:de:01:
         11:b7:c6:af:77:42:89:ee:41:af:1e:1a:5d:58:0c:b8:d0:1f:
         5f:e6:1e:40:0f:95:00:06:f6:89:ed:7f:3a:ad:a7:9c:89:00:
         d2:3b:8e:dd:fd:6d:e8:31:22:d2:c0:f4:06:e9:a7:31:dc:41:
         dc:d1:d6:e1:8d:44:1c:d8:1a:db:a5:5d:90:94:82:69:2a:eb:
         a2:93:18:d0:44:99:6d:25:f2:b3:3c:e7:11:88:a9:ba:a7:10:
         f7:c8:c6:60:a7:68:1e:40
-----BEGIN CERTIFICATE-----
MIIE4zCCAsugAwIBAgIBLTANBgkqhkiG9w0BAQUFADBTMRMwEQYKCZImiZPyLGQB
GRYDb3JnMRYwFAYKCZImiZPyLGQBGRYGbW9ucm9lMRAwDgYDVQQLDAdSb290LUNB
MRIwEAYDVQQDDAlSb290LUNBLTEwHhcNMTUxMDE2MDYxMzAwWhcNMTcxMDE1MDYx
MzAwWjBrMRMwEQYKCZImiZPyLGQBGRYDb3JnMRYwFAYKCZImiZPyLGQBGRYGbW9u
cm9lMQ8wDQYDVQQKDAZQT0xJVE8xEzARBgNVBAsMCkNvbXBvbmVudHMxFjAUBgNV
BAMMDU1vbnJvZV9Ob2RlXzEwggEiMA0GCSqGSIb3DQEBAQUAA4IBDwAwggEKAoIB
AQCgVQBXfqfCfhF4zNhRpsuGu47m0IKjjaxrQtH81nX8KeIYP+QA2+XE1ga9E5BV
JpebE96YoTbNTow7HPeGeoeW1LEY9DMmvB1Sk78jYSoQUId6qveHRQmh2os5Yovf
AvIqbXSaMYGggZ9inJ9HGu91MNQ5dqwJU6bfWkk43PuKt4270AjPGF+ioTRaafHl
Vd27LGYGoJx142CyHHWjxlbngMaCjYU3x0bR95q649fM7jrdFNNFeVBtrZmi3h5T
vFVHqWJCc84E58BvpAOPBhx8YzV3gz7RR0UvFvnDtIPS7QWHkN2Lvj8PWjnKsZnN
/2jC3PfLQZVHcte1FgBxg5H3AgMBAAGjgakwgaYwDgYDVR0PAQH/BAQDAgWgMAkG
A1UdEwQCMAAwHQYDVR0lBBYwFAYIKwYBBQUHAwEGCCsGAQUFBwMCMB0GA1UdDgQW
BBTD7627tJa/8K1vNFnWr+o0as5M9jAfBgNVHSMEGDAWgBTY6Bw30NT3JCyEVuAX
CucjqZTKlDAqBgNVHREEIzAhgh9Nb25yb2VfTm9kZV8xLlBPTElUTy5tb25yb2Uu
b3JnMA0GCSqGSIb3DQEBBQUAA4ICAQA7LrWK0UMTI4gjvS3PA9VltxPXCOkHpvwX
HOra5SPBm8wYO6CJNw1btgA3ducQnPy21zi3V6jlBkDVD8+tMnM3HTB5wZyPfABM
V8LcnsbbihRYDjEalN98cq8TTyexs4OqE6SjXvtR9dNNUpNAwxGj2F0OgPTYurwH
KEnYPFn7Uvnfc8zA+QD2vmDO/9bflKP6Arzf5IvdeRpbpAjORtFUOm6TwJ31WlCt
ErVgLNvj5+6T6LSrkvab8FF2j+QXpjOldP6VACxbHPYq84jX/mCxZOAo0gN0Ufri
kyDO1/ET4YyMQhFR5QMT3jwnmvY5ZDLucEjtbkOLSqDrKAf0Hvo0qgTO83Dg6Ls7
5hKwJx1mMekZ7cVRJ5P9FZ65Zc143Ad9D1fEurl7F3aA46udnHZNsVB4MJt2Hwfp
RLPXJdHoEssdKJJ8c/xOmPL9y9FRRn86kD+N8uzDldtOsMJEjJYDQ1w2rzUn4YGc
8UQP4RFiCmQXs/5+sY4W83vLTkOxcO+A4K66cuApGx/IrFA4d3N5nImEniI6kGwU
kjcN3gERt8avd0KJ7kGvHhpdWAy40B9f5h5AD5UABvaJ7X86raeciQDSO47d/W3o
MSLSwPQG6acx3EHc0dbhjUQc2BrbpV2QlIJpKuuikxjQRJltJfKzPOcRiKm6pxD3
yMZgp2geQA==
-----END CERTIFICATE-----
