Certificate:
    Data:
        Version: 3 (0x2)
        Serial Number: 46 (0x2e)
    Signature Algorithm: sha1WithRSAEncryption
        Issuer: DC=org, DC=monroe, OU=Root-CA, CN=Root-CA-1
        Validity
            Not Before: Oct 16 06:21:03 2015 GMT
            Not After : Oct 15 06:21:03 2017 GMT
        Subject: DC=org, DC=monroe, O=POLITO, OU=Components, CN=Monroe_Node_1
        Subject Public Key Info:
            Public Key Algorithm: rsaEncryption
                Public-Key: (2048 bit)
                Modulus:
                    00:bf:3b:9f:ae:18:bf:38:75:bd:b2:1f:29:3b:8e:
                    17:2c:38:bf:09:af:47:92:39:a1:ab:51:7d:51:40:
                    01:42:db:f3:86:32:8e:2c:d3:a2:db:0a:ba:09:d0:
                    59:1e:23:08:2b:85:8b:ff:01:e8:e5:d8:8c:d9:9c:
                    7d:9e:58:35:54:55:92:80:34:df:90:70:1c:01:e4:
                    2d:8c:fc:75:26:cf:c3:6c:79:52:83:1b:bf:df:9c:
                    a2:b2:b3:70:40:af:81:85:8e:bd:82:95:c7:bb:31:
                    76:ae:68:bc:67:16:5a:cd:ad:5a:b9:3a:e0:56:66:
                    12:c7:87:84:66:fc:ea:ef:01:9f:cc:b5:3b:95:34:
                    67:04:59:67:f3:92:e8:ae:80:d3:a8:d2:39:4a:05:
                    80:e6:5d:3e:97:a3:ca:ef:04:e6:b8:95:27:fe:1b:
                    49:97:59:43:11:71:92:f7:f1:a3:c7:65:91:59:bf:
                    52:2f:56:62:02:b4:ae:58:b4:94:20:96:8f:ff:0c:
                    5d:e1:7c:6c:24:df:ed:a7:f2:08:20:54:81:9c:2f:
                    c3:2a:41:9b:e2:b3:a8:50:63:2b:80:6c:a8:2d:dd:
                    cf:02:91:61:96:be:2c:91:ef:1a:21:6b:39:6c:ab:
                    3e:04:cd:fa:54:a0:91:2f:20:f1:ef:3e:07:46:be:
                    77:17
                Exponent: 65537 (0x10001)
        X509v3 extensions:
            X509v3 Key Usage: critical
                Digital Signature, Key Encipherment
            X509v3 Basic Constraints: 
                CA:FALSE
            X509v3 Extended Key Usage: 
                TLS Web Server Authentication, TLS Web Client Authentication
            X509v3 Subject Key Identifier: 
                57:78:2F:C8:ED:5A:FA:E5:A8:3D:7C:2F:94:4E:93:29:20:9E:E2:0C
            X509v3 Authority Key Identifier: 
                keyid:D8:E8:1C:37:D0:D4:F7:24:2C:84:56:E0:17:0A:E7:23:A9:94:CA:94

            X509v3 Subject Alternative Name: 
                DNS:Monroe_Node_1.POLITO.monroe.org
    Signature Algorithm: sha1WithRSAEncryption
         b3:36:d7:5d:5a:f7:8f:85:50:67:bc:f6:da:49:d6:e7:5b:ae:
         ff:13:ab:6a:3f:70:6c:2d:a6:ac:22:d1:84:bb:0f:94:73:fa:
         5b:25:d4:a6:22:29:48:bc:ea:e4:a5:b5:d9:ab:4c:9c:01:a4:
         01:e1:ce:7f:cd:02:e5:a7:1e:36:03:c2:41:ac:4d:00:70:6f:
         8b:bf:5c:43:82:0f:e4:51:e4:ae:8a:d1:be:69:e2:c0:3e:a5:
         d5:bd:2d:47:02:52:d7:0a:61:b4:0e:45:22:a3:49:02:ec:ac:
         99:90:21:f0:b6:1c:0e:26:fb:00:fb:40:65:50:cf:2e:f0:bf:
         c4:27:f1:5e:d4:7b:5e:d6:e5:fd:20:c6:23:43:cb:38:44:81:
         71:43:87:0c:78:c0:a9:11:8f:0a:09:1d:c7:6d:b1:83:9f:b0:
         bc:b2:0a:c1:ae:22:b8:40:03:46:60:fb:e1:7c:ea:f9:ef:f4:
         ca:8f:f6:fd:a3:87:19:25:bf:8a:dc:4e:fe:9f:3e:1d:75:7f:
         ec:ca:89:b0:a5:cf:f4:c0:da:a2:32:2f:ec:96:9e:7c:b7:c2:
         8b:a1:50:f8:b2:04:ab:ee:40:ff:fc:3e:ad:9a:45:58:4f:d0:
         a6:91:7e:7d:59:12:65:85:2c:94:05:3a:d4:ac:4a:7c:03:74:
         11:cf:e4:ae:31:32:2c:fa:c6:6d:8e:fb:ec:eb:6a:5f:6b:1a:
         2f:e9:63:2d:2a:b5:59:36:d5:40:f3:ab:fb:0a:9b:22:34:76:
         ab:df:b9:40:3e:e5:52:cf:9c:41:c3:c2:b6:96:78:12:35:cd:
         4a:0b:e2:0e:e8:ee:66:57:39:ad:67:84:19:bf:8e:15:b2:40:
         77:78:89:6c:fa:2c:a6:c0:11:b6:2d:1b:f4:39:a9:f0:f4:b9:
         d1:13:55:43:a3:c8:e5:75:e1:93:14:8c:48:84:00:3d:db:53:
         14:6e:3b:d8:81:3d:b7:34:73:ed:a8:a1:82:22:19:8e:03:27:
         0e:58:43:b6:3b:1b:29:02:bf:37:41:20:22:13:d0:2c:8d:dc:
         27:31:85:09:37:22:41:38:ac:9a:c1:00:04:ba:0d:f1:7d:6e:
         06:1b:58:fa:ce:85:ee:2a:c3:53:0d:c8:58:b1:da:9c:d1:56:
         46:33:07:a8:40:4a:f2:f1:ad:d7:ce:c9:d1:07:35:63:66:93:
         8f:22:c6:a3:0f:4b:de:fc:49:93:f9:66:30:f5:9a:6d:75:19:
         0f:76:f7:97:a2:9f:a6:03:63:91:c0:c8:c4:50:90:e4:15:b7:
         b6:fb:1a:bf:e6:1a:87:fa:06:b9:de:85:8a:9c:80:5b:3c:44:
         7e:84:68:fe:dd:e7:ed:24
-----BEGIN CERTIFICATE-----
MIIE4zCCAsugAwIBAgIBLjANBgkqhkiG9w0BAQUFADBTMRMwEQYKCZImiZPyLGQB
GRYDb3JnMRYwFAYKCZImiZPyLGQBGRYGbW9ucm9lMRAwDgYDVQQLDAdSb290LUNB
MRIwEAYDVQQDDAlSb290LUNBLTEwHhcNMTUxMDE2MDYyMTAzWhcNMTcxMDE1MDYy
MTAzWjBrMRMwEQYKCZImiZPyLGQBGRYDb3JnMRYwFAYKCZImiZPyLGQBGRYGbW9u
cm9lMQ8wDQYDVQQKDAZQT0xJVE8xEzARBgNVBAsMCkNvbXBvbmVudHMxFjAUBgNV
BAMMDU1vbnJvZV9Ob2RlXzEwggEiMA0GCSqGSIb3DQEBAQUAA4IBDwAwggEKAoIB
AQC/O5+uGL84db2yHyk7jhcsOL8Jr0eSOaGrUX1RQAFC2/OGMo4s06LbCroJ0Fke
IwgrhYv/Aejl2IzZnH2eWDVUVZKANN+QcBwB5C2M/HUmz8NseVKDG7/fnKKys3BA
r4GFjr2Clce7MXauaLxnFlrNrVq5OuBWZhLHh4Rm/OrvAZ/MtTuVNGcEWWfzkuiu
gNOo0jlKBYDmXT6Xo8rvBOa4lSf+G0mXWUMRcZL38aPHZZFZv1IvVmICtK5YtJQg
lo//DF3hfGwk3+2n8gggVIGcL8MqQZvis6hQYyuAbKgt3c8CkWGWviyR7xohazls
qz4EzfpUoJEvIPHvPgdGvncXAgMBAAGjgakwgaYwDgYDVR0PAQH/BAQDAgWgMAkG
A1UdEwQCMAAwHQYDVR0lBBYwFAYIKwYBBQUHAwEGCCsGAQUFBwMCMB0GA1UdDgQW
BBRXeC/I7Vr65ag9fC+UTpMpIJ7iDDAfBgNVHSMEGDAWgBTY6Bw30NT3JCyEVuAX
CucjqZTKlDAqBgNVHREEIzAhgh9Nb25yb2VfTm9kZV8xLlBPTElUTy5tb25yb2Uu
b3JnMA0GCSqGSIb3DQEBBQUAA4ICAQCzNtddWvePhVBnvPbaSdbnW67/E6tqP3Bs
LaasItGEuw+Uc/pbJdSmIilIvOrkpbXZq0ycAaQB4c5/zQLlpx42A8JBrE0AcG+L
v1xDgg/kUeSuitG+aeLAPqXVvS1HAlLXCmG0DkUio0kC7KyZkCHwthwOJvsA+0Bl
UM8u8L/EJ/Fe1Hte1uX9IMYjQ8s4RIFxQ4cMeMCpEY8KCR3HbbGDn7C8sgrBriK4
QANGYPvhfOr57/TKj/b9o4cZJb+K3E7+nz4ddX/syomwpc/0wNqiMi/slp58t8KL
oVD4sgSr7kD//D6tmkVYT9CmkX59WRJlhSyUBTrUrEp8A3QRz+SuMTIs+sZtjvvs
62pfaxov6WMtKrVZNtVA86v7CpsiNHar37lAPuVSz5xBw8K2lngSNc1KC+IO6O5m
VzmtZ4QZv44VskB3eIls+iymwBG2LRv0Oanw9LnRE1VDo8jldeGTFIxIhAA921MU
bjvYgT23NHPtqKGCIhmOAycOWEO2OxspAr83QSAiE9AsjdwnMYUJNyJBOKyawQAE
ug3xfW4GG1j6zoXuKsNTDchYsdqc0VZGMweoQEry8a3XzsnRBzVjZpOPIsajD0ve
/EmT+WYw9ZptdRkPdveXop+mA2ORwMjEUJDkFbe2+xq/5hqH+ga53oWKnIBbPER+
hGj+3eftJA==
-----END CERTIFICATE-----
