Certificate:
    Data:
        Version: 3 (0x2)
        Serial Number: 47 (0x2f)
    Signature Algorithm: sha1WithRSAEncryption
        Issuer: DC=org, DC=monroe, OU=Root-CA, CN=Root-CA-1
        Validity
            Not Before: Oct 16 06:21:17 2015 GMT
            Not After : Oct 15 06:21:17 2017 GMT
        Subject: DC=org, DC=monroe, O=POLITO, OU=Clients, CN=client_Monroe_1
        Subject Public Key Info:
            Public Key Algorithm: rsaEncryption
                Public-Key: (2048 bit)
                Modulus:
                    00:dd:54:50:ea:a7:3c:2e:40:be:8a:78:06:c1:b6:
                    88:1e:ab:89:ed:3a:4d:39:68:36:05:e6:a0:38:0c:
                    57:55:ed:a5:36:95:fc:21:b3:73:25:50:7d:4f:d8:
                    71:11:ef:76:42:df:f7:8e:55:87:44:35:a9:70:c3:
                    24:86:c8:f6:86:dc:d6:ac:a6:fb:2f:06:06:85:fe:
                    49:a4:69:06:fa:47:a9:3b:37:47:16:08:48:23:b7:
                    35:df:73:1e:5b:84:a1:c5:a4:1a:1d:5c:e0:af:c0:
                    9c:60:aa:63:f9:b2:8c:58:19:1d:b1:d3:d6:28:24:
                    db:c4:73:ed:cf:00:d2:2f:29:92:01:41:fa:9b:a8:
                    8c:e3:67:5c:20:ea:1d:6f:93:7c:34:dd:57:18:67:
                    9d:00:bb:55:53:ef:cf:55:2f:95:70:d6:f6:60:d9:
                    9e:e9:2d:e7:58:b7:63:7f:9e:1f:11:4d:3c:38:d9:
                    91:c5:4a:1f:38:78:8c:5f:89:4c:f6:82:19:db:c3:
                    97:2a:73:88:3f:30:36:7f:b1:8a:20:cf:cf:41:ed:
                    2a:42:30:5b:67:b3:ae:3f:7c:4f:19:ec:89:2c:38:
                    48:05:10:67:a0:0d:e9:29:9f:cc:d8:8b:3b:d4:12:
                    fa:2b:a0:3e:15:b2:83:a0:55:35:57:f3:76:7d:f3:
                    cc:f9
                Exponent: 65537 (0x10001)
        X509v3 extensions:
            X509v3 Key Usage: critical
                Digital Signature, Key Encipherment
            X509v3 Basic Constraints: 
                CA:FALSE
            X509v3 Extended Key Usage: 
                TLS Web Server Authentication, TLS Web Client Authentication
            X509v3 Subject Key Identifier: 
                D0:C8:59:43:03:CF:4C:58:09:7B:D9:78:01:E2:56:6F:0F:30:87:FF
            X509v3 Authority Key Identifier: 
                keyid:D8:E8:1C:37:D0:D4:F7:24:2C:84:56:E0:17:0A:E7:23:A9:94:CA:94

            X509v3 Subject Alternative Name: 
                DNS:client_Monroe_1.POLITO.monroe.org
    Signature Algorithm: sha1WithRSAEncryption
         6c:70:80:84:f7:51:2e:38:03:ea:e1:66:3e:80:0f:aa:6b:d5:
         ae:80:e2:e4:6c:2d:26:8a:bf:a6:5e:1e:e9:3b:18:63:2f:38:
         a9:f1:88:26:01:68:a2:91:24:a2:3d:2f:6e:ad:70:5d:3d:99:
         3c:2c:d4:c4:8a:f5:87:6f:16:1b:c8:33:e6:7c:d4:50:47:7c:
         8d:76:65:40:a7:cd:f5:13:3e:86:85:3a:2b:19:8e:84:d9:ae:
         bf:98:37:53:48:4e:17:c1:7e:ba:97:82:e2:b9:77:bc:c2:ea:
         e7:88:6e:4d:42:75:d5:ed:59:75:56:50:66:18:9b:6f:21:e4:
         f1:b9:60:fc:aa:ce:fd:27:12:e4:72:06:87:06:d2:39:6e:38:
         22:0b:b4:d8:e4:95:28:33:7f:0b:1a:64:4c:52:11:d1:dd:5a:
         c3:11:93:1d:68:ca:13:40:03:2c:ed:f6:af:a7:9c:e4:77:e4:
         2a:d5:fc:06:74:16:04:11:0b:d7:67:e6:31:a8:c5:47:d4:3d:
         00:cd:f7:71:35:06:c6:15:06:64:f7:fb:a7:29:6d:ad:62:30:
         46:ef:8d:8f:74:1a:06:f6:77:b4:53:f5:b5:1b:d3:cf:68:ab:
         9f:f2:6d:b5:ec:50:51:61:a2:8b:0f:11:4f:d1:bf:bd:fe:5f:
         3c:d0:b4:b6:3b:5d:98:19:e4:6c:69:2c:62:ad:04:d9:e9:5d:
         7d:71:fc:47:9a:3e:13:5b:43:eb:02:b5:b2:c1:e7:d3:1c:44:
         1b:10:14:3d:8a:74:11:92:ad:43:ec:92:81:b9:af:44:00:a5:
         3b:d1:a6:ea:dc:ad:80:50:96:41:6a:5a:81:8a:33:32:a7:e6:
         68:c5:b6:6c:a6:cb:0e:95:82:95:09:9f:9a:33:03:44:2c:2a:
         c5:42:fe:cc:73:04:7c:8a:50:5d:7e:86:62:a3:56:b8:fd:11:
         65:83:9a:9d:12:8d:2b:4f:52:18:05:0a:d6:9c:1c:4b:2e:71:
         51:48:da:d2:54:2c:fb:2f:12:05:90:e7:dd:f0:03:fd:93:8d:
         02:73:54:b4:50:87:b6:4a:a4:2b:d9:94:5b:0e:b4:15:8c:df:
         ab:13:85:f3:3c:30:5f:d6:27:33:7f:af:b4:79:ca:a2:b8:91:
         89:18:ea:5d:e3:18:30:06:83:12:3e:80:0c:76:26:de:be:8f:
         99:19:d9:ba:68:dd:01:a0:a9:85:25:4b:c5:a6:a9:af:d5:2d:
         db:ef:d4:4d:5a:67:d8:3c:65:8d:1f:04:f0:27:7a:5f:dc:74:
         22:71:d5:92:17:35:a6:5a:5a:5f:56:e1:63:88:95:91:29:5f:
         50:3f:42:c7:74:6c:3e:7d
-----BEGIN CERTIFICATE-----
MIIE5DCCAsygAwIBAgIBLzANBgkqhkiG9w0BAQUFADBTMRMwEQYKCZImiZPyLGQB
GRYDb3JnMRYwFAYKCZImiZPyLGQBGRYGbW9ucm9lMRAwDgYDVQQLDAdSb290LUNB
MRIwEAYDVQQDDAlSb290LUNBLTEwHhcNMTUxMDE2MDYyMTE3WhcNMTcxMDE1MDYy
MTE3WjBqMRMwEQYKCZImiZPyLGQBGRYDb3JnMRYwFAYKCZImiZPyLGQBGRYGbW9u
cm9lMQ8wDQYDVQQKDAZQT0xJVE8xEDAOBgNVBAsMB0NsaWVudHMxGDAWBgNVBAMM
D2NsaWVudF9Nb25yb2VfMTCCASIwDQYJKoZIhvcNAQEBBQADggEPADCCAQoCggEB
AN1UUOqnPC5Avop4BsG2iB6rie06TTloNgXmoDgMV1XtpTaV/CGzcyVQfU/YcRHv
dkLf945Vh0Q1qXDDJIbI9obc1qym+y8GBoX+SaRpBvpHqTs3RxYISCO3Nd9zHluE
ocWkGh1c4K/AnGCqY/myjFgZHbHT1igk28Rz7c8A0i8pkgFB+puojONnXCDqHW+T
fDTdVxhnnQC7VVPvz1UvlXDW9mDZnukt51i3Y3+eHxFNPDjZkcVKHzh4jF+JTPaC
GdvDlypziD8wNn+xiiDPz0HtKkIwW2ezrj98TxnsiSw4SAUQZ6AN6SmfzNiLO9QS
+iugPhWyg6BVNVfzdn3zzPkCAwEAAaOBqzCBqDAOBgNVHQ8BAf8EBAMCBaAwCQYD
VR0TBAIwADAdBgNVHSUEFjAUBggrBgEFBQcDAQYIKwYBBQUHAwIwHQYDVR0OBBYE
FNDIWUMDz0xYCXvZeAHiVm8PMIf/MB8GA1UdIwQYMBaAFNjoHDfQ1PckLIRW4BcK
5yOplMqUMCwGA1UdEQQlMCOCIWNsaWVudF9Nb25yb2VfMS5QT0xJVE8ubW9ucm9l
Lm9yZzANBgkqhkiG9w0BAQUFAAOCAgEAbHCAhPdRLjgD6uFmPoAPqmvVroDi5Gwt
Joq/pl4e6TsYYy84qfGIJgFoopEkoj0vbq1wXT2ZPCzUxIr1h28WG8gz5nzUUEd8
jXZlQKfN9RM+hoU6KxmOhNmuv5g3U0hOF8F+upeC4rl3vMLq54huTUJ11e1ZdVZQ
ZhibbyHk8blg/KrO/ScS5HIGhwbSOW44Igu02OSVKDN/CxpkTFIR0d1awxGTHWjK
E0ADLO32r6ec5HfkKtX8BnQWBBEL12fmMajFR9Q9AM33cTUGxhUGZPf7pyltrWIw
Ru+Nj3QaBvZ3tFP1tRvTz2irn/JttexQUWGiiw8RT9G/vf5fPNC0tjtdmBnkbGks
Yq0E2eldfXH8R5o+E1tD6wK1ssHn0xxEGxAUPYp0EZKtQ+ySgbmvRAClO9Gm6tyt
gFCWQWpagYozMqfmaMW2bKbLDpWClQmfmjMDRCwqxUL+zHMEfIpQXX6GYqNWuP0R
ZYOanRKNK09SGAUK1pwcSy5xUUja0lQs+y8SBZDn3fAD/ZONAnNUtFCHtkqkK9mU
Ww60FYzfqxOF8zwwX9YnM3+vtHnKoriRiRjqXeMYMAaDEj6ADHYm3r6PmRnZumjd
AaCphSVLxaapr9Ut2+/UTVpn2DxljR8E8Cd6X9x0InHVkhc1plpaX1bhY4iVkSlf
UD9Cx3RsPn0=
-----END CERTIFICATE-----
