Certificate:
    Data:
        Version: 3 (0x2)
        Serial Number: 48 (0x30)
    Signature Algorithm: sha1WithRSAEncryption
        Issuer: DC=org, DC=monroe, OU=Root-CA, CN=Root-CA-1
        Validity
            Not Before: Oct 16 06:22:10 2015 GMT
            Not After : Oct 15 06:22:10 2017 GMT
        Subject: DC=org, DC=monroe, O=POLITO, OU=Clients, CN=Monroe_Client_1
        Subject Public Key Info:
            Public Key Algorithm: rsaEncryption
                Public-Key: (2048 bit)
                Modulus:
                    00:c5:9a:aa:49:8d:75:36:c1:96:3b:24:e1:bd:28:
                    ff:3b:52:0f:30:b5:97:5f:af:72:fd:bd:18:98:11:
                    a1:63:b8:0b:c3:92:15:4b:d0:c7:be:ae:75:b7:85:
                    92:92:8c:39:97:90:ee:56:d5:e0:49:d7:ff:c6:6a:
                    be:bb:5d:55:9d:87:6b:f5:61:bf:f7:95:e6:c1:24:
                    1a:68:88:f7:f6:38:e5:0e:2f:79:6c:ef:15:ed:b0:
                    8f:c5:73:1b:fa:ae:cd:14:ca:2d:24:81:87:34:e3:
                    a1:67:d6:e6:d3:37:a8:1c:73:f4:a4:7c:34:e5:23:
                    37:41:61:fa:97:1e:6f:a7:15:c1:a6:8f:32:e9:be:
                    bc:c0:10:75:41:2f:09:b7:d5:8b:7a:67:17:c6:03:
                    29:e6:72:38:dd:df:d7:44:e0:5b:96:98:20:6e:df:
                    5a:6a:b2:03:22:fe:70:18:3a:64:67:eb:b1:c6:c9:
                    74:00:ff:05:09:1c:f4:71:88:92:6d:97:f3:12:2f:
                    dc:20:da:12:2b:80:5e:c3:d8:35:5e:b5:63:ac:d6:
                    24:fd:36:00:b2:44:d2:a1:da:a0:c9:43:66:c9:2a:
                    47:21:02:be:47:a1:83:42:1b:6f:c9:53:26:3e:74:
                    22:62:cd:dd:5b:b8:a6:bb:f4:f6:f1:09:67:e0:9c:
                    ce:9d
                Exponent: 65537 (0x10001)
        X509v3 extensions:
            X509v3 Key Usage: critical
                Digital Signature, Key Encipherment
            X509v3 Basic Constraints: 
                CA:FALSE
            X509v3 Extended Key Usage: 
                TLS Web Server Authentication, TLS Web Client Authentication
            X509v3 Subject Key Identifier: 
                90:F7:37:DC:0C:87:19:8D:AD:8D:F1:56:3D:EA:86:7A:F1:3E:0C:6F
            X509v3 Authority Key Identifier: 
                keyid:D8:E8:1C:37:D0:D4:F7:24:2C:84:56:E0:17:0A:E7:23:A9:94:CA:94

            X509v3 Subject Alternative Name: 
                DNS:Monroe_Client_1.POLITO.monroe.org
    Signature Algorithm: sha1WithRSAEncryption
         92:d9:a0:51:0a:17:5a:8d:72:4f:f2:65:ff:66:c4:13:8b:36:
         07:4a:5f:2f:fb:62:0a:98:f5:f4:09:ea:f7:6e:88:bd:c6:63:
         5e:6b:71:2a:ad:5a:f4:7e:2a:09:df:9a:61:61:c1:86:ff:44:
         bd:4e:07:67:47:d2:e9:6d:a0:72:e0:b6:97:3a:30:8a:bf:fd:
         b0:29:36:3d:9a:08:9b:6a:c6:cd:b1:d6:cf:7a:94:06:46:3d:
         86:87:96:4a:cc:ff:14:26:5f:d6:0a:46:71:c1:8c:47:cc:61:
         07:46:c0:27:62:c7:a5:86:5d:6b:b2:91:82:d6:32:ed:04:b8:
         dc:4b:e0:b7:22:f5:9d:67:17:41:b2:ac:80:04:9a:bf:52:7e:
         ec:ec:c3:f2:c2:ef:86:ab:1f:cc:93:22:b1:74:63:5c:42:0a:
         7d:c0:35:4c:5a:1c:42:d3:92:9b:c2:20:a6:09:a5:fc:05:10:
         a3:c6:c7:0e:48:83:93:d9:75:a1:cf:ab:86:eb:b2:2b:00:64:
         d6:a5:36:19:fb:9f:b7:0c:80:55:57:c6:43:f5:84:d2:95:69:
         06:5a:f1:f8:8c:1c:c7:76:5f:f7:99:3a:95:e9:9b:e2:23:cb:
         b8:26:a5:20:a0:64:dd:d0:06:aa:5e:0d:b0:b4:e5:e5:66:b5:
         76:23:1a:cc:b0:93:a0:84:6f:d9:f1:69:52:91:bc:3d:ad:e3:
         8e:59:31:ae:ae:64:c9:42:0f:9a:f3:aa:13:80:03:50:2c:92:
         bf:8c:05:b8:97:52:f7:2d:09:c3:e0:dc:cf:1e:27:19:6d:d4:
         bf:c9:41:0c:ee:82:aa:ba:75:53:33:1d:62:56:0e:00:2f:36:
         24:77:d0:07:04:7a:3f:00:07:2c:e3:9b:62:89:d2:22:36:32:
         80:3c:dc:dd:dc:21:f0:a1:69:6f:0e:8a:dd:e3:d0:4c:63:2a:
         2d:17:9f:ce:87:b2:c9:50:e0:41:0f:ee:63:cd:98:26:99:7a:
         22:8c:78:1c:ea:13:65:8c:65:48:76:44:e8:0e:1c:b6:15:4c:
         dd:98:1b:1d:b5:48:98:24:a3:f8:be:5f:2f:bc:dd:f8:75:0d:
         54:b1:a4:0f:a8:66:b8:a1:ec:55:47:47:a5:bd:11:50:db:d2:
         fe:1f:25:b2:23:a8:cf:5e:62:a7:0c:a0:fb:3a:c1:10:6f:f5:
         40:1d:33:a8:2f:5c:cc:61:5d:8e:82:50:22:ff:ea:74:c6:97:
         04:8b:cc:20:74:ee:3e:73:cb:95:7d:c2:04:a3:e0:06:cd:5f:
         47:06:46:ac:91:f7:40:6b:ce:8a:9b:f7:c5:59:79:3b:0e:94:
         83:6a:b9:77:08:57:63:b4
-----BEGIN CERTIFICATE-----
MIIE5DCCAsygAwIBAgIBMDANBgkqhkiG9w0BAQUFADBTMRMwEQYKCZImiZPyLGQB
GRYDb3JnMRYwFAYKCZImiZPyLGQBGRYGbW9ucm9lMRAwDgYDVQQLDAdSb290LUNB
MRIwEAYDVQQDDAlSb290LUNBLTEwHhcNMTUxMDE2MDYyMjEwWhcNMTcxMDE1MDYy
MjEwWjBqMRMwEQYKCZImiZPyLGQBGRYDb3JnMRYwFAYKCZImiZPyLGQBGRYGbW9u
cm9lMQ8wDQYDVQQKDAZQT0xJVE8xEDAOBgNVBAsMB0NsaWVudHMxGDAWBgNVBAMM
D01vbnJvZV9DbGllbnRfMTCCASIwDQYJKoZIhvcNAQEBBQADggEPADCCAQoCggEB
AMWaqkmNdTbBljsk4b0o/ztSDzC1l1+vcv29GJgRoWO4C8OSFUvQx76udbeFkpKM
OZeQ7lbV4EnX/8ZqvrtdVZ2Ha/Vhv/eV5sEkGmiI9/Y45Q4veWzvFe2wj8VzG/qu
zRTKLSSBhzTjoWfW5tM3qBxz9KR8NOUjN0Fh+pceb6cVwaaPMum+vMAQdUEvCbfV
i3pnF8YDKeZyON3f10TgW5aYIG7fWmqyAyL+cBg6ZGfrscbJdAD/BQkc9HGIkm2X
8xIv3CDaEiuAXsPYNV61Y6zWJP02ALJE0qHaoMlDZskqRyECvkehg0Ibb8lTJj50
ImLN3Vu4prv09vEJZ+Cczp0CAwEAAaOBqzCBqDAOBgNVHQ8BAf8EBAMCBaAwCQYD
VR0TBAIwADAdBgNVHSUEFjAUBggrBgEFBQcDAQYIKwYBBQUHAwIwHQYDVR0OBBYE
FJD3N9wMhxmNrY3xVj3qhnrxPgxvMB8GA1UdIwQYMBaAFNjoHDfQ1PckLIRW4BcK
5yOplMqUMCwGA1UdEQQlMCOCIU1vbnJvZV9DbGllbnRfMS5QT0xJVE8ubW9ucm9l
Lm9yZzANBgkqhkiG9w0BAQUFAAOCAgEAktmgUQoXWo1yT/Jl/2bEE4s2B0pfL/ti
Cpj19Anq926IvcZjXmtxKq1a9H4qCd+aYWHBhv9EvU4HZ0fS6W2gcuC2lzowir/9
sCk2PZoIm2rGzbHWz3qUBkY9hoeWSsz/FCZf1gpGccGMR8xhB0bAJ2LHpYZda7KR
gtYy7QS43EvgtyL1nWcXQbKsgASav1J+7OzD8sLvhqsfzJMisXRjXEIKfcA1TFoc
QtOSm8Igpgml/AUQo8bHDkiDk9l1oc+rhuuyKwBk1qU2GfuftwyAVVfGQ/WE0pVp
Blrx+Iwcx3Zf95k6lemb4iPLuCalIKBk3dAGql4NsLTl5Wa1diMazLCToIRv2fFp
UpG8Pa3jjlkxrq5kyUIPmvOqE4ADUCySv4wFuJdS9y0Jw+Dczx4nGW3Uv8lBDO6C
qrp1UzMdYlYOAC82JHfQBwR6PwAHLOObYonSIjYygDzc3dwh8KFpbw6K3ePQTGMq
LRefzoeyyVDgQQ/uY82YJpl6Iox4HOoTZYxlSHZE6A4cthVM3ZgbHbVImCSj+L5f
L7zd+HUNVLGkD6hmuKHsVUdHpb0RUNvS/h8lsiOoz15ipwyg+zrBEG/1QB0zqC9c
zGFdjoJQIv/qdMaXBIvMIHTuPnPLlX3CBKPgBs1fRwZGrJH3QGvOipv3xVl5Ow6U
g2q5dwhXY7Q=
-----END CERTIFICATE-----
