Certificate:
    Data:
        Version: 3 (0x2)
        Serial Number: 49 (0x31)
    Signature Algorithm: sha1WithRSAEncryption
        Issuer: DC=org, DC=monroe, OU=Root-CA, CN=Root-CA-1
        Validity
            Not Before: Oct 16 06:22:16 2015 GMT
            Not After : Oct 15 06:22:16 2017 GMT
        Subject: DC=org, DC=monroe, O=POLITO, OU=Components, CN=Monroe_Node_1
        Subject Public Key Info:
            Public Key Algorithm: rsaEncryption
                Public-Key: (2048 bit)
                Modulus:
                    00:a8:d4:9b:54:27:84:00:ac:75:44:da:86:51:b7:
                    a7:16:5d:40:e0:d9:2f:f0:8c:3e:ad:f5:77:37:7f:
                    e6:d4:24:d1:a3:2d:05:03:01:0f:be:d5:0e:28:0d:
                    43:81:a8:2e:59:b0:82:19:12:f2:67:42:9e:1b:ef:
                    1b:e7:ee:ef:e9:9d:e4:3b:ec:41:30:9a:53:0c:8f:
                    ca:68:95:7b:09:6f:ec:f5:90:d6:b9:2f:e5:df:dd:
                    e0:dd:1d:70:0b:e8:7c:c0:b0:b1:a7:f1:1b:e8:49:
                    b7:fa:7c:9e:a3:fb:ac:0a:9e:e1:50:aa:6f:51:7b:
                    91:56:e8:45:ae:c4:ab:07:ab:e3:17:19:51:1c:56:
                    ba:8e:7f:30:f4:2f:79:d8:8e:1b:2a:d4:53:1e:a3:
                    bb:cf:31:7d:9c:24:4b:19:03:b0:95:96:cb:b3:f0:
                    3d:7e:82:7d:d0:ce:40:50:5a:8b:5e:b2:a2:86:49:
                    78:79:03:a6:d4:6a:cd:1d:73:db:34:48:5f:e2:57:
                    54:93:8d:7c:66:5d:18:3f:02:cc:01:43:3e:6d:2d:
                    0a:fa:14:ee:4b:42:5d:73:04:8b:6b:92:22:6e:26:
                    f7:f2:23:89:cc:02:df:db:0a:66:b9:4a:5d:2b:6a:
                    df:bc:64:b3:8b:7c:bc:61:24:20:50:ce:cb:76:be:
                    a0:4b
                Exponent: 65537 (0x10001)
        X509v3 extensions:
            X509v3 Key Usage: critical
                Digital Signature, Key Encipherment
            X509v3 Basic Constraints: 
                CA:FALSE
            X509v3 Extended Key Usage: 
                TLS Web Server Authentication, TLS Web Client Authentication
            X509v3 Subject Key Identifier: 
                FE:B1:7B:28:A1:2A:83:58:20:8F:D4:B6:88:AD:D6:47:81:BE:F6:0D
            X509v3 Authority Key Identifier: 
                keyid:D8:E8:1C:37:D0:D4:F7:24:2C:84:56:E0:17:0A:E7:23:A9:94:CA:94

            X509v3 Subject Alternative Name: 
                DNS:Monroe_Node_1.POLITO.monroe.org
    Signature Algorithm: sha1WithRSAEncryption
         59:d1:86:84:ac:6e:48:59:34:23:c4:57:53:d4:af:8c:6b:22:
         3b:b2:ec:ae:2a:0e:04:fc:5b:eb:92:11:7e:3e:fd:4f:ba:08:
         9a:80:ce:a6:ce:63:66:66:58:f4:53:ea:d6:3b:4c:3f:4f:c2:
         b0:bf:31:68:60:ec:bc:25:2e:06:91:2c:2a:8a:19:d3:fa:bc:
         3e:42:b6:f5:10:ec:e3:43:52:a6:1b:98:2a:fb:5d:45:ff:6c:
         e7:cb:65:ba:42:04:b1:2c:e3:68:69:17:a7:9b:c9:6c:db:b9:
         80:64:25:89:36:a0:1c:36:29:c5:01:65:48:9e:1a:11:ea:8f:
         17:8b:c7:fb:09:71:58:47:15:ce:ec:42:29:4c:41:b1:94:1b:
         4e:fe:8c:6d:38:5f:d0:ad:84:bb:54:fb:73:13:52:6a:c3:96:
         98:23:5b:02:9a:f1:96:de:25:fe:23:77:92:cc:0c:98:6c:a6:
         a0:99:e3:3a:67:e2:c7:aa:64:fd:45:1a:7f:12:c7:37:de:ab:
         7f:93:6e:58:88:fd:bc:11:3c:e0:c7:8f:9b:63:21:17:bb:2e:
         0f:f0:d5:58:eb:03:0f:25:19:1a:9d:49:31:e7:78:89:da:7a:
         af:c5:95:da:bb:a0:e2:ec:7a:5b:22:91:b4:c2:9e:9c:19:22:
         cc:05:d1:4e:f6:db:9f:3f:09:44:50:2b:c7:9e:3b:bf:fc:fc:
         80:72:08:77:af:83:6c:51:df:ef:f2:ed:61:4b:7d:ad:be:a9:
         ca:da:a9:c8:81:1a:ff:07:36:69:3d:9d:f0:56:f5:f3:29:a8:
         b9:be:17:f1:2e:e2:a6:57:13:63:a8:29:71:d8:72:27:0d:0c:
         76:0b:b4:da:42:5c:a6:74:f9:a9:25:cd:6e:c1:2e:9f:4c:04:
         56:44:2c:35:a2:4c:f2:fd:67:63:a5:cb:fc:75:22:6e:0e:9f:
         20:ee:81:70:b8:6a:ba:11:1d:4b:0e:36:0b:7b:3f:18:db:37:
         e6:9e:53:15:d5:81:a5:1d:10:a3:67:78:20:02:7a:9a:63:b7:
         39:99:d9:31:7a:dd:f9:1b:9e:b3:cd:05:af:9c:46:70:14:aa:
         df:77:7e:4d:ff:e6:9e:65:11:52:55:70:9d:fd:af:b0:01:a2:
         69:71:2f:a7:db:ff:70:4d:91:84:2e:b3:70:fe:a1:04:c2:7d:
         86:8e:37:2e:25:48:41:be:e5:ad:dc:d7:03:1a:95:b7:85:71:
         d2:10:57:9e:72:01:4d:77:53:71:5d:96:fb:5f:f5:2b:d2:a0:
         14:a6:27:bc:91:eb:63:47:c9:bc:1f:34:fa:98:19:82:59:65:
         9c:42:49:1b:3e:2f:fa:1f
-----BEGIN CERTIFICATE-----
MIIE4zCCAsugAwIBAgIBMTANBgkqhkiG9w0BAQUFADBTMRMwEQYKCZImiZPyLGQB
GRYDb3JnMRYwFAYKCZImiZPyLGQBGRYGbW9ucm9lMRAwDgYDVQQLDAdSb290LUNB
MRIwEAYDVQQDDAlSb290LUNBLTEwHhcNMTUxMDE2MDYyMjE2WhcNMTcxMDE1MDYy
MjE2WjBrMRMwEQYKCZImiZPyLGQBGRYDb3JnMRYwFAYKCZImiZPyLGQBGRYGbW9u
cm9lMQ8wDQYDVQQKDAZQT0xJVE8xEzARBgNVBAsMCkNvbXBvbmVudHMxFjAUBgNV
BAMMDU1vbnJvZV9Ob2RlXzEwggEiMA0GCSqGSIb3DQEBAQUAA4IBDwAwggEKAoIB
AQCo1JtUJ4QArHVE2oZRt6cWXUDg2S/wjD6t9Xc3f+bUJNGjLQUDAQ++1Q4oDUOB
qC5ZsIIZEvJnQp4b7xvn7u/pneQ77EEwmlMMj8polXsJb+z1kNa5L+Xf3eDdHXAL
6HzAsLGn8RvoSbf6fJ6j+6wKnuFQqm9Re5FW6EWuxKsHq+MXGVEcVrqOfzD0L3nY
jhsq1FMeo7vPMX2cJEsZA7CVlsuz8D1+gn3QzkBQWotesqKGSXh5A6bUas0dc9s0
SF/iV1STjXxmXRg/AswBQz5tLQr6FO5LQl1zBItrkiJuJvfyI4nMAt/bCma5Sl0r
at+8ZLOLfLxhJCBQzst2vqBLAgMBAAGjgakwgaYwDgYDVR0PAQH/BAQDAgWgMAkG
A1UdEwQCMAAwHQYDVR0lBBYwFAYIKwYBBQUHAwEGCCsGAQUFBwMCMB0GA1UdDgQW
BBT+sXsooSqDWCCP1LaIrdZHgb72DTAfBgNVHSMEGDAWgBTY6Bw30NT3JCyEVuAX
CucjqZTKlDAqBgNVHREEIzAhgh9Nb25yb2VfTm9kZV8xLlBPTElUTy5tb25yb2Uu
b3JnMA0GCSqGSIb3DQEBBQUAA4ICAQBZ0YaErG5IWTQjxFdT1K+MayI7suyuKg4E
/FvrkhF+Pv1PugiagM6mzmNmZlj0U+rWO0w/T8KwvzFoYOy8JS4GkSwqihnT+rw+
Qrb1EOzjQ1KmG5gq+11F/2zny2W6QgSxLONoaRenm8ls27mAZCWJNqAcNinFAWVI
nhoR6o8Xi8f7CXFYRxXO7EIpTEGxlBtO/oxtOF/QrYS7VPtzE1Jqw5aYI1sCmvGW
3iX+I3eSzAyYbKagmeM6Z+LHqmT9RRp/Esc33qt/k25YiP28ETzgx4+bYyEXuy4P
8NVY6wMPJRkanUkx53iJ2nqvxZXau6Di7HpbIpG0wp6cGSLMBdFO9tufPwlEUCvH
nju//PyAcgh3r4NsUd/v8u1hS32tvqnK2qnIgRr/BzZpPZ3wVvXzKai5vhfxLuKm
VxNjqClx2HInDQx2C7TaQlymdPmpJc1uwS6fTARWRCw1okzy/Wdjpcv8dSJuDp8g
7oFwuGq6ER1LDjYLez8Y2zfmnlMV1YGlHRCjZ3ggAnqaY7c5mdkxet35G56zzQWv
nEZwFKrfd35N/+aeZRFSVXCd/a+wAaJpcS+n2/9wTZGELrNw/qEEwn2GjjcuJUhB
vuWt3NcDGpW3hXHSEFeecgFNd1NxXZb7X/Ur0qAUpie8ketjR8m8HzT6mBmCWWWc
QkkbPi/6Hw==
-----END CERTIFICATE-----
