Certificate:
    Data:
        Version: 3 (0x2)
        Serial Number: 50 (0x32)
    Signature Algorithm: sha1WithRSAEncryption
        Issuer: DC=org, DC=monroe, OU=Root-CA, CN=Root-CA-1
        Validity
            Not Before: Oct 16 06:27:08 2015 GMT
            Not After : Oct 15 06:27:08 2017 GMT
        Subject: DC=org, DC=monroe, O=POLITO, OU=Supervisors, CN=Monroe_Supervisor_POLITO_1
        Subject Public Key Info:
            Public Key Algorithm: rsaEncryption
                Public-Key: (2048 bit)
                Modulus:
                    00:a8:d0:b3:0c:e6:91:a0:2d:5f:f7:48:12:4b:92:
                    f7:6a:58:13:da:ef:1a:07:0f:b1:17:6d:f6:fd:60:
                    74:ab:d2:9a:c2:c7:5b:8e:1e:b9:d8:27:0f:3c:c1:
                    5e:5f:ce:e5:4f:84:43:b4:8c:1b:76:d8:32:43:9d:
                    0d:08:4d:80:23:c8:7a:9d:3e:5b:c8:56:63:50:56:
                    5d:de:19:d1:29:bd:fc:32:e7:82:a3:8c:91:f1:73:
                    04:59:fe:ea:75:44:8d:58:5a:2c:2b:5f:c7:30:f7:
                    f0:b7:4d:c5:72:15:71:2c:8a:9b:22:e2:b7:f9:e0:
                    0a:57:bc:6a:54:77:b8:81:47:0d:f3:b7:b3:dd:e0:
                    53:3e:99:d8:6f:47:62:48:52:5e:47:f5:af:62:f8:
                    94:4b:2c:e8:93:7c:14:dd:21:97:b2:77:33:a1:6b:
                    1f:c0:45:05:d9:28:00:41:d3:1c:d5:05:bd:60:ee:
                    80:ba:85:08:32:56:6b:ab:06:59:90:41:0b:ac:9f:
                    83:3d:63:a8:47:e8:27:34:f5:80:5a:21:80:e5:24:
                    de:6a:d5:5d:94:8d:bb:7a:08:b1:b8:1c:1a:71:18:
                    4f:96:ac:38:e5:19:8a:e6:59:49:c6:69:9c:07:cd:
                    dc:b2:e9:2e:50:e5:2e:9e:69:1a:12:a6:c3:a0:9b:
                    55:01
                Exponent: 65537 (0x10001)
        X509v3 extensions:
            X509v3 Key Usage: critical
                Digital Signature, Key Encipherment
            X509v3 Basic Constraints: 
                CA:FALSE
            X509v3 Extended Key Usage: 
                TLS Web Server Authentication, TLS Web Client Authentication
            X509v3 Subject Key Identifier: 
                4E:1F:73:56:49:A6:3A:A8:04:52:69:D4:9D:D8:66:45:E8:26:B5:D9
            X509v3 Authority Key Identifier: 
                keyid:D8:E8:1C:37:D0:D4:F7:24:2C:84:56:E0:17:0A:E7:23:A9:94:CA:94

            X509v3 Subject Alternative Name: 
                DNS:Monroe_Supervisor_POLITO_1.POLITO.monroe.org
    Signature Algorithm: sha1WithRSAEncryption
         ab:b6:04:c1:dd:2d:1b:50:fa:49:46:87:bc:75:f0:16:88:7e:
         b2:93:1b:9d:f4:22:9f:0d:90:c2:2a:99:fa:98:cb:2e:27:9f:
         43:18:33:a8:17:59:22:17:9b:2f:13:a0:f1:37:3a:1a:03:38:
         b8:d6:47:55:ea:b9:fa:54:8c:fe:1c:8a:3b:80:a9:92:df:21:
         a5:a4:c9:7b:a3:2d:47:3e:a9:63:9c:cb:8e:11:2a:53:86:02:
         de:3a:e0:ba:8d:b6:15:32:67:db:59:4c:55:0e:73:48:81:ae:
         b0:bf:48:8f:60:e3:c4:3f:ff:ba:a6:eb:82:e7:8c:66:4e:4c:
         2c:f9:cf:76:7d:62:7e:e2:b0:27:cf:97:9b:2f:76:fd:dd:d1:
         74:a8:2d:18:3a:e1:90:ac:de:94:b6:0f:2b:7a:57:0b:9f:42:
         fa:0c:e6:30:27:d0:63:11:f7:df:04:c9:b6:df:91:3e:a0:ef:
         88:fe:2b:17:55:03:38:4e:05:97:28:fd:02:64:ee:5c:c1:40:
         3e:89:92:0a:6f:0b:4d:86:dc:dd:a4:11:33:63:2d:66:75:90:
         49:cb:6b:77:13:c8:e8:01:eb:02:78:66:0e:5f:cf:d7:51:7d:
         a4:b4:be:29:b2:63:ec:a5:c2:8d:7d:4f:a5:9e:0e:59:37:d2:
         41:b1:18:4c:9a:17:7c:5e:b2:8c:c6:8b:ff:58:1c:80:8a:47:
         da:03:0b:f3:6e:7d:de:40:42:ad:f3:5d:74:d0:d9:bb:ec:b7:
         23:8d:a3:7b:be:03:78:08:e9:24:c9:fc:4f:01:7f:60:c5:63:
         b1:ac:e3:b2:01:d5:9d:a8:9f:f3:5f:23:f8:8a:4c:cf:c4:d6:
         3c:f8:44:26:cd:1b:24:08:40:bb:ac:45:58:49:c3:f4:45:3b:
         9d:43:26:c6:0f:2c:35:ac:b9:67:8b:ce:7b:ef:a7:84:45:62:
         b0:ed:59:23:05:06:e7:84:31:73:cf:20:a0:8a:64:e9:58:92:
         d3:db:f0:e6:93:94:e8:b2:3e:ba:c4:af:c7:09:f5:88:24:5e:
         a6:01:fc:74:2d:32:59:a3:bf:a3:7f:c2:86:1f:d8:26:9d:fd:
         7d:e6:b7:e2:5e:a8:f3:44:3f:64:9b:a4:68:4a:8c:0b:6b:4d:
         26:2f:cb:ab:a5:21:06:22:f2:e6:b6:7c:d3:26:cc:d4:2a:49:
         2e:32:52:9a:56:83:14:f9:01:cb:9d:b7:62:1c:b9:88:eb:66:
         ca:08:d0:2e:fc:df:13:78:84:a0:f2:5e:0c:d5:11:e4:93:ae:
         d2:fd:3f:2c:8d:6c:b1:fa:2b:9f:55:86:29:92:db:1e:b5:ec:
         dd:e7:9c:db:d3:a5:4a:fc
-----BEGIN CERTIFICATE-----
MIIE/jCCAuagAwIBAgIBMjANBgkqhkiG9w0BAQUFADBTMRMwEQYKCZImiZPyLGQB
GRYDb3JnMRYwFAYKCZImiZPyLGQBGRYGbW9ucm9lMRAwDgYDVQQLDAdSb290LUNB
MRIwEAYDVQQDDAlSb290LUNBLTEwHhcNMTUxMDE2MDYyNzA4WhcNMTcxMDE1MDYy
NzA4WjB5MRMwEQYKCZImiZPyLGQBGRYDb3JnMRYwFAYKCZImiZPyLGQBGRYGbW9u
cm9lMQ8wDQYDVQQKDAZQT0xJVE8xFDASBgNVBAsMC1N1cGVydmlzb3JzMSMwIQYD
VQQDDBpNb25yb2VfU3VwZXJ2aXNvcl9QT0xJVE9fMTCCASIwDQYJKoZIhvcNAQEB
BQADggEPADCCAQoCggEBAKjQswzmkaAtX/dIEkuS92pYE9rvGgcPsRdt9v1gdKvS
msLHW44eudgnDzzBXl/O5U+EQ7SMG3bYMkOdDQhNgCPIep0+W8hWY1BWXd4Z0Sm9
/DLngqOMkfFzBFn+6nVEjVhaLCtfxzD38LdNxXIVcSyKmyLit/ngCle8alR3uIFH
DfO3s93gUz6Z2G9HYkhSXkf1r2L4lEss6JN8FN0hl7J3M6FrH8BFBdkoAEHTHNUF
vWDugLqFCDJWa6sGWZBBC6yfgz1jqEfoJzT1gFohgOUk3mrVXZSNu3oIsbgcGnEY
T5asOOUZiuZZScZpnAfN3LLpLlDlLp5pGhKmw6CbVQECAwEAAaOBtjCBszAOBgNV
HQ8BAf8EBAMCBaAwCQYDVR0TBAIwADAdBgNVHSUEFjAUBggrBgEFBQcDAQYIKwYB
BQUHAwIwHQYDVR0OBBYEFE4fc1ZJpjqoBFJp1J3YZkXoJrXZMB8GA1UdIwQYMBaA
FNjoHDfQ1PckLIRW4BcK5yOplMqUMDcGA1UdEQQwMC6CLE1vbnJvZV9TdXBlcnZp
c29yX1BPTElUT18xLlBPTElUTy5tb25yb2Uub3JnMA0GCSqGSIb3DQEBBQUAA4IC
AQCrtgTB3S0bUPpJRoe8dfAWiH6ykxud9CKfDZDCKpn6mMsuJ59DGDOoF1kiF5sv
E6DxNzoaAzi41kdV6rn6VIz+HIo7gKmS3yGlpMl7oy1HPqljnMuOESpThgLeOuC6
jbYVMmfbWUxVDnNIga6wv0iPYOPEP/+6puuC54xmTkws+c92fWJ+4rAnz5ebL3b9
3dF0qC0YOuGQrN6Utg8relcLn0L6DOYwJ9BjEfffBMm235E+oO+I/isXVQM4TgWX
KP0CZO5cwUA+iZIKbwtNhtzdpBEzYy1mdZBJy2t3E8joAesCeGYOX8/XUX2ktL4p
smPspcKNfU+lng5ZN9JBsRhMmhd8XrKMxov/WByAikfaAwvzbn3eQEKt81100Nm7
7LcjjaN7vgN4COkkyfxPAX9gxWOxrOOyAdWdqJ/zXyP4ikzPxNY8+EQmzRskCEC7
rEVYScP0RTudQybGDyw1rLlni85776eERWKw7VkjBQbnhDFzzyCgimTpWJLT2/Dm
k5Tosj66xK/HCfWIJF6mAfx0LTJZo7+jf8KGH9gmnf195rfiXqjzRD9km6RoSowL
a00mL8urpSEGIvLmtnzTJszUKkkuMlKaVoMU+QHLnbdiHLmI62bKCNAu/N8TeISg
8l4M1RHkk67S/T8sjWyx+iufVYYpktsetezd55zb06VK/A==
-----END CERTIFICATE-----
