Certificate:
    Data:
        Version: 3 (0x2)
        Serial Number: 51 (0x33)
    Signature Algorithm: sha1WithRSAEncryption
        Issuer: DC=org, DC=monroe, OU=Root-CA, CN=Root-CA-1
        Validity
            Not Before: Oct 19 08:40:27 2015 GMT
            Not After : Oct 18 08:40:27 2017 GMT
        Subject: DC=org, DC=monroe, O=POLITO, OU=Components, CN=Monroe_Node_
        Subject Public Key Info:
            Public Key Algorithm: rsaEncryption
                Public-Key: (2048 bit)
                Modulus:
                    00:b4:4b:95:44:ce:a5:85:31:13:09:bb:cb:f1:ec:
                    f0:4d:01:5b:a6:89:bc:96:36:46:b8:4b:1c:85:de:
                    09:95:0e:a7:54:6a:73:8b:90:b9:27:1e:69:23:87:
                    57:2c:50:b4:04:d9:08:33:77:87:31:84:2d:92:e1:
                    84:a9:9f:d5:e8:ae:8c:62:70:af:0c:3d:f3:b4:5c:
                    4c:d1:d4:41:cd:8a:28:3a:2c:5a:33:1a:d7:ad:c7:
                    dd:6f:7a:93:62:d5:b5:4c:35:ed:1a:7b:89:b6:95:
                    8a:b5:31:8f:35:ee:4b:86:4b:67:e5:6a:95:7c:c4:
                    be:1c:36:1b:30:11:57:07:e8:dc:4c:3d:49:ea:a1:
                    0a:f0:d0:60:e1:b0:aa:cf:0e:78:a0:d6:e3:6e:4f:
                    fd:0c:6f:25:05:97:34:24:66:33:a0:4f:c2:16:42:
                    32:e2:42:0c:f9:73:e3:36:aa:e0:e0:b2:ee:28:d9:
                    29:18:4b:66:10:ec:5d:b6:12:ed:3f:35:21:25:3f:
                    7d:d0:77:b7:31:df:82:82:58:51:98:6d:bd:10:c9:
                    d1:a4:04:44:2b:7f:0c:34:d5:05:e5:87:a6:16:bd:
                    46:7d:e3:03:cc:63:14:e7:17:e6:4d:76:4d:dc:bf:
                    7e:cd:f2:49:fc:a9:3d:a5:76:43:ac:17:66:39:fc:
                    2f:8b
                Exponent: 65537 (0x10001)
        X509v3 extensions:
            X509v3 Key Usage: critical
                Digital Signature, Key Encipherment
            X509v3 Basic Constraints: 
                CA:FALSE
            X509v3 Extended Key Usage: 
                TLS Web Server Authentication, TLS Web Client Authentication
            X509v3 Subject Key Identifier: 
                D7:0F:CD:BE:23:B8:22:8F:43:72:CC:B6:BA:27:6A:9E:3B:AD:50:5C
            X509v3 Authority Key Identifier: 
                keyid:D8:E8:1C:37:D0:D4:F7:24:2C:84:56:E0:17:0A:E7:23:A9:94:CA:94

            X509v3 Subject Alternative Name: 
                DNS:Monroe_Node_.POLITO.monroe.org
    Signature Algorithm: sha1WithRSAEncryption
         06:b3:7b:b1:46:49:cd:76:20:80:21:c7:4e:71:3a:73:bc:c2:
         dc:25:0d:45:d1:37:f5:25:f5:56:01:1e:d1:26:54:dd:27:18:
         6e:86:79:9e:f3:dd:d4:67:8e:46:18:02:07:c7:9e:a4:b0:d7:
         00:b3:12:91:4e:a0:e4:dd:a6:06:60:b7:95:ec:46:d0:b3:f7:
         e3:5f:81:d3:d2:2a:fa:f3:56:9b:e4:7c:b1:74:da:77:38:05:
         7f:a8:dc:b9:4b:20:55:8e:f0:89:93:48:fa:fc:10:e2:e3:fb:
         7e:90:92:93:80:af:01:d9:53:a6:8c:f5:53:98:aa:36:fe:d8:
         fd:bb:5c:7a:b9:69:6c:57:b5:ab:37:df:82:a8:98:a3:a9:b3:
         f7:e0:b5:36:6d:8e:4d:32:0a:4f:f5:fd:4c:ca:05:79:1c:99:
         ac:1f:0e:96:43:df:d2:75:4f:61:19:a7:90:0d:56:ab:98:22:
         05:05:3d:75:88:38:c7:ca:97:c6:bb:ba:a4:c9:29:2f:6c:47:
         c1:6b:32:74:6e:54:a3:fd:a3:6b:b2:0f:b5:c5:12:7b:a9:b6:
         3b:ab:2f:ec:2c:69:20:07:67:00:ea:e3:0b:8d:28:97:e7:67:
         e0:78:8b:a9:e4:8c:53:f1:ec:df:19:c7:c7:42:c1:60:7d:71:
         51:e1:c1:56:f5:6f:49:f4:82:4e:51:18:83:4e:fd:39:3b:2e:
         c1:42:d1:df:a5:10:3a:99:b5:48:51:ec:df:20:5d:4d:31:18:
         06:9f:ad:64:5e:bf:99:48:ea:02:af:d3:4c:cb:1f:87:11:22:
         34:6e:21:f7:98:b9:c6:73:a2:7b:b0:05:1e:69:eb:8a:cf:61:
         a0:2c:52:53:6b:7e:b3:39:eb:b2:04:15:b7:85:58:bb:c2:88:
         16:0c:71:47:5f:b9:2f:0d:5a:29:a7:9c:42:2e:19:3f:b6:d4:
         dd:40:df:fd:b9:8b:57:cb:18:96:b4:02:1a:a0:7c:2f:37:b1:
         28:28:dc:66:ec:a2:3f:e7:15:1a:55:83:b3:69:d5:31:a4:c4:
         37:1b:e0:5e:0d:24:bc:b4:17:2c:6f:bc:ff:94:b4:83:21:cb:
         85:2a:39:16:f5:dd:db:da:0e:d8:fb:22:7f:b8:48:41:9d:1a:
         5b:8e:af:87:d3:83:e5:32:45:36:78:bf:47:af:ed:9d:20:ae:
         8c:91:71:d7:80:07:3f:0d:ac:a4:4b:a8:a1:2f:66:e7:c7:51:
         1b:34:95:28:92:41:a9:c1:9b:8e:22:a7:e5:f7:aa:fe:25:29:
         bc:ee:37:eb:16:aa:69:58:69:65:aa:07:7a:f7:f3:8c:d8:20:
         4f:ad:9c:b7:17:93:c6:6a
-----BEGIN CERTIFICATE-----
MIIE4TCCAsmgAwIBAgIBMzANBgkqhkiG9w0BAQUFADBTMRMwEQYKCZImiZPyLGQB
GRYDb3JnMRYwFAYKCZImiZPyLGQBGRYGbW9ucm9lMRAwDgYDVQQLDAdSb290LUNB
MRIwEAYDVQQDDAlSb290LUNBLTEwHhcNMTUxMDE5MDg0MDI3WhcNMTcxMDE4MDg0
MDI3WjBqMRMwEQYKCZImiZPyLGQBGRYDb3JnMRYwFAYKCZImiZPyLGQBGRYGbW9u
cm9lMQ8wDQYDVQQKDAZQT0xJVE8xEzARBgNVBAsMCkNvbXBvbmVudHMxFTATBgNV
BAMMDE1vbnJvZV9Ob2RlXzCCASIwDQYJKoZIhvcNAQEBBQADggEPADCCAQoCggEB
ALRLlUTOpYUxEwm7y/Hs8E0BW6aJvJY2RrhLHIXeCZUOp1Rqc4uQuSceaSOHVyxQ
tATZCDN3hzGELZLhhKmf1eiujGJwrww987RcTNHUQc2KKDosWjMa163H3W96k2LV
tUw17Rp7ibaVirUxjzXuS4ZLZ+VqlXzEvhw2GzARVwfo3Ew9SeqhCvDQYOGwqs8O
eKDW425P/QxvJQWXNCRmM6BPwhZCMuJCDPlz4zaq4OCy7ijZKRhLZhDsXbYS7T81
ISU/fdB3tzHfgoJYUZhtvRDJ0aQERCt/DDTVBeWHpha9Rn3jA8xjFOcX5k12Tdy/
fs3ySfypPaV2Q6wXZjn8L4sCAwEAAaOBqDCBpTAOBgNVHQ8BAf8EBAMCBaAwCQYD
VR0TBAIwADAdBgNVHSUEFjAUBggrBgEFBQcDAQYIKwYBBQUHAwIwHQYDVR0OBBYE
FNcPzb4juCKPQ3LMtronap47rVBcMB8GA1UdIwQYMBaAFNjoHDfQ1PckLIRW4BcK
5yOplMqUMCkGA1UdEQQiMCCCHk1vbnJvZV9Ob2RlXy5QT0xJVE8ubW9ucm9lLm9y
ZzANBgkqhkiG9w0BAQUFAAOCAgEABrN7sUZJzXYggCHHTnE6c7zC3CUNRdE39SX1
VgEe0SZU3ScYboZ5nvPd1GeORhgCB8eepLDXALMSkU6g5N2mBmC3lexG0LP341+B
09Iq+vNWm+R8sXTadzgFf6jcuUsgVY7wiZNI+vwQ4uP7fpCSk4CvAdlTpoz1U5iq
Nv7Y/btcerlpbFe1qzffgqiYo6mz9+C1Nm2OTTIKT/X9TMoFeRyZrB8OlkPf0nVP
YRmnkA1Wq5giBQU9dYg4x8qXxru6pMkpL2xHwWsydG5Uo/2ja7IPtcUSe6m2O6sv
7CxpIAdnAOrjC40ol+dn4HiLqeSMU/Hs3xnHx0LBYH1xUeHBVvVvSfSCTlEYg079
OTsuwULR36UQOpm1SFHs3yBdTTEYBp+tZF6/mUjqAq/TTMsfhxEiNG4h95i5xnOi
e7AFHmnris9hoCxSU2t+sznrsgQVt4VYu8KIFgxxR1+5Lw1aKaecQi4ZP7bU3UDf
/bmLV8sYlrQCGqB8LzexKCjcZuyiP+cVGlWDs2nVMaTENxvgXg0kvLQXLG+8/5S0
gyHLhSo5FvXd29oO2Psif7hIQZ0aW46vh9OD5TJFNni/R6/tnSCujJFx14AHPw2s
pEuooS9m58dRGzSVKJJBqcGbjiKn5feq/iUpvO436xaqaVhpZaoHevfzjNggT62c
txeTxmo=
-----END CERTIFICATE-----
