Certificate:
    Data:
        Version: 3 (0x2)
        Serial Number: 52 (0x34)
    Signature Algorithm: sha1WithRSAEncryption
        Issuer: DC=org, DC=monroe, OU=Root-CA, CN=Root-CA-1
        Validity
            Not Before: Oct 19 08:41:06 2015 GMT
            Not After : Oct 18 08:41:06 2017 GMT
        Subject: DC=org, DC=monroe, O=POLITO, OU=Components, CN=Monroe_Node_
        Subject Public Key Info:
            Public Key Algorithm: rsaEncryption
                Public-Key: (2048 bit)
                Modulus:
                    00:c0:92:e0:0c:e6:70:f0:19:f2:f2:c1:32:7d:5f:
                    9e:43:2e:e8:f4:e3:9f:39:e0:5c:1f:88:35:85:9a:
                    0d:46:83:d2:a2:b7:f9:22:d2:13:d9:b0:f1:d8:f6:
                    57:a3:02:64:52:e7:45:15:24:de:78:12:71:a1:54:
                    ef:1f:4c:c6:90:e3:87:c7:33:13:c7:fd:23:33:bf:
                    be:07:5d:3b:6e:b2:d7:f7:61:d5:a9:a5:62:dc:85:
                    3a:2b:19:4c:a0:0b:d2:84:2e:43:e5:e0:b5:f5:e8:
                    b8:93:c5:43:b9:1b:f5:d0:d3:e7:67:a8:43:e3:5e:
                    be:41:8b:2e:dd:07:ca:fd:e1:d8:a9:1e:5f:11:8b:
                    48:03:1a:a4:2a:b1:5f:f0:0e:bb:47:30:99:a4:7a:
                    53:4e:fc:d8:0e:6b:30:c4:cc:63:05:9c:b6:e2:52:
                    73:f6:53:93:68:63:40:2c:c9:41:1c:ed:23:f5:56:
                    32:bb:cd:9a:7b:15:b2:e4:c1:ff:c1:ff:c7:ab:c9:
                    96:13:c3:cc:be:a5:59:34:17:98:5d:ed:6c:56:05:
                    d5:f4:84:b3:62:31:3c:8e:93:80:09:f9:2d:31:93:
                    03:03:3f:66:82:50:22:57:99:62:bf:90:22:aa:b3:
                    a2:62:a6:7b:ba:de:9c:4f:77:54:a5:41:0c:7c:6f:
                    e6:79
                Exponent: 65537 (0x10001)
        X509v3 extensions:
            X509v3 Key Usage: critical
                Digital Signature, Key Encipherment
            X509v3 Basic Constraints: 
                CA:FALSE
            X509v3 Extended Key Usage: 
                TLS Web Server Authentication, TLS Web Client Authentication
            X509v3 Subject Key Identifier: 
                3A:C0:19:F2:1A:23:E2:00:F8:39:19:CF:78:E2:2F:1D:F1:05:75:B8
            X509v3 Authority Key Identifier: 
                keyid:D8:E8:1C:37:D0:D4:F7:24:2C:84:56:E0:17:0A:E7:23:A9:94:CA:94

            X509v3 Subject Alternative Name: 
                DNS:Monroe_Node_.POLITO.monroe.org
    Signature Algorithm: sha1WithRSAEncryption
         b7:c1:9b:b1:9b:19:8b:11:2e:0d:2c:52:f4:fa:27:40:5d:57:
         de:e7:bc:53:19:70:c6:ab:6c:37:9d:6d:0d:69:93:7e:9a:ea:
         bb:41:7d:e7:8e:2f:aa:77:e7:11:87:75:d7:74:03:41:25:25:
         b8:86:96:2b:b0:51:97:0b:10:e6:bb:c7:23:55:eb:3b:e0:b6:
         47:0e:ab:16:57:8e:c4:73:af:5e:14:f1:33:38:22:f7:6b:b5:
         51:6e:fa:de:8a:fb:34:1a:87:99:a6:8b:bc:c3:45:8b:5c:d8:
         3f:06:e2:53:49:e8:8e:39:50:9d:0e:45:c1:5e:4d:2d:e1:cc:
         1a:5d:35:37:b2:29:90:12:d8:8e:a9:32:20:c8:72:00:46:de:
         2b:b6:cf:52:91:c5:7c:ad:1c:0c:35:d9:52:d0:8d:d8:12:7f:
         6b:1e:38:c5:35:26:3b:a6:76:61:3c:59:1e:20:2e:5a:64:e0:
         27:c6:37:83:5e:2a:d6:fe:92:ca:d9:08:15:33:5f:cb:ca:74:
         77:18:e9:ec:56:ea:2e:a3:aa:37:00:9b:27:57:cc:81:3e:26:
         2f:72:d0:27:7c:9a:9b:4c:11:75:02:ae:11:7d:de:89:f5:0f:
         ed:64:a4:4d:03:1d:a5:4a:44:b9:03:cd:a9:24:8d:da:22:83:
         b7:73:68:01:84:eb:b4:28:83:ba:fc:48:a8:37:45:07:b6:83:
         bc:da:05:59:a0:cb:d7:cd:5d:0e:da:fe:4b:55:0e:57:c9:36:
         6e:63:e2:95:e9:90:a7:c2:af:12:51:c2:07:6e:56:ab:ac:b2:
         2e:bb:73:0c:5b:d6:e5:26:e4:39:d8:b9:37:d6:0a:d4:a5:df:
         c8:f4:4c:63:ed:6f:11:75:3a:90:a4:82:5b:23:3e:c4:b1:ef:
         51:27:c8:83:2c:b2:5b:89:0a:97:5c:92:9d:30:cb:7d:17:e2:
         6f:84:da:d8:77:1a:8a:fc:41:ec:7a:3d:95:0c:a9:c3:1f:59:
         19:39:f4:98:96:13:38:fc:62:8d:04:19:c4:bf:02:e9:9e:72:
         e3:c0:9c:80:ee:b6:5d:23:19:af:04:ca:d6:dd:4d:f2:63:0a:
         21:6c:48:a4:25:5e:65:76:49:9c:56:b8:d6:c0:f6:f8:b9:06:
         82:9d:59:f1:6c:e7:14:0c:bc:69:fb:aa:eb:7f:d5:d3:74:86:
         cd:04:c5:77:04:64:4a:61:0a:d5:e9:1c:4c:54:1f:a5:53:b9:
         5b:5e:73:58:8b:61:bb:7a:6e:d9:66:6f:60:34:aa:05:2e:6c:
         ec:31:cb:26:9c:3d:af:af:f4:ff:ac:52:78:c9:7a:cf:d8:29:
         a4:d3:46:a2:37:17:34:7d
-----BEGIN CERTIFICATE-----
MIIE4TCCAsmgAwIBAgIBNDANBgkqhkiG9w0BAQUFADBTMRMwEQYKCZImiZPyLGQB
GRYDb3JnMRYwFAYKCZImiZPyLGQBGRYGbW9ucm9lMRAwDgYDVQQLDAdSb290LUNB
MRIwEAYDVQQDDAlSb290LUNBLTEwHhcNMTUxMDE5MDg0MTA2WhcNMTcxMDE4MDg0
MTA2WjBqMRMwEQYKCZImiZPyLGQBGRYDb3JnMRYwFAYKCZImiZPyLGQBGRYGbW9u
cm9lMQ8wDQYDVQQKDAZQT0xJVE8xEzARBgNVBAsMCkNvbXBvbmVudHMxFTATBgNV
BAMMDE1vbnJvZV9Ob2RlXzCCASIwDQYJKoZIhvcNAQEBBQADggEPADCCAQoCggEB
AMCS4AzmcPAZ8vLBMn1fnkMu6PTjnzngXB+INYWaDUaD0qK3+SLSE9mw8dj2V6MC
ZFLnRRUk3ngScaFU7x9MxpDjh8czE8f9IzO/vgddO26y1/dh1amlYtyFOisZTKAL
0oQuQ+XgtfXouJPFQ7kb9dDT52eoQ+NevkGLLt0Hyv3h2KkeXxGLSAMapCqxX/AO
u0cwmaR6U0782A5rMMTMYwWctuJSc/ZTk2hjQCzJQRztI/VWMrvNmnsVsuTB/8H/
x6vJlhPDzL6lWTQXmF3tbFYF1fSEs2IxPI6TgAn5LTGTAwM/ZoJQIleZYr+QIqqz
omKme7renE93VKVBDHxv5nkCAwEAAaOBqDCBpTAOBgNVHQ8BAf8EBAMCBaAwCQYD
VR0TBAIwADAdBgNVHSUEFjAUBggrBgEFBQcDAQYIKwYBBQUHAwIwHQYDVR0OBBYE
FDrAGfIaI+IA+DkZz3jiLx3xBXW4MB8GA1UdIwQYMBaAFNjoHDfQ1PckLIRW4BcK
5yOplMqUMCkGA1UdEQQiMCCCHk1vbnJvZV9Ob2RlXy5QT0xJVE8ubW9ucm9lLm9y
ZzANBgkqhkiG9w0BAQUFAAOCAgEAt8GbsZsZixEuDSxS9PonQF1X3ue8Uxlwxqts
N51tDWmTfprqu0F9544vqnfnEYd113QDQSUluIaWK7BRlwsQ5rvHI1XrO+C2Rw6r
FleOxHOvXhTxMzgi92u1UW763or7NBqHmaaLvMNFi1zYPwbiU0nojjlQnQ5FwV5N
LeHMGl01N7IpkBLYjqkyIMhyAEbeK7bPUpHFfK0cDDXZUtCN2BJ/ax44xTUmO6Z2
YTxZHiAuWmTgJ8Y3g14q1v6SytkIFTNfy8p0dxjp7FbqLqOqNwCbJ1fMgT4mL3LQ
J3yam0wRdQKuEX3eifUP7WSkTQMdpUpEuQPNqSSN2iKDt3NoAYTrtCiDuvxIqDdF
B7aDvNoFWaDL181dDtr+S1UOV8k2bmPilemQp8KvElHCB25Wq6yyLrtzDFvW5Sbk
Odi5N9YK1KXfyPRMY+1vEXU6kKSCWyM+xLHvUSfIgyyyW4kKl1ySnTDLfRfib4Ta
2HcaivxB7Ho9lQypwx9ZGTn0mJYTOPxijQQZxL8C6Z5y48CcgO62XSMZrwTK1t1N
8mMKIWxIpCVeZXZJnFa41sD2+LkGgp1Z8WznFAy8afuq63/V03SGzQTFdwRkSmEK
1ekcTFQfpVO5W15zWIthu3pu2WZvYDSqBS5s7DHLJpw9r6/0/6xSeMl6z9gppNNG
ojcXNH0=
-----END CERTIFICATE-----
