Certificate:
    Data:
        Version: 3 (0x2)
        Serial Number: 53 (0x35)
    Signature Algorithm: sha1WithRSAEncryption
        Issuer: DC=org, DC=monroe, OU=Root-CA, CN=Root-CA-1
        Validity
            Not Before: Oct 19 08:41:15 2015 GMT
            Not After : Oct 18 08:41:15 2017 GMT
        Subject: DC=org, DC=monroe, O=POLITO, OU=Components, CN=Monroe_Node_
        Subject Public Key Info:
            Public Key Algorithm: rsaEncryption
                Public-Key: (2048 bit)
                Modulus:
                    00:de:97:2c:49:c7:72:41:05:1e:09:fe:98:23:f5:
                    2e:62:ce:1d:a2:aa:e9:21:8c:f7:37:d2:b1:14:6d:
                    b5:2d:04:2e:ad:ec:55:ce:48:ff:4a:81:06:97:1b:
                    8f:12:6f:0d:f4:be:c4:c1:43:43:a6:b8:49:7c:98:
                    76:14:7c:e6:09:e1:65:b7:90:3c:fd:74:27:25:dc:
                    99:ce:ca:52:7d:fa:f8:f4:5b:f5:bb:17:39:c1:08:
                    09:d3:62:dc:7f:c3:1f:23:f0:44:4b:49:35:ca:2c:
                    cc:ab:33:d7:0d:19:f7:d1:54:84:de:02:98:cc:d2:
                    f5:c2:60:95:1d:ba:fc:31:ff:6e:b6:fb:f1:f3:62:
                    be:1c:2d:c4:5d:25:4c:18:1b:03:82:1d:ec:93:74:
                    23:c4:2a:5e:91:97:e9:0a:ef:32:a0:d9:43:7d:c9:
                    3e:2a:4a:7a:7f:24:a7:b8:23:5c:e5:28:f4:94:4b:
                    fe:5d:99:a7:7e:2d:78:28:3f:1c:d1:94:db:06:03:
                    ed:7e:4f:c5:37:be:25:d6:3e:45:f4:0b:83:0e:34:
                    78:45:f7:df:df:4d:4b:39:fd:d7:4c:4f:b1:4d:b9:
                    92:fb:37:2f:6b:df:87:46:51:56:a3:78:2d:c2:fd:
                    a6:04:3c:31:1c:53:cf:86:dd:46:6a:4c:a7:b3:0b:
                    bb:27
                Exponent: 65537 (0x10001)
        X509v3 extensions:
            X509v3 Key Usage: critical
                Digital Signature, Key Encipherment
            X509v3 Basic Constraints: 
                CA:FALSE
            X509v3 Extended Key Usage: 
                TLS Web Server Authentication, TLS Web Client Authentication
            X509v3 Subject Key Identifier: 
                98:6F:C0:CE:EE:6A:80:50:E2:16:DE:20:6F:D6:95:48:58:9A:CE:DF
            X509v3 Authority Key Identifier: 
                keyid:D8:E8:1C:37:D0:D4:F7:24:2C:84:56:E0:17:0A:E7:23:A9:94:CA:94

            X509v3 Subject Alternative Name: 
                DNS:Monroe_Node_.POLITO.monroe.org
    Signature Algorithm: sha1WithRSAEncryption
         b9:08:eb:97:e2:8f:29:9c:ca:2e:f7:9b:0f:68:d1:fb:ed:7d:
         b3:9b:66:a7:8f:55:8d:1e:1e:da:61:32:99:9e:1a:2d:05:d0:
         2d:2a:99:7f:26:2a:ff:53:31:0f:35:59:08:cb:66:73:86:39:
         c5:64:dd:d4:ce:5c:b4:c3:8a:30:ca:ef:77:f4:6a:96:37:48:
         13:cb:2e:8a:59:5e:a8:fa:5f:71:65:fa:32:05:4c:05:e5:fa:
         fc:b5:53:79:f4:1a:a7:a1:8a:c6:f9:b2:f8:f8:3a:0d:1e:53:
         7f:67:cb:8b:30:90:f8:3f:6b:30:57:42:cf:1c:8f:cc:1c:d2:
         08:7e:f8:0d:33:0e:71:f9:06:69:92:bc:90:c3:ba:1b:57:24:
         3a:5e:84:11:73:91:ae:de:e0:7b:9f:d0:3b:88:97:22:5e:0d:
         45:e0:f6:08:56:b8:b4:7f:14:10:71:b9:ea:21:7b:f1:0d:17:
         b7:4a:89:be:80:81:74:aa:4e:09:ed:55:d4:b6:5d:ab:b7:de:
         1c:aa:bc:4a:cc:c3:ef:98:02:ee:d5:69:8b:e5:f9:96:3d:e3:
         37:fa:fc:f4:d7:e5:d8:61:1e:dd:3a:e4:97:e7:fe:ec:99:c7:
         b4:8d:3e:93:2c:9a:c2:98:cf:20:82:9b:73:1f:57:99:46:ed:
         1b:d7:ef:92:dc:b0:dd:72:4d:8e:29:3c:c2:c1:ec:0b:6b:b1:
         4c:17:6f:4a:dc:5a:15:34:5e:8b:cc:3d:e5:b0:51:27:34:0e:
         fd:d8:11:f3:15:99:21:96:f8:67:33:bb:cf:34:2d:93:f0:21:
         47:12:15:d8:34:7f:8a:3e:00:65:1c:7b:ef:d9:57:71:9f:dd:
         da:c7:95:1c:3f:83:78:60:b6:32:ac:0e:ea:a4:3f:7d:7a:ee:
         6d:33:f9:5d:cf:3b:8c:f5:f2:c2:f8:ba:ca:fd:75:bf:c8:29:
         13:a0:b4:71:ec:fc:b2:ee:35:c3:9c:8c:09:db:78:00:08:b8:
         96:37:c1:ab:84:fc:8f:48:af:31:f9:0e:4b:ff:c1:dd:d4:5b:
         05:59:de:e4:ab:4a:b7:3a:00:4d:1c:da:df:80:b6:ce:73:d3:
         79:75:34:2f:af:4f:6a:44:d0:dd:94:8c:68:93:03:a5:ca:a8:
         0f:f3:7c:6b:49:ee:22:c6:5b:ba:bf:1e:d5:61:76:71:8b:bd:
         12:82:ee:7d:1f:47:84:33:6f:a5:ca:ef:56:02:3f:90:e2:2a:
         80:3a:f5:0d:35:c4:f5:a6:bc:a4:dc:46:ce:5c:51:ac:ac:88:
         03:0f:94:51:c9:5d:5c:42:fd:c2:ca:21:a7:f8:e7:ad:7d:71:
         4b:5a:65:a2:be:9f:e9:a3
-----BEGIN CERTIFICATE-----
MIIE4TCCAsmgAwIBAgIBNTANBgkqhkiG9w0BAQUFADBTMRMwEQYKCZImiZPyLGQB
GRYDb3JnMRYwFAYKCZImiZPyLGQBGRYGbW9ucm9lMRAwDgYDVQQLDAdSb290LUNB
MRIwEAYDVQQDDAlSb290LUNBLTEwHhcNMTUxMDE5MDg0MTE1WhcNMTcxMDE4MDg0
MTE1WjBqMRMwEQYKCZImiZPyLGQBGRYDb3JnMRYwFAYKCZImiZPyLGQBGRYGbW9u
cm9lMQ8wDQYDVQQKDAZQT0xJVE8xEzARBgNVBAsMCkNvbXBvbmVudHMxFTATBgNV
BAMMDE1vbnJvZV9Ob2RlXzCCASIwDQYJKoZIhvcNAQEBBQADggEPADCCAQoCggEB
AN6XLEnHckEFHgn+mCP1LmLOHaKq6SGM9zfSsRRttS0ELq3sVc5I/0qBBpcbjxJv
DfS+xMFDQ6a4SXyYdhR85gnhZbeQPP10JyXcmc7KUn36+PRb9bsXOcEICdNi3H/D
HyPwREtJNcoszKsz1w0Z99FUhN4CmMzS9cJglR26/DH/brb78fNivhwtxF0lTBgb
A4Id7JN0I8QqXpGX6QrvMqDZQ33JPipKen8kp7gjXOUo9JRL/l2Zp34teCg/HNGU
2wYD7X5PxTe+JdY+RfQLgw40eEX3399NSzn910xPsU25kvs3L2vfh0ZRVqN4LcL9
pgQ8MRxTz4bdRmpMp7MLuycCAwEAAaOBqDCBpTAOBgNVHQ8BAf8EBAMCBaAwCQYD
VR0TBAIwADAdBgNVHSUEFjAUBggrBgEFBQcDAQYIKwYBBQUHAwIwHQYDVR0OBBYE
FJhvwM7uaoBQ4hbeIG/WlUhYms7fMB8GA1UdIwQYMBaAFNjoHDfQ1PckLIRW4BcK
5yOplMqUMCkGA1UdEQQiMCCCHk1vbnJvZV9Ob2RlXy5QT0xJVE8ubW9ucm9lLm9y
ZzANBgkqhkiG9w0BAQUFAAOCAgEAuQjrl+KPKZzKLvebD2jR++19s5tmp49VjR4e
2mEymZ4aLQXQLSqZfyYq/1MxDzVZCMtmc4Y5xWTd1M5ctMOKMMrvd/RqljdIE8su
illeqPpfcWX6MgVMBeX6/LVTefQap6GKxvmy+Pg6DR5Tf2fLizCQ+D9rMFdCzxyP
zBzSCH74DTMOcfkGaZK8kMO6G1ckOl6EEXORrt7ge5/QO4iXIl4NReD2CFa4tH8U
EHG56iF78Q0Xt0qJvoCBdKpOCe1V1LZdq7feHKq8SszD75gC7tVpi+X5lj3jN/r8
9Nfl2GEe3Trkl+f+7JnHtI0+kyyawpjPIIKbcx9XmUbtG9fvktyw3XJNjik8wsHs
C2uxTBdvStxaFTRei8w95bBRJzQO/dgR8xWZIZb4ZzO7zzQtk/AhRxIV2DR/ij4A
ZRx779lXcZ/d2seVHD+DeGC2MqwO6qQ/fXrubTP5Xc87jPXywvi6yv11v8gpE6C0
cez8su41w5yMCdt4AAi4ljfBq4T8j0ivMfkOS//B3dRbBVne5KtKtzoATRza34C2
znPTeXU0L69PakTQ3ZSMaJMDpcqoD/N8a0nuIsZbur8e1WF2cYu9EoLufR9HhDNv
pcrvVgI/kOIqgDr1DTXE9aa8pNxGzlxRrKyIAw+UUcldXEL9wsohp/jnrX1xS1pl
or6f6aM=
-----END CERTIFICATE-----
