Certificate:
    Data:
        Version: 3 (0x2)
        Serial Number: 54 (0x36)
    Signature Algorithm: sha1WithRSAEncryption
        Issuer: DC=org, DC=monroe, OU=Root-CA, CN=Root-CA-1
        Validity
            Not Before: Oct 19 08:44:44 2015 GMT
            Not After : Oct 18 08:44:44 2017 GMT
        Subject: DC=org, DC=monroe, O=POLITO, OU=Components, CN=Monroe_Node_3434
        Subject Public Key Info:
            Public Key Algorithm: rsaEncryption
                Public-Key: (2048 bit)
                Modulus:
                    00:bf:98:92:d6:a0:df:76:95:f8:80:d5:db:0a:fa:
                    99:51:80:65:5e:12:3b:d3:80:10:82:d4:48:60:3f:
                    d3:d9:05:70:ad:3a:23:9d:99:4f:e4:4c:50:2d:8e:
                    54:ac:65:1c:7f:1a:5a:23:e0:d0:e9:d5:48:6c:ba:
                    b2:74:d9:5d:d6:fb:2d:4a:ca:e1:f0:50:64:d3:b7:
                    0f:34:5f:06:c0:56:73:df:a6:b6:bf:d6:4c:b5:2a:
                    27:89:e5:c6:8b:ea:99:89:f0:7c:5d:fa:25:67:8e:
                    3e:83:2c:82:b5:b4:2e:cf:23:de:55:c8:29:bd:da:
                    e4:00:9a:86:8a:4c:68:6b:dd:06:f5:cb:70:77:33:
                    1b:9a:18:31:4c:c7:51:63:cf:d0:85:79:dd:d3:1b:
                    19:7a:c1:a8:93:0a:ff:d1:ed:44:17:52:db:4a:d0:
                    25:70:2b:44:73:95:6a:75:ed:43:2c:28:0d:e9:62:
                    cc:89:c4:61:78:4f:b1:f1:a0:d8:60:5a:b4:97:56:
                    6a:94:88:73:a4:64:af:59:30:12:50:9c:80:a1:b2:
                    96:6f:6c:0b:ef:16:aa:fa:11:eb:fe:bd:79:2b:2e:
                    8c:6a:66:55:98:78:23:8b:62:a9:0b:0b:d0:fd:80:
                    55:21:54:38:fc:3c:ac:a0:d3:3e:63:f9:d1:70:95:
                    d4:0d
                Exponent: 65537 (0x10001)
        X509v3 extensions:
            X509v3 Key Usage: critical
                Digital Signature, Key Encipherment
            X509v3 Basic Constraints: 
                CA:FALSE
            X509v3 Extended Key Usage: 
                TLS Web Server Authentication, TLS Web Client Authentication
            X509v3 Subject Key Identifier: 
                74:3F:98:1E:1A:AE:A9:8E:C7:30:14:6A:56:04:E5:A2:83:78:0A:48
            X509v3 Authority Key Identifier: 
                keyid:D8:E8:1C:37:D0:D4:F7:24:2C:84:56:E0:17:0A:E7:23:A9:94:CA:94

            X509v3 Subject Alternative Name: 
                DNS:Monroe_Node_3434.POLITO.monroe.org
    Signature Algorithm: sha1WithRSAEncryption
         25:3d:04:91:65:41:16:14:e4:ca:05:b7:71:8c:a1:ba:ed:c4:
         31:91:e3:91:93:49:3d:92:7b:60:e9:b7:61:f9:5c:3e:c8:87:
         40:94:2c:15:15:9e:02:e2:4e:d5:e8:98:83:48:e9:1c:54:d4:
         9a:a3:eb:ca:2a:fd:5b:64:8c:8c:3a:28:e6:5f:de:cc:84:d3:
         59:59:1e:89:6f:27:af:a3:e1:e3:79:90:ad:16:9a:8a:22:93:
         78:54:6b:1e:54:a1:e5:dd:7c:07:94:cb:c1:c4:8d:04:49:9c:
         47:a9:52:70:43:21:e1:8a:c3:32:c7:5f:d2:32:02:1c:49:03:
         4c:c8:86:a1:d1:63:45:d5:d5:6c:02:ae:b1:06:46:d6:dc:b1:
         3d:72:8c:07:cd:42:e9:17:60:6b:81:ec:89:7a:cc:b5:1f:c7:
         35:00:ed:4b:76:e1:be:1b:a8:52:f4:90:66:bb:95:f9:73:1a:
         e6:85:b2:e6:6a:27:98:2c:85:5e:2a:20:bc:bf:cc:59:e8:56:
         fa:dd:b1:96:40:09:c7:0f:18:11:b1:1b:1b:f0:6c:c4:a7:33:
         ba:0e:8a:2b:d9:5f:96:5e:4c:7f:cf:97:7d:b4:b9:2c:9e:25:
         29:c1:c3:68:15:ca:1a:47:c8:b9:d4:84:4a:39:85:c2:ef:b1:
         7f:23:d9:6d:bf:26:f0:41:f5:31:ab:c3:fa:32:24:c0:2f:e6:
         85:8a:2c:91:2f:9e:26:f3:2d:c3:39:1c:af:c8:1a:77:81:e6:
         1d:cc:d6:47:a4:4a:ed:fd:fd:7b:03:7e:1a:0e:d7:71:f5:dd:
         78:9a:ae:0e:09:49:74:2f:41:7b:dd:19:a2:75:03:f5:bc:4f:
         9e:63:2f:36:62:70:2b:6c:2a:8b:70:00:bf:f6:65:88:0d:8c:
         95:82:13:15:1a:2a:35:70:1b:17:53:af:75:ee:fd:fe:9a:7a:
         c4:a3:ae:78:a2:1a:0b:4a:aa:c5:08:33:64:58:74:71:42:fe:
         4d:9e:87:75:d3:e3:91:1c:98:d6:fe:30:76:eb:3f:a2:bc:df:
         b1:2c:cf:db:d6:a2:6a:ca:19:a5:fb:b7:da:da:f9:f5:f2:a0:
         57:e1:07:87:60:ee:ac:30:05:bc:0b:d9:e0:0d:90:46:0c:33:
         82:e1:76:82:b1:d8:96:b8:0d:0d:ff:3e:05:9a:e0:ee:27:4d:
         93:65:74:7d:83:a5:e7:42:69:14:65:d7:38:d3:18:fb:82:67:
         fa:85:4d:f9:20:9f:56:a1:e6:5a:51:92:e5:93:f5:b0:b9:ad:
         60:52:df:40:d8:1f:49:bc:eb:7f:bd:af:bc:af:20:e1:5d:a6:
         27:d2:eb:2a:0e:eb:1f:5e
-----BEGIN CERTIFICATE-----
MIIE6TCCAtGgAwIBAgIBNjANBgkqhkiG9w0BAQUFADBTMRMwEQYKCZImiZPyLGQB
GRYDb3JnMRYwFAYKCZImiZPyLGQBGRYGbW9ucm9lMRAwDgYDVQQLDAdSb290LUNB
MRIwEAYDVQQDDAlSb290LUNBLTEwHhcNMTUxMDE5MDg0NDQ0WhcNMTcxMDE4MDg0
NDQ0WjBuMRMwEQYKCZImiZPyLGQBGRYDb3JnMRYwFAYKCZImiZPyLGQBGRYGbW9u
cm9lMQ8wDQYDVQQKDAZQT0xJVE8xEzARBgNVBAsMCkNvbXBvbmVudHMxGTAXBgNV
BAMMEE1vbnJvZV9Ob2RlXzM0MzQwggEiMA0GCSqGSIb3DQEBAQUAA4IBDwAwggEK
AoIBAQC/mJLWoN92lfiA1dsK+plRgGVeEjvTgBCC1EhgP9PZBXCtOiOdmU/kTFAt
jlSsZRx/Gloj4NDp1UhsurJ02V3W+y1KyuHwUGTTtw80XwbAVnPfpra/1ky1KieJ
5caL6pmJ8Hxd+iVnjj6DLIK1tC7PI95VyCm92uQAmoaKTGhr3Qb1y3B3MxuaGDFM
x1Fjz9CFed3TGxl6waiTCv/R7UQXUttK0CVwK0RzlWp17UMsKA3pYsyJxGF4T7Hx
oNhgWrSXVmqUiHOkZK9ZMBJQnIChspZvbAvvFqr6Eev+vXkrLoxqZlWYeCOLYqkL
C9D9gFUhVDj8PKyg0z5j+dFwldQNAgMBAAGjgawwgakwDgYDVR0PAQH/BAQDAgWg
MAkGA1UdEwQCMAAwHQYDVR0lBBYwFAYIKwYBBQUHAwEGCCsGAQUFBwMCMB0GA1Ud
DgQWBBR0P5geGq6pjscwFGpWBOWig3gKSDAfBgNVHSMEGDAWgBTY6Bw30NT3JCyE
VuAXCucjqZTKlDAtBgNVHREEJjAkgiJNb25yb2VfTm9kZV8zNDM0LlBPTElUTy5t
b25yb2Uub3JnMA0GCSqGSIb3DQEBBQUAA4ICAQAlPQSRZUEWFOTKBbdxjKG67cQx
keORk0k9kntg6bdh+Vw+yIdAlCwVFZ4C4k7V6JiDSOkcVNSao+vKKv1bZIyMOijm
X97MhNNZWR6Jbyevo+HjeZCtFpqKIpN4VGseVKHl3XwHlMvBxI0ESZxHqVJwQyHh
isMyx1/SMgIcSQNMyIah0WNF1dVsAq6xBkbW3LE9cowHzULpF2BrgeyJesy1H8c1
AO1LduG+G6hS9JBmu5X5cxrmhbLmaieYLIVeKiC8v8xZ6Fb63bGWQAnHDxgRsRsb
8GzEpzO6Door2V+WXkx/z5d9tLksniUpwcNoFcoaR8i51IRKOYXC77F/I9ltvybw
QfUxq8P6MiTAL+aFiiyRL54m8y3DORyvyBp3geYdzNZHpErt/f17A34aDtdx9d14
mq4OCUl0L0F73RmidQP1vE+eYy82YnArbCqLcAC/9mWIDYyVghMVGio1cBsXU691
7v3+mnrEo654ohoLSqrFCDNkWHRxQv5Nnod10+ORHJjW/jB26z+ivN+xLM/b1qJq
yhml+7fa2vn18qBX4QeHYO6sMAW8C9ngDZBGDDOC4XaCsdiWuA0N/z4FmuDuJ02T
ZXR9g6XnQmkUZdc40xj7gmf6hU35IJ9WoeZaUZLlk/Wwua1gUt9A2B9JvOt/va+8
ryDhXaYn0usqDusfXg==
-----END CERTIFICATE-----
