Certificate:
    Data:
        Version: 3 (0x2)
        Serial Number: 55 (0x37)
    Signature Algorithm: sha1WithRSAEncryption
        Issuer: DC=org, DC=monroe, OU=Root-CA, CN=Root-CA-1
        Validity
            Not Before: Oct 19 08:52:23 2015 GMT
            Not After : Oct 18 08:52:23 2017 GMT
        Subject: DC=org, DC=monroe, O=POLITO, OU=Components, CN=Monroe_Node_3434
        Subject Public Key Info:
            Public Key Algorithm: rsaEncryption
                Public-Key: (2048 bit)
                Modulus:
                    00:c7:d5:85:9e:0e:47:c3:48:70:77:7e:4b:e3:12:
                    cc:11:b4:f7:6b:5b:5b:90:e6:3b:45:a8:6a:4e:9b:
                    4b:f1:6b:6f:81:8b:7e:76:d4:d7:15:e2:59:de:46:
                    e4:e8:61:7c:61:aa:0d:d5:73:2f:2f:5e:a7:28:64:
                    d1:37:0a:1e:ef:dc:c3:13:d0:17:c2:a0:26:0a:e4:
                    a0:74:b6:e0:55:2a:f1:55:85:58:f8:ef:8c:e6:dc:
                    19:73:8c:12:89:65:9f:4a:59:72:5d:5b:fe:be:dd:
                    2d:bb:ed:4d:59:d9:de:9a:80:f9:a8:eb:d8:67:23:
                    67:52:aa:54:ea:0f:0d:da:e7:21:33:53:e7:76:b6:
                    81:d2:35:57:e5:8c:95:49:8d:32:d9:3e:64:b6:c0:
                    a0:0c:b7:9d:da:8d:db:cd:51:b7:ac:57:3a:b1:5c:
                    26:1e:7f:a7:37:b3:28:94:18:f1:33:40:11:6f:14:
                    cb:88:31:5f:65:ac:70:32:1f:16:8a:b7:5c:89:76:
                    34:25:63:df:1c:21:e8:a3:8e:52:9f:95:68:6f:ec:
                    da:cf:cf:b4:5f:dc:66:7c:e5:14:d7:7d:e3:9b:2f:
                    82:fa:c5:96:21:5a:b9:0d:b5:8e:e3:13:ad:b2:e5:
                    3e:54:3c:6f:71:64:73:e8:1f:19:6c:32:91:b3:36:
                    83:35
                Exponent: 65537 (0x10001)
        X509v3 extensions:
            X509v3 Key Usage: critical
                Digital Signature, Key Encipherment
            X509v3 Basic Constraints: 
                CA:FALSE
            X509v3 Extended Key Usage: 
                TLS Web Server Authentication, TLS Web Client Authentication
            X509v3 Subject Key Identifier: 
                DC:D4:3C:C0:7E:C7:F1:39:BD:6A:AE:1A:7E:D5:2D:1B:44:48:C9:47
            X509v3 Authority Key Identifier: 
                keyid:D8:E8:1C:37:D0:D4:F7:24:2C:84:56:E0:17:0A:E7:23:A9:94:CA:94

            X509v3 Subject Alternative Name: 
                DNS:Monroe_Node_3434.POLITO.monroe.org
    Signature Algorithm: sha1WithRSAEncryption
         40:07:38:7a:c2:06:4e:e9:75:43:74:a5:d0:3d:e8:4d:95:ce:
         88:d2:22:a2:38:18:df:ce:2c:8b:bf:5a:06:cc:d9:0f:76:42:
         98:45:f1:1b:1b:15:3b:b6:76:c6:5b:9f:33:2e:d5:55:11:fa:
         4f:c8:02:46:58:50:84:61:19:71:ee:a1:41:e4:aa:db:b5:4b:
         ed:e3:e9:9a:3b:4d:bf:07:ca:40:ae:6a:24:0c:93:bf:5f:50:
         03:d9:a4:5e:e9:62:23:d4:a0:be:0d:a7:a8:fa:1b:1f:22:4b:
         38:49:52:c2:78:3d:06:10:c8:ea:1d:ff:e2:75:24:26:79:6c:
         b3:9d:91:a5:b9:fd:7a:15:63:25:22:d7:a0:66:97:1a:40:8a:
         31:48:bf:cb:08:0b:1f:11:c3:15:f5:1f:71:a8:80:45:e7:3f:
         2c:05:58:73:c2:a6:89:d2:65:0c:03:a7:a0:35:72:2f:8e:db:
         1b:bd:5b:09:a2:97:fb:80:f2:c1:a8:76:29:5e:38:51:9a:ee:
         85:33:9a:94:20:f6:94:d2:55:07:8d:4d:8f:65:ef:00:c1:a3:
         c2:f0:7e:24:e8:ae:af:ba:ca:63:ff:f9:b9:18:50:39:82:d8:
         f0:57:df:80:75:c7:8f:48:58:3f:59:95:69:27:dd:25:38:75:
         b2:ef:f5:ba:26:d8:36:77:23:60:e5:28:d6:c9:ff:ae:8f:f9:
         42:46:fd:7b:24:10:fa:5e:ff:e7:74:95:4a:0e:79:83:62:c4:
         cc:8b:5e:55:be:95:64:f7:87:b5:43:e6:09:df:3e:02:9e:f6:
         96:31:fd:5b:e2:14:42:ac:aa:88:fa:c7:01:53:90:fb:31:3f:
         37:3a:f2:d4:30:46:cf:69:1a:18:45:77:ab:aa:e1:e2:1d:c0:
         03:c3:1c:f7:b8:36:5e:4d:33:7a:90:f5:00:5b:5e:29:7c:e8:
         31:1e:23:d0:f8:64:dd:10:60:06:de:be:47:53:c3:ea:81:1d:
         87:0c:a5:60:17:13:93:95:bd:99:3a:f4:a4:d2:a9:60:82:23:
         8e:18:21:a2:8a:95:27:d3:42:26:b8:7e:e8:b2:e4:9c:fc:de:
         28:7e:4c:17:9b:c1:4c:75:6e:58:1d:8a:33:65:3f:de:70:1f:
         dd:17:92:0f:3d:70:55:42:aa:b8:44:f7:93:f6:b4:b7:34:08:
         03:d8:d7:08:cc:4e:e6:5f:60:bf:f9:62:5a:4c:98:a3:f3:ba:
         74:05:8c:24:77:0d:9c:20:e6:35:ee:3e:10:95:43:1d:fb:fd:
         ef:73:a3:38:21:11:0e:dc:d3:4c:fa:c1:25:8e:5b:8e:bc:3d:
         70:98:c8:bc:91:44:da:ef
-----BEGIN CERTIFICATE-----
MIIE6TCCAtGgAwIBAgIBNzANBgkqhkiG9w0BAQUFADBTMRMwEQYKCZImiZPyLGQB
GRYDb3JnMRYwFAYKCZImiZPyLGQBGRYGbW9ucm9lMRAwDgYDVQQLDAdSb290LUNB
MRIwEAYDVQQDDAlSb290LUNBLTEwHhcNMTUxMDE5MDg1MjIzWhcNMTcxMDE4MDg1
MjIzWjBuMRMwEQYKCZImiZPyLGQBGRYDb3JnMRYwFAYKCZImiZPyLGQBGRYGbW9u
cm9lMQ8wDQYDVQQKDAZQT0xJVE8xEzARBgNVBAsMCkNvbXBvbmVudHMxGTAXBgNV
BAMMEE1vbnJvZV9Ob2RlXzM0MzQwggEiMA0GCSqGSIb3DQEBAQUAA4IBDwAwggEK
AoIBAQDH1YWeDkfDSHB3fkvjEswRtPdrW1uQ5jtFqGpOm0vxa2+Bi3521NcV4lne
RuToYXxhqg3Vcy8vXqcoZNE3Ch7v3MMT0BfCoCYK5KB0tuBVKvFVhVj474zm3Blz
jBKJZZ9KWXJdW/6+3S277U1Z2d6agPmo69hnI2dSqlTqDw3a5yEzU+d2toHSNVfl
jJVJjTLZPmS2wKAMt53ajdvNUbesVzqxXCYef6c3syiUGPEzQBFvFMuIMV9lrHAy
HxaKt1yJdjQlY98cIeijjlKflWhv7NrPz7Rf3GZ85RTXfeObL4L6xZYhWrkNtY7j
E62y5T5UPG9xZHPoHxlsMpGzNoM1AgMBAAGjgawwgakwDgYDVR0PAQH/BAQDAgWg
MAkGA1UdEwQCMAAwHQYDVR0lBBYwFAYIKwYBBQUHAwEGCCsGAQUFBwMCMB0GA1Ud
DgQWBBTc1DzAfsfxOb1qrhp+1S0bREjJRzAfBgNVHSMEGDAWgBTY6Bw30NT3JCyE
VuAXCucjqZTKlDAtBgNVHREEJjAkgiJNb25yb2VfTm9kZV8zNDM0LlBPTElUTy5t
b25yb2Uub3JnMA0GCSqGSIb3DQEBBQUAA4ICAQBABzh6wgZO6XVDdKXQPehNlc6I
0iKiOBjfziyLv1oGzNkPdkKYRfEbGxU7tnbGW58zLtVVEfpPyAJGWFCEYRlx7qFB
5KrbtUvt4+maO02/B8pArmokDJO/X1AD2aRe6WIj1KC+Daeo+hsfIks4SVLCeD0G
EMjqHf/idSQmeWyznZGluf16FWMlItegZpcaQIoxSL/LCAsfEcMV9R9xqIBF5z8s
BVhzwqaJ0mUMA6egNXIvjtsbvVsJopf7gPLBqHYpXjhRmu6FM5qUIPaU0lUHjU2P
Ze8AwaPC8H4k6K6vuspj//m5GFA5gtjwV9+AdcePSFg/WZVpJ90lOHWy7/W6Jtg2
dyNg5SjWyf+uj/lCRv17JBD6Xv/ndJVKDnmDYsTMi15VvpVk94e1Q+YJ3z4CnvaW
Mf1b4hRCrKqI+scBU5D7MT83OvLUMEbPaRoYRXerquHiHcADwxz3uDZeTTN6kPUA
W14pfOgxHiPQ+GTdEGAG3r5HU8PqgR2HDKVgFxOTlb2ZOvSk0qlggiOOGCGiipUn
00ImuH7osuSc/N4ofkwXm8FMdW5YHYozZT/ecB/dF5IPPXBVQqq4RPeT9rS3NAgD
2NcIzE7mX2C/+WJaTJij87p0BYwkdw2cIOY17j4QlUMd+/3vc6M4IREO3NNM+sEl
jluOvD1wmMi8kUTa7w==
-----END CERTIFICATE-----
