Certificate:
    Data:
        Version: 3 (0x2)
        Serial Number: 56 (0x38)
    Signature Algorithm: sha1WithRSAEncryption
        Issuer: DC=org, DC=monroe, OU=Root-CA, CN=Root-CA-1
        Validity
            Not Before: Oct 19 09:08:38 2015 GMT
            Not After : Oct 18 09:08:38 2017 GMT
        Subject: DC=org, DC=monroe, O=POLITO, OU=Components, CN=Monroe_Node_3434
        Subject Public Key Info:
            Public Key Algorithm: rsaEncryption
                Public-Key: (2048 bit)
                Modulus:
                    00:d5:c2:c5:83:54:4f:72:25:dc:76:a7:ce:97:46:
                    8a:41:08:f2:6b:4c:2c:7a:43:f6:68:0f:ce:a5:0a:
                    8e:ce:0d:b5:9e:7f:cf:98:d1:58:2a:cc:84:9c:01:
                    38:4d:78:15:5c:dd:ae:b0:25:22:db:20:f8:1f:84:
                    ec:7f:98:0f:2f:8e:78:4d:5c:9b:b6:f1:dc:f3:94:
                    66:c9:e8:ec:e1:5f:31:b6:7b:a4:15:b2:c6:a5:0b:
                    3f:25:39:bd:38:29:dd:85:f2:a7:06:87:6d:7e:bf:
                    c2:56:65:cf:2b:fa:36:fc:d2:f6:fd:61:c0:1c:12:
                    82:cb:0c:1c:b0:14:b6:45:6d:21:41:0a:35:c6:21:
                    5d:4b:6a:87:67:3d:9a:b7:d0:88:25:d2:50:06:2b:
                    32:a2:90:fe:ae:32:3e:c1:ff:7d:1e:cf:b2:a5:bd:
                    de:23:ce:80:74:fc:f8:83:10:7b:50:be:e4:f8:8c:
                    83:f8:c8:e2:5b:ea:25:c8:17:e6:15:61:47:09:f4:
                    e0:16:8f:bb:a2:1c:f9:b7:eb:ed:50:a2:d0:81:d8:
                    cc:ac:27:b4:1b:f0:4f:8d:f5:9e:71:f9:a5:9c:2f:
                    98:5e:e7:9d:de:9e:aa:f3:aa:0a:6d:3b:70:28:f4:
                    b4:64:6f:39:d2:e7:fb:af:ed:60:fa:ac:22:6c:a5:
                    fd:87
                Exponent: 65537 (0x10001)
        X509v3 extensions:
            X509v3 Key Usage: critical
                Digital Signature, Key Encipherment
            X509v3 Basic Constraints: 
                CA:FALSE
            X509v3 Extended Key Usage: 
                TLS Web Server Authentication, TLS Web Client Authentication
            X509v3 Subject Key Identifier: 
                7F:36:0A:9A:AF:42:AA:0D:C1:C1:8F:02:87:AC:96:03:7C:19:08:6B
            X509v3 Authority Key Identifier: 
                keyid:D8:E8:1C:37:D0:D4:F7:24:2C:84:56:E0:17:0A:E7:23:A9:94:CA:94

            X509v3 Subject Alternative Name: 
                DNS:Monroe_Node_3434.POLITO.monroe.org
    Signature Algorithm: sha1WithRSAEncryption
         ae:93:5f:5c:e3:67:2a:7f:ca:9c:8b:15:16:a8:f2:aa:70:98:
         75:c6:52:cf:59:1e:6d:e0:bb:37:e9:e9:8c:39:8a:6a:18:9e:
         25:9a:2d:83:2a:8a:fd:31:df:d7:a1:fa:63:6b:d1:12:70:87:
         c4:40:c0:66:19:fd:2a:29:a0:04:d5:42:8f:b4:74:bd:f1:05:
         b8:58:71:b7:e1:82:5c:e8:ac:e4:68:01:9c:8a:4d:c1:e4:16:
         54:e9:4c:20:cb:dc:a1:c7:a9:d1:56:f7:f9:85:72:0a:1e:10:
         c8:d0:da:83:55:12:a5:22:32:fc:3e:46:d8:a0:69:69:cd:de:
         35:92:f0:9c:a3:54:2e:77:1b:23:5e:86:a5:de:54:2d:47:cf:
         f5:1a:d2:cb:56:df:15:54:94:66:97:fb:b6:4e:fd:61:bd:61:
         bd:ca:ac:9e:d7:16:ca:bc:dd:83:d8:ba:95:73:36:1d:0a:41:
         0e:1c:79:7f:ed:83:70:b7:e2:1a:35:cf:26:93:96:be:8c:f4:
         4d:57:0e:73:a2:81:20:73:cb:3c:0d:38:3f:05:c4:90:e7:5b:
         4c:8f:49:26:9a:58:d2:8c:2b:01:52:6b:8d:41:b6:ce:eb:a9:
         d9:e1:7a:4c:d1:4e:6e:06:01:2c:fd:73:bd:9b:a9:86:77:e7:
         a5:3c:ee:5e:78:95:36:3a:ca:5a:e9:73:01:c9:7f:ba:01:e1:
         4e:be:e2:e6:38:38:3f:f5:be:94:c9:f1:af:7a:e8:99:88:01:
         a2:d1:61:f9:3b:30:c7:4f:10:9f:23:d6:5b:f6:8b:09:6e:c8:
         51:ee:1d:90:cf:97:f0:fa:5d:f3:03:1b:3c:bd:de:39:db:a7:
         74:c8:6a:4e:72:c1:c8:12:37:57:b0:3f:d7:d3:a7:d0:a0:49:
         a9:bd:82:c1:ab:01:52:a5:59:dc:48:e6:74:af:79:1f:97:f8:
         cc:bd:7c:d6:c7:b4:28:37:d0:4c:1e:a0:70:96:4b:4c:1b:f7:
         55:1f:f2:70:e6:03:c4:79:37:75:d7:e8:e5:f6:21:de:83:32:
         75:e0:96:22:a8:d3:3e:d3:82:1c:af:10:2f:dd:9f:1a:4f:51:
         f9:2d:fe:90:48:8f:09:f8:91:0d:89:1c:38:4b:a5:2a:7a:3a:
         a1:0f:68:e3:92:90:dc:e6:f8:45:dc:07:59:9d:06:eb:8c:31:
         bc:e5:a1:72:35:b7:43:2f:86:af:bb:15:ee:87:fd:5c:84:61:
         92:32:1f:dc:69:27:87:71:d3:3c:47:f7:59:9d:64:ef:03:bc:
         0c:2f:68:f9:ba:92:c9:c5:44:7c:70:fa:c6:81:a7:b4:57:23:
         7f:d2:cd:4c:ee:50:38:ba
-----BEGIN CERTIFICATE-----
MIIE6TCCAtGgAwIBAgIBODANBgkqhkiG9w0BAQUFADBTMRMwEQYKCZImiZPyLGQB
GRYDb3JnMRYwFAYKCZImiZPyLGQBGRYGbW9ucm9lMRAwDgYDVQQLDAdSb290LUNB
MRIwEAYDVQQDDAlSb290LUNBLTEwHhcNMTUxMDE5MDkwODM4WhcNMTcxMDE4MDkw
ODM4WjBuMRMwEQYKCZImiZPyLGQBGRYDb3JnMRYwFAYKCZImiZPyLGQBGRYGbW9u
cm9lMQ8wDQYDVQQKDAZQT0xJVE8xEzARBgNVBAsMCkNvbXBvbmVudHMxGTAXBgNV
BAMMEE1vbnJvZV9Ob2RlXzM0MzQwggEiMA0GCSqGSIb3DQEBAQUAA4IBDwAwggEK
AoIBAQDVwsWDVE9yJdx2p86XRopBCPJrTCx6Q/ZoD86lCo7ODbWef8+Y0VgqzISc
AThNeBVc3a6wJSLbIPgfhOx/mA8vjnhNXJu28dzzlGbJ6OzhXzG2e6QVssalCz8l
Ob04Kd2F8qcGh21+v8JWZc8r+jb80vb9YcAcEoLLDBywFLZFbSFBCjXGIV1Laodn
PZq30Igl0lAGKzKikP6uMj7B/30ez7Klvd4jzoB0/PiDEHtQvuT4jIP4yOJb6iXI
F+YVYUcJ9OAWj7uiHPm36+1QotCB2MysJ7Qb8E+N9Z5x+aWcL5he553enqrzqgpt
O3Ao9LRkbznS5/uv7WD6rCJspf2HAgMBAAGjgawwgakwDgYDVR0PAQH/BAQDAgWg
MAkGA1UdEwQCMAAwHQYDVR0lBBYwFAYIKwYBBQUHAwEGCCsGAQUFBwMCMB0GA1Ud
DgQWBBR/Ngqar0KqDcHBjwKHrJYDfBkIazAfBgNVHSMEGDAWgBTY6Bw30NT3JCyE
VuAXCucjqZTKlDAtBgNVHREEJjAkgiJNb25yb2VfTm9kZV8zNDM0LlBPTElUTy5t
b25yb2Uub3JnMA0GCSqGSIb3DQEBBQUAA4ICAQCuk19c42cqf8qcixUWqPKqcJh1
xlLPWR5t4Ls36emMOYpqGJ4lmi2DKor9Md/Xofpja9EScIfEQMBmGf0qKaAE1UKP
tHS98QW4WHG34YJc6KzkaAGcik3B5BZU6Uwgy9yhx6nRVvf5hXIKHhDI0NqDVRKl
IjL8PkbYoGlpzd41kvCco1QudxsjXoal3lQtR8/1GtLLVt8VVJRml/u2Tv1hvWG9
yqye1xbKvN2D2LqVczYdCkEOHHl/7YNwt+IaNc8mk5a+jPRNVw5zooEgc8s8DTg/
BcSQ51tMj0kmmljSjCsBUmuNQbbO66nZ4XpM0U5uBgEs/XO9m6mGd+elPO5eeJU2
Ospa6XMByX+6AeFOvuLmODg/9b6UyfGveuiZiAGi0WH5OzDHTxCfI9Zb9osJbshR
7h2Qz5fw+l3zAxs8vd4526d0yGpOcsHIEjdXsD/X06fQoEmpvYLBqwFSpVncSOZ0
r3kfl/jMvXzWx7QoN9BMHqBwlktMG/dVH/Jw5gPEeTd11+jl9iHegzJ14JYiqNM+
04IcrxAv3Z8aT1H5Lf6QSI8J+JENiRw4S6UqejqhD2jjkpDc5vhF3AdZnQbrjDG8
5aFyNbdDL4avuxXuh/1chGGSMh/caSeHcdM8R/dZnWTvA7wML2j5upLJxUR8cPrG
gae0VyN/0s1M7lA4ug==
-----END CERTIFICATE-----
