Certificate:
    Data:
        Version: 3 (0x2)
        Serial Number: 57 (0x39)
    Signature Algorithm: sha1WithRSAEncryption
        Issuer: DC=org, DC=monroe, OU=Root-CA, CN=Root-CA-1
        Validity
            Not Before: Oct 19 09:11:35 2015 GMT
            Not After : Oct 18 09:11:35 2017 GMT
        Subject: DC=org, DC=monroe, O=POLITO, OU=Components, CN=Monroe_Node_3434
        Subject Public Key Info:
            Public Key Algorithm: rsaEncryption
                Public-Key: (2048 bit)
                Modulus:
                    00:ce:d0:16:0d:9e:e4:7b:44:d6:7f:a8:f3:a8:32:
                    4e:d3:83:09:78:9b:1b:a1:f5:cb:05:cf:1a:f1:d5:
                    d4:d9:6a:86:c1:17:e3:cd:ba:bc:c5:f4:8b:1b:47:
                    47:8c:da:cc:5d:ae:cf:ae:ff:5d:6e:c7:2a:0e:ff:
                    ea:52:f4:c2:b5:e1:b2:2b:e2:43:a0:0a:ec:8d:a6:
                    e1:dc:0f:8c:11:54:c3:83:73:00:e8:e2:5a:8b:90:
                    b7:28:a4:5b:de:2a:74:9d:19:ff:4e:4c:fb:87:52:
                    c3:15:7a:8d:b9:22:83:fd:3e:1a:ac:c0:13:dd:fe:
                    14:19:4a:be:ce:27:70:c2:a9:93:1b:5f:a6:65:9e:
                    dc:63:f9:da:16:1d:7e:58:c2:3a:f6:37:2f:06:52:
                    9c:c9:fa:a7:ed:43:68:a6:7f:8c:79:94:b2:2f:8b:
                    95:14:1c:f3:6d:da:db:91:53:60:3c:96:80:1d:ee:
                    25:0c:59:46:19:30:e6:6c:bd:6c:e4:78:0a:2c:4a:
                    68:17:c5:ce:2f:4e:bb:7a:d4:70:6a:be:15:a0:4b:
                    39:65:a5:81:f9:98:e4:28:9e:4a:b1:43:c2:dd:7d:
                    bc:7a:13:28:80:f7:32:f2:8a:92:58:8e:54:c4:35:
                    d4:48:34:3c:4f:24:7b:4b:85:da:03:5c:b0:05:8d:
                    d7:ab
                Exponent: 65537 (0x10001)
        X509v3 extensions:
            X509v3 Key Usage: critical
                Digital Signature, Key Encipherment
            X509v3 Basic Constraints: 
                CA:FALSE
            X509v3 Extended Key Usage: 
                TLS Web Server Authentication, TLS Web Client Authentication
            X509v3 Subject Key Identifier: 
                FC:8E:BB:6A:33:54:77:36:ED:8C:2D:34:70:94:43:69:50:B7:A4:67
            X509v3 Authority Key Identifier: 
                keyid:D8:E8:1C:37:D0:D4:F7:24:2C:84:56:E0:17:0A:E7:23:A9:94:CA:94

            X509v3 Subject Alternative Name: 
                DNS:Monroe_Node_3434.POLITO.monroe.org
    Signature Algorithm: sha1WithRSAEncryption
         af:5a:8f:47:eb:b3:72:d5:1e:8f:34:c0:f9:f4:2a:1a:d7:02:
         c2:dd:f6:9c:57:6f:3c:da:8c:6a:19:9c:c6:3b:57:35:0e:8e:
         59:c1:b6:a0:97:c9:d8:50:de:2d:3b:38:df:10:56:60:38:0c:
         69:c0:a3:be:06:aa:0c:fc:27:84:d3:1c:0a:bd:c7:28:08:5b:
         7d:48:a9:a7:44:ec:23:f9:89:48:b1:1c:14:5d:8b:2f:cb:b0:
         1b:b6:a9:e1:c6:3a:d1:a5:e6:c0:d8:1a:60:34:29:a2:67:01:
         e9:d9:31:c8:16:74:91:a6:b4:ba:60:b0:1f:5d:5a:7a:7f:b5:
         4a:ae:f4:75:23:0a:d8:bb:af:57:00:a1:45:95:4e:2f:02:08:
         43:5e:6e:71:91:21:1d:52:76:e3:68:b8:62:12:6b:f3:db:56:
         8d:13:20:89:48:33:a0:bd:8e:b3:6b:24:76:ff:97:56:4c:dc:
         e8:b1:57:2d:f8:b7:03:9f:34:5e:c3:66:b5:ca:d2:e2:6d:b0:
         f9:d8:52:34:1c:d7:5b:ee:69:95:fe:67:0c:1b:92:ad:78:f2:
         e5:8a:16:b0:8d:1a:a8:25:90:f5:6a:41:ec:7a:cd:78:53:5e:
         d2:68:c6:c5:4a:5e:a5:11:bd:2d:18:40:af:3b:fd:c5:13:6d:
         fe:5f:1a:69:c7:8d:84:7c:a0:1f:47:65:61:fd:01:b5:a2:6d:
         f3:32:23:57:a3:06:a9:e5:9d:23:78:f2:26:a0:50:50:75:5e:
         85:4b:ea:53:54:07:5d:2d:25:ee:ce:ca:92:18:70:69:d2:f7:
         c4:a7:27:fb:5d:58:42:8e:e9:06:84:8d:ed:b1:21:2f:5b:b7:
         fc:49:f1:3b:18:62:73:a6:de:2f:ec:53:89:aa:de:95:c2:58:
         b7:29:cc:d8:45:40:dd:c6:0b:7f:e5:43:9f:bc:a4:88:87:2e:
         12:26:e0:6a:1a:f6:87:14:46:e6:46:61:6e:1c:39:f3:52:47:
         5a:93:47:58:1e:98:e9:b4:35:77:37:99:4b:98:72:e9:20:7f:
         60:47:d0:e3:21:e9:5c:85:85:b3:a3:5c:3a:01:8a:c7:b7:8e:
         d3:37:0d:09:06:95:66:3e:97:c9:eb:8f:ea:46:b1:a3:71:d2:
         46:49:d0:0b:14:06:46:d2:e8:25:bb:12:07:41:83:61:ac:05:
         e5:b5:10:75:19:c0:0c:6b:b1:f5:4b:94:aa:90:3b:79:36:49:
         e2:3f:c2:45:ea:b7:99:ec:f4:11:6a:19:da:e5:7e:d3:61:78:
         36:38:8c:fa:55:fe:fc:70:07:4b:5c:26:7b:fb:6d:e9:2b:26:
         ae:1d:42:cc:d5:d3:70:ec
-----BEGIN CERTIFICATE-----
MIIE6TCCAtGgAwIBAgIBOTANBgkqhkiG9w0BAQUFADBTMRMwEQYKCZImiZPyLGQB
GRYDb3JnMRYwFAYKCZImiZPyLGQBGRYGbW9ucm9lMRAwDgYDVQQLDAdSb290LUNB
MRIwEAYDVQQDDAlSb290LUNBLTEwHhcNMTUxMDE5MDkxMTM1WhcNMTcxMDE4MDkx
MTM1WjBuMRMwEQYKCZImiZPyLGQBGRYDb3JnMRYwFAYKCZImiZPyLGQBGRYGbW9u
cm9lMQ8wDQYDVQQKDAZQT0xJVE8xEzARBgNVBAsMCkNvbXBvbmVudHMxGTAXBgNV
BAMMEE1vbnJvZV9Ob2RlXzM0MzQwggEiMA0GCSqGSIb3DQEBAQUAA4IBDwAwggEK
AoIBAQDO0BYNnuR7RNZ/qPOoMk7Tgwl4mxuh9csFzxrx1dTZaobBF+PNurzF9Isb
R0eM2sxdrs+u/11uxyoO/+pS9MK14bIr4kOgCuyNpuHcD4wRVMODcwDo4lqLkLco
pFveKnSdGf9OTPuHUsMVeo25IoP9PhqswBPd/hQZSr7OJ3DCqZMbX6Zlntxj+doW
HX5Ywjr2Ny8GUpzJ+qftQ2imf4x5lLIvi5UUHPNt2tuRU2A8loAd7iUMWUYZMOZs
vWzkeAosSmgXxc4vTrt61HBqvhWgSzllpYH5mOQonkqxQ8Ldfbx6EyiA9zLyipJY
jlTENdRINDxPJHtLhdoDXLAFjderAgMBAAGjgawwgakwDgYDVR0PAQH/BAQDAgWg
MAkGA1UdEwQCMAAwHQYDVR0lBBYwFAYIKwYBBQUHAwEGCCsGAQUFBwMCMB0GA1Ud
DgQWBBT8jrtqM1R3Nu2MLTRwlENpULekZzAfBgNVHSMEGDAWgBTY6Bw30NT3JCyE
VuAXCucjqZTKlDAtBgNVHREEJjAkgiJNb25yb2VfTm9kZV8zNDM0LlBPTElUTy5t
b25yb2Uub3JnMA0GCSqGSIb3DQEBBQUAA4ICAQCvWo9H67Ny1R6PNMD59Coa1wLC
3facV2882oxqGZzGO1c1Do5Zwbagl8nYUN4tOzjfEFZgOAxpwKO+BqoM/CeE0xwK
vccoCFt9SKmnROwj+YlIsRwUXYsvy7AbtqnhxjrRpebA2BpgNCmiZwHp2THIFnSR
prS6YLAfXVp6f7VKrvR1IwrYu69XAKFFlU4vAghDXm5xkSEdUnbjaLhiEmvz21aN
EyCJSDOgvY6zayR2/5dWTNzosVct+LcDnzRew2a1ytLibbD52FI0HNdb7mmV/mcM
G5KtePLlihawjRqoJZD1akHses14U17SaMbFSl6lEb0tGECvO/3FE23+Xxppx42E
fKAfR2Vh/QG1om3zMiNXowap5Z0jePImoFBQdV6FS+pTVAddLSXuzsqSGHBp0vfE
pyf7XVhCjukGhI3tsSEvW7f8SfE7GGJzpt4v7FOJqt6Vwli3KczYRUDdxgt/5UOf
vKSIhy4SJuBqGvaHFEbmRmFuHDnzUkdak0dYHpjptDV3N5lLmHLpIH9gR9DjIelc
hYWzo1w6AYrHt47TNw0JBpVmPpfJ64/qRrGjcdJGSdALFAZG0ugluxIHQYNhrAXl
tRB1GcAMa7H1S5SqkDt5NkniP8JF6reZ7PQRahna5X7TYXg2OIz6Vf78cAdLXCZ7
+23pKyauHULM1dNw7A==
-----END CERTIFICATE-----
