Certificate:
    Data:
        Version: 3 (0x2)
        Serial Number: 58 (0x3a)
    Signature Algorithm: sha1WithRSAEncryption
        Issuer: DC=org, DC=monroe, OU=Root-CA, CN=Root-CA-1
        Validity
            Not Before: Oct 19 09:19:10 2015 GMT
            Not After : Oct 18 09:19:10 2017 GMT
        Subject: DC=org, DC=monroe, O=POLITO, OU=Components, CN=Monroe_Node_3434
        Subject Public Key Info:
            Public Key Algorithm: rsaEncryption
                Public-Key: (2048 bit)
                Modulus:
                    00:a4:d8:0c:e3:a1:67:66:3c:1b:c2:6e:ba:ca:65:
                    0b:f7:34:ec:a7:50:cc:2b:39:2d:88:c3:cf:61:39:
                    e9:20:63:46:32:8a:9d:6a:53:31:24:0c:bd:f5:c1:
                    db:eb:f0:d0:77:9f:e3:07:51:3e:82:ce:8f:7f:fd:
                    cd:fa:ba:1d:c9:78:90:73:24:2c:8b:1d:0c:bd:93:
                    b5:08:34:58:d8:ec:68:c8:f4:02:32:30:54:89:85:
                    8f:19:c3:fe:79:93:f4:df:24:ab:65:11:f1:23:fb:
                    8f:23:08:4b:c6:27:95:2b:ac:f9:f7:dd:e8:9d:90:
                    2b:25:b9:85:68:31:ee:42:05:42:c4:69:48:6b:c9:
                    e7:15:15:07:03:4d:ad:7a:3f:0d:a4:58:11:d5:61:
                    b3:d5:53:f6:a5:7a:15:ed:ef:e1:49:93:7c:46:9e:
                    a4:3c:87:a6:10:8e:78:10:60:d9:97:0e:da:b9:2a:
                    1c:79:ea:f2:d3:30:2f:26:2d:31:df:db:ef:fd:fb:
                    ba:07:d0:ae:0a:3e:a7:ce:37:ef:a8:a6:b6:ba:43:
                    76:7c:e9:08:6e:54:c6:3c:35:cb:5b:ba:80:38:91:
                    51:d1:ef:5a:5c:87:3b:f4:8d:0d:a2:b5:de:3d:7d:
                    fc:c5:b5:8d:5f:36:76:e4:f7:d1:a7:48:cb:f4:05:
                    17:75
                Exponent: 65537 (0x10001)
        X509v3 extensions:
            X509v3 Key Usage: critical
                Digital Signature, Key Encipherment
            X509v3 Basic Constraints: 
                CA:FALSE
            X509v3 Extended Key Usage: 
                TLS Web Server Authentication, TLS Web Client Authentication
            X509v3 Subject Key Identifier: 
                EF:E9:EA:A8:48:80:34:EC:14:AD:D6:6F:8D:86:38:D9:7E:AA:8E:BB
            X509v3 Authority Key Identifier: 
                keyid:D8:E8:1C:37:D0:D4:F7:24:2C:84:56:E0:17:0A:E7:23:A9:94:CA:94

            X509v3 Subject Alternative Name: 
                DNS:Monroe_Node_3434.POLITO.monroe.org
    Signature Algorithm: sha1WithRSAEncryption
         2b:36:24:d7:5b:d8:59:cc:8e:20:dd:1c:af:0b:c9:85:4d:ce:
         e5:f8:c6:bf:cc:b2:f2:5c:0c:30:d7:3a:0a:c7:8f:67:8c:ab:
         b2:4f:35:57:e1:be:63:18:d2:a0:58:b2:7b:3d:ef:91:82:f7:
         62:fa:21:80:c0:30:70:df:2c:0e:37:e8:95:f1:b1:a6:58:7a:
         f2:d7:84:30:6f:26:e2:73:06:06:92:87:f8:f5:ff:0e:55:9f:
         2c:c2:3f:d1:fa:d8:43:b5:dc:bd:ce:d0:7b:6e:80:4d:ef:dd:
         d5:6d:db:f9:e3:fa:1b:58:3d:df:c6:3a:36:85:5f:f0:a8:7c:
         b5:09:79:ac:ad:82:b3:cc:82:ea:d3:a5:7b:52:bf:27:3e:37:
         39:e3:09:f2:9e:87:0b:31:bc:82:1e:52:3f:b0:1e:14:50:52:
         c7:b1:22:05:d5:14:fa:c1:60:f7:76:56:ed:6c:69:44:1a:72:
         22:96:47:20:e0:34:6b:81:de:f9:29:f9:e3:10:e2:83:42:64:
         32:ca:da:4f:41:77:94:0c:c5:98:e1:75:9f:40:bd:28:1b:ec:
         1c:d0:7c:9d:7d:f0:fc:d0:bf:19:9f:4a:7c:db:36:cc:3a:e3:
         15:d7:94:f1:5a:24:05:8f:6f:e3:c4:af:90:23:8c:1e:93:b7:
         fe:fb:f9:0a:d2:a5:84:5b:5a:47:1a:4d:7d:0f:69:36:56:7c:
         5f:9e:db:4e:f1:e0:ea:55:d9:1e:46:48:01:32:20:b2:cd:bf:
         11:76:13:5e:5d:16:b8:b7:9c:8b:19:2b:87:8d:7a:d9:f9:ef:
         ba:33:72:8f:fe:87:35:19:fe:f5:f8:05:d5:73:15:39:60:c7:
         a9:bd:17:9f:40:17:c1:78:dd:3c:7a:d7:81:1d:87:f7:03:94:
         e3:11:82:0f:36:c3:25:8d:f2:41:53:cb:65:cc:4d:59:d6:ba:
         ff:c2:19:3f:87:fa:f0:52:74:59:97:03:11:4d:f1:f0:be:ea:
         5d:48:b8:61:96:19:aa:0f:75:30:41:ad:96:32:85:77:8c:67:
         29:91:dd:1c:fc:5b:c2:b7:b6:27:1c:c4:0c:e3:5c:2f:d0:82:
         18:cf:75:0b:5e:33:c4:54:d1:0d:72:f6:39:27:65:7e:00:af:
         a0:ae:73:7f:c5:2e:35:e9:4f:04:31:c4:ec:32:a7:f9:33:b4:
         25:05:01:3f:28:d9:19:85:14:3f:4f:27:68:67:37:41:1f:cb:
         20:fe:70:56:64:b8:1f:a6:0b:8d:9b:e5:bb:45:85:62:df:e1:
         a1:d0:63:d6:c5:8e:87:ee:29:1f:7e:56:58:88:39:d3:b2:ac:
         aa:70:5d:15:6e:47:45:53
-----BEGIN CERTIFICATE-----
MIIE6TCCAtGgAwIBAgIBOjANBgkqhkiG9w0BAQUFADBTMRMwEQYKCZImiZPyLGQB
GRYDb3JnMRYwFAYKCZImiZPyLGQBGRYGbW9ucm9lMRAwDgYDVQQLDAdSb290LUNB
MRIwEAYDVQQDDAlSb290LUNBLTEwHhcNMTUxMDE5MDkxOTEwWhcNMTcxMDE4MDkx
OTEwWjBuMRMwEQYKCZImiZPyLGQBGRYDb3JnMRYwFAYKCZImiZPyLGQBGRYGbW9u
cm9lMQ8wDQYDVQQKDAZQT0xJVE8xEzARBgNVBAsMCkNvbXBvbmVudHMxGTAXBgNV
BAMMEE1vbnJvZV9Ob2RlXzM0MzQwggEiMA0GCSqGSIb3DQEBAQUAA4IBDwAwggEK
AoIBAQCk2AzjoWdmPBvCbrrKZQv3NOynUMwrOS2Iw89hOekgY0Yyip1qUzEkDL31
wdvr8NB3n+MHUT6Czo9//c36uh3JeJBzJCyLHQy9k7UINFjY7GjI9AIyMFSJhY8Z
w/55k/TfJKtlEfEj+48jCEvGJ5UrrPn33eidkCsluYVoMe5CBULEaUhryecVFQcD
Ta16Pw2kWBHVYbPVU/alehXt7+FJk3xGnqQ8h6YQjngQYNmXDtq5Khx56vLTMC8m
LTHf2+/9+7oH0K4KPqfON++opra6Q3Z86QhuVMY8NctbuoA4kVHR71pchzv0jQ2i
td49ffzFtY1fNnbk99GnSMv0BRd1AgMBAAGjgawwgakwDgYDVR0PAQH/BAQDAgWg
MAkGA1UdEwQCMAAwHQYDVR0lBBYwFAYIKwYBBQUHAwEGCCsGAQUFBwMCMB0GA1Ud
DgQWBBTv6eqoSIA07BSt1m+NhjjZfqqOuzAfBgNVHSMEGDAWgBTY6Bw30NT3JCyE
VuAXCucjqZTKlDAtBgNVHREEJjAkgiJNb25yb2VfTm9kZV8zNDM0LlBPTElUTy5t
b25yb2Uub3JnMA0GCSqGSIb3DQEBBQUAA4ICAQArNiTXW9hZzI4g3RyvC8mFTc7l
+Ma/zLLyXAww1zoKx49njKuyTzVX4b5jGNKgWLJ7Pe+Rgvdi+iGAwDBw3ywON+iV
8bGmWHry14QwbybicwYGkof49f8OVZ8swj/R+thDtdy9ztB7boBN793Vbdv54/ob
WD3fxjo2hV/wqHy1CXmsrYKzzILq06V7Ur8nPjc54wnynocLMbyCHlI/sB4UUFLH
sSIF1RT6wWD3dlbtbGlEGnIilkcg4DRrgd75KfnjEOKDQmQyytpPQXeUDMWY4XWf
QL0oG+wc0HydffD80L8Zn0p82zbMOuMV15TxWiQFj2/jxK+QI4wek7f++/kK0qWE
W1pHGk19D2k2VnxfnttO8eDqVdkeRkgBMiCyzb8RdhNeXRa4t5yLGSuHjXrZ+e+6
M3KP/oc1Gf71+AXVcxU5YMepvRefQBfBeN08eteBHYf3A5TjEYIPNsMljfJBU8tl
zE1Z1rr/whk/h/rwUnRZlwMRTfHwvupdSLhhlhmqD3UwQa2WMoV3jGcpkd0c/FvC
t7YnHMQM41wv0IIYz3ULXjPEVNENcvY5J2V+AK+grnN/xS416U8EMcTsMqf5M7Ql
BQE/KNkZhRQ/TydoZzdBH8sg/nBWZLgfpguNm+W7RYVi3+Gh0GPWxY6H7ikfflZY
iDnTsqyqcF0VbkdFUw==
-----END CERTIFICATE-----
