Certificate:
    Data:
        Version: 3 (0x2)
        Serial Number: 59 (0x3b)
    Signature Algorithm: sha1WithRSAEncryption
        Issuer: DC=org, DC=monroe, OU=Root-CA, CN=Root-CA-1
        Validity
            Not Before: Oct 19 09:21:22 2015 GMT
            Not After : Oct 18 09:21:22 2017 GMT
        Subject: DC=org, DC=monroe, O=POLITO, OU=Components, CN=Monroe_Node_3434
        Subject Public Key Info:
            Public Key Algorithm: rsaEncryption
                Public-Key: (2048 bit)
                Modulus:
                    00:d8:d8:3f:25:ed:bd:4f:78:e4:22:32:d2:fc:f3:
                    02:e5:45:86:61:05:c8:da:28:86:54:9a:9e:2b:f2:
                    31:6f:df:07:56:60:ae:b2:71:ed:b2:bb:3e:7f:04:
                    18:0a:4b:d0:42:38:7f:13:52:38:b3:56:bb:fb:d6:
                    16:0e:35:fd:c7:8b:53:d0:a6:2e:20:5b:71:c9:df:
                    3f:7c:58:ad:a3:fa:bd:2f:7f:75:75:c3:67:44:eb:
                    f0:bc:9a:a1:b2:5e:d9:50:ae:94:bf:da:ae:73:53:
                    4e:0b:7e:7f:f1:9b:2d:0b:ce:5f:15:58:87:c0:07:
                    20:83:b3:ea:1e:5c:74:27:1b:5a:80:06:3a:d4:bc:
                    fb:fd:5e:23:27:ad:2d:d8:0f:54:7a:cf:47:64:34:
                    eb:73:86:22:df:7c:c8:1f:7f:c2:a2:12:7b:3f:1d:
                    e7:ca:a3:7d:de:95:ba:fa:b5:32:50:1a:1c:6d:f4:
                    5a:c4:70:f8:77:a4:d1:7a:8a:a3:1c:b1:ab:65:be:
                    1c:4c:53:4b:11:73:84:d4:00:15:6c:cc:ec:02:31:
                    51:67:62:06:22:a8:a7:f4:ed:49:72:89:a9:41:b2:
                    5a:b3:2f:e6:65:80:d3:5d:02:53:91:04:cf:0f:d3:
                    6b:c9:d8:79:d7:da:7d:35:c0:dc:92:1b:f1:f6:d9:
                    02:99
                Exponent: 65537 (0x10001)
        X509v3 extensions:
            X509v3 Key Usage: critical
                Digital Signature, Key Encipherment
            X509v3 Basic Constraints: 
                CA:FALSE
            X509v3 Extended Key Usage: 
                TLS Web Server Authentication, TLS Web Client Authentication
            X509v3 Subject Key Identifier: 
                80:C1:5C:28:44:D0:8F:3D:66:D8:B8:46:BC:F2:B9:8F:C0:2C:6C:E5
            X509v3 Authority Key Identifier: 
                keyid:D8:E8:1C:37:D0:D4:F7:24:2C:84:56:E0:17:0A:E7:23:A9:94:CA:94

            X509v3 Subject Alternative Name: 
                DNS:Monroe_Node_3434.POLITO.monroe.org
    Signature Algorithm: sha1WithRSAEncryption
         a7:bb:85:1e:87:60:c3:18:7d:df:41:db:da:4e:0d:ab:6a:50:
         8c:5e:4a:b2:0a:d7:63:07:f5:83:0b:f0:81:3f:ea:90:c3:ac:
         5c:66:21:e1:c6:ab:ea:05:e4:4c:5c:31:5f:59:92:ae:90:7f:
         e2:b6:09:62:34:4d:33:77:de:e7:97:4e:b6:d5:26:e1:a3:05:
         62:8f:f1:10:e6:83:48:e3:e5:89:34:bb:d5:95:ce:dd:b4:ba:
         49:9e:5f:31:63:5a:21:68:c2:ce:a6:27:7d:d1:9e:01:a7:c6:
         da:92:57:46:3a:89:32:ce:02:fc:d9:18:1f:b2:cf:5d:a7:55:
         a0:09:58:74:83:75:50:fa:87:f4:fb:e0:fb:b5:e9:e9:6f:e9:
         95:01:7b:40:c0:d7:5c:f7:1e:84:ce:66:5b:17:d1:e6:69:98:
         97:d2:c0:56:55:69:80:67:91:72:f3:e7:d8:ce:9d:bb:09:31:
         21:c5:cd:7c:de:05:02:62:22:d4:62:4b:3f:b0:81:a8:af:16:
         cb:d8:e9:c4:dd:79:c9:ef:00:4a:9e:2d:64:f1:98:06:3e:e9:
         4c:39:f5:7a:a1:f2:a2:4e:7f:e2:4b:e6:c5:1f:cd:cc:92:11:
         e4:cc:a5:ab:ae:20:4a:8b:1e:ab:66:f3:27:60:44:47:7a:5e:
         84:fe:ef:50:d2:bf:0e:54:7f:a3:f9:2f:ef:c9:91:51:9b:34:
         e3:c8:3b:b0:bd:16:db:b7:37:c7:1c:d9:1d:6a:42:54:92:a3:
         34:20:9f:d0:28:46:88:68:70:da:65:f0:94:0a:c9:78:86:42:
         cd:e6:81:57:33:63:68:fe:8a:0f:48:67:8b:14:df:1f:d9:ea:
         b5:ba:17:23:47:fd:d9:99:e2:23:7b:ca:ec:dd:5a:d4:16:2b:
         3e:6a:61:50:a0:36:19:e2:90:4e:03:eb:20:04:49:ef:9d:7d:
         d8:d6:5f:4a:ab:f9:4f:cd:61:9f:e0:a2:87:bd:ab:a0:d7:9b:
         14:a0:6c:87:6e:ad:41:d7:8f:69:97:a0:35:cc:8b:af:75:bc:
         49:3a:ac:ac:fa:8f:e8:87:df:77:1f:3b:ab:ed:c0:dd:fc:57:
         b7:84:7b:83:44:42:17:ae:5c:96:5b:86:96:be:cd:7a:cf:e0:
         ae:6a:5a:3c:92:ed:bf:bc:3b:0f:56:29:2a:93:e8:6d:3b:90:
         e5:b5:c6:55:6d:7d:0c:7b:8c:65:8d:43:48:2d:fb:ff:34:00:
         c8:c6:dc:c4:7a:b5:27:f5:3f:d4:9d:9d:e4:bf:51:ed:58:6f:
         e9:73:75:a2:cd:3f:bc:e2:37:cf:3e:4d:44:14:b9:87:39:85:
         bb:d9:da:7b:1a:28:4a:07
-----BEGIN CERTIFICATE-----
MIIE6TCCAtGgAwIBAgIBOzANBgkqhkiG9w0BAQUFADBTMRMwEQYKCZImiZPyLGQB
GRYDb3JnMRYwFAYKCZImiZPyLGQBGRYGbW9ucm9lMRAwDgYDVQQLDAdSb290LUNB
MRIwEAYDVQQDDAlSb290LUNBLTEwHhcNMTUxMDE5MDkyMTIyWhcNMTcxMDE4MDky
MTIyWjBuMRMwEQYKCZImiZPyLGQBGRYDb3JnMRYwFAYKCZImiZPyLGQBGRYGbW9u
cm9lMQ8wDQYDVQQKDAZQT0xJVE8xEzARBgNVBAsMCkNvbXBvbmVudHMxGTAXBgNV
BAMMEE1vbnJvZV9Ob2RlXzM0MzQwggEiMA0GCSqGSIb3DQEBAQUAA4IBDwAwggEK
AoIBAQDY2D8l7b1PeOQiMtL88wLlRYZhBcjaKIZUmp4r8jFv3wdWYK6yce2yuz5/
BBgKS9BCOH8TUjizVrv71hYONf3Hi1PQpi4gW3HJ3z98WK2j+r0vf3V1w2dE6/C8
mqGyXtlQrpS/2q5zU04Lfn/xmy0Lzl8VWIfAByCDs+oeXHQnG1qABjrUvPv9XiMn
rS3YD1R6z0dkNOtzhiLffMgff8KiEns/HefKo33elbr6tTJQGhxt9FrEcPh3pNF6
iqMcsatlvhxMU0sRc4TUABVszOwCMVFnYgYiqKf07UlyialBslqzL+ZlgNNdAlOR
BM8P02vJ2HnX2n01wNySG/H22QKZAgMBAAGjgawwgakwDgYDVR0PAQH/BAQDAgWg
MAkGA1UdEwQCMAAwHQYDVR0lBBYwFAYIKwYBBQUHAwEGCCsGAQUFBwMCMB0GA1Ud
DgQWBBSAwVwoRNCPPWbYuEa88rmPwCxs5TAfBgNVHSMEGDAWgBTY6Bw30NT3JCyE
VuAXCucjqZTKlDAtBgNVHREEJjAkgiJNb25yb2VfTm9kZV8zNDM0LlBPTElUTy5t
b25yb2Uub3JnMA0GCSqGSIb3DQEBBQUAA4ICAQCnu4Ueh2DDGH3fQdvaTg2ralCM
XkqyCtdjB/WDC/CBP+qQw6xcZiHhxqvqBeRMXDFfWZKukH/itgliNE0zd97nl062
1SbhowVij/EQ5oNI4+WJNLvVlc7dtLpJnl8xY1ohaMLOpid90Z4Bp8bakldGOoky
zgL82Rgfss9dp1WgCVh0g3VQ+of0++D7tenpb+mVAXtAwNdc9x6EzmZbF9HmaZiX
0sBWVWmAZ5Fy8+fYzp27CTEhxc183gUCYiLUYks/sIGorxbL2OnE3XnJ7wBKni1k
8ZgGPulMOfV6ofKiTn/iS+bFH83MkhHkzKWrriBKix6rZvMnYERHel6E/u9Q0r8O
VH+j+S/vyZFRmzTjyDuwvRbbtzfHHNkdakJUkqM0IJ/QKEaIaHDaZfCUCsl4hkLN
5oFXM2No/ooPSGeLFN8f2eq1uhcjR/3ZmeIje8rs3VrUFis+amFQoDYZ4pBOA+sg
BEnvnX3Y1l9Kq/lPzWGf4KKHvaug15sUoGyHbq1B149pl6A1zIuvdbxJOqys+o/o
h993Hzur7cDd/Fe3hHuDREIXrlyWW4aWvs16z+Cualo8ku2/vDsPVikqk+htO5Dl
tcZVbX0Me4xljUNILfv/NADIxtzEerUn9T/UnZ3kv1HtWG/pc3WizT+84jfPPk1E
FLmHOYW72dp7GihKBw==
-----END CERTIFICATE-----
