Certificate:
    Data:
        Version: 3 (0x2)
        Serial Number: 60 (0x3c)
    Signature Algorithm: sha1WithRSAEncryption
        Issuer: DC=org, DC=monroe, OU=Root-CA, CN=Root-CA-1
        Validity
            Not Before: Oct 19 09:21:40 2015 GMT
            Not After : Oct 18 09:21:40 2017 GMT
        Subject: DC=org, DC=monroe, O=POLITO, OU=Components, CN=Monroe_Node_3434
        Subject Public Key Info:
            Public Key Algorithm: rsaEncryption
                Public-Key: (2048 bit)
                Modulus:
                    00:a9:22:6f:1e:c2:ab:b2:5f:d7:b1:4b:07:e0:59:
                    d0:08:50:5b:00:57:72:a8:7f:21:0f:c8:a3:96:e1:
                    58:fd:09:97:e5:ad:a2:5c:d2:c7:67:7b:ea:6f:56:
                    55:e9:81:3f:36:d1:a8:6e:ff:08:a5:17:73:d1:40:
                    3f:58:39:30:3e:ef:e4:45:1e:66:2f:b1:e6:6b:db:
                    f7:c5:a5:c7:f5:13:a2:9b:4c:2a:48:90:15:00:3d:
                    aa:4d:91:9c:1e:08:39:8e:24:dc:d9:b1:e7:41:ce:
                    86:eb:db:95:d1:91:0c:cd:86:0b:13:43:ba:60:a5:
                    b0:39:45:7d:f9:b9:ac:00:b5:f3:96:66:97:19:d0:
                    d9:27:10:25:16:6e:77:dd:ab:29:01:36:32:a3:ad:
                    26:ef:39:e4:2f:00:63:8b:9f:06:4a:c2:98:96:c3:
                    ad:b8:20:98:4d:f6:f0:76:23:7e:8b:a3:a9:8d:42:
                    b3:1a:28:cb:ea:71:8b:6f:9d:b0:b0:18:5b:d7:f4:
                    28:00:90:e1:83:c1:fb:6a:43:56:75:63:23:2e:e7:
                    d0:73:49:56:85:cb:f5:e6:15:d8:8e:e7:f7:e2:8f:
                    90:d0:a0:5e:e8:c3:26:5e:39:10:a6:65:b4:22:d5:
                    a0:ca:c2:95:a2:e1:bd:ce:7f:0f:a6:4a:1e:38:62:
                    77:87
                Exponent: 65537 (0x10001)
        X509v3 extensions:
            X509v3 Key Usage: critical
                Digital Signature, Key Encipherment
            X509v3 Basic Constraints: 
                CA:FALSE
            X509v3 Extended Key Usage: 
                TLS Web Server Authentication, TLS Web Client Authentication
            X509v3 Subject Key Identifier: 
                F8:6F:89:0B:FA:38:03:EA:CB:55:AF:0E:26:4F:DA:91:B2:04:39:B1
            X509v3 Authority Key Identifier: 
                keyid:D8:E8:1C:37:D0:D4:F7:24:2C:84:56:E0:17:0A:E7:23:A9:94:CA:94

            X509v3 Subject Alternative Name: 
                DNS:Monroe_Node_3434.POLITO.monroe.org
    Signature Algorithm: sha1WithRSAEncryption
         9e:c0:b9:3e:66:df:98:46:24:5e:e9:1d:80:b6:9c:1c:0a:eb:
         d9:96:16:6a:0d:66:85:78:1c:cc:74:66:bb:c2:08:a5:e3:52:
         f8:72:8d:34:6b:a0:92:99:6d:94:98:c2:49:62:a8:be:78:7c:
         5e:e1:fe:84:4f:df:2f:d2:91:47:4f:4c:f7:fe:d5:c2:71:1c:
         93:af:01:c9:e7:c8:87:de:8e:39:ab:14:1d:a0:80:0b:c3:11:
         b6:53:00:70:20:c0:25:04:a9:63:65:d5:61:50:5e:99:de:ac:
         51:17:e9:d6:be:09:dc:9f:09:83:38:60:11:5e:e6:4a:a7:4c:
         46:57:8c:35:7e:40:21:3f:59:49:82:b0:35:34:43:f9:a6:ba:
         b4:f0:ed:8c:cf:f1:64:7f:28:24:e4:20:ea:87:2f:59:42:b7:
         b3:70:22:80:8e:33:99:15:60:23:63:d1:2b:8c:96:9e:ba:55:
         7d:58:6d:d7:d8:d8:56:b9:55:95:29:2f:d6:4b:64:1b:bb:9e:
         c1:50:f1:20:92:29:dd:07:9c:36:23:44:73:f7:bf:91:55:a0:
         38:54:87:00:11:01:70:bc:03:7f:4c:f0:01:11:47:03:d3:d4:
         51:2f:60:e8:44:45:7e:a2:bf:a5:7e:14:8b:e2:73:cf:57:69:
         ab:54:43:53:34:69:94:43:dd:83:68:59:86:c7:c3:0c:8a:1d:
         06:e5:9f:ed:7f:8f:45:c5:af:d0:b3:4c:d2:6e:63:f7:00:f9:
         53:52:e2:00:c0:ef:c6:cd:3a:b1:3e:8b:53:d8:12:6e:f2:4e:
         0e:d1:b3:5d:43:bd:4f:87:df:ab:37:9e:7d:e5:c5:c3:43:bf:
         57:ab:96:94:6d:1c:48:01:57:50:89:a2:26:f0:2b:32:27:95:
         4c:da:d2:7b:b3:78:03:14:c1:52:f0:e7:cf:50:b1:f4:5d:64:
         2d:ba:91:10:7a:4f:93:87:0c:7a:6d:9d:3b:86:72:88:d9:1d:
         00:a2:cb:2a:82:43:ce:cd:c5:8c:c7:4b:d3:88:01:a0:1d:7a:
         de:b8:fe:1a:59:f7:2d:b6:e5:b8:8e:4a:0d:54:92:25:de:c8:
         be:c6:db:21:6f:a3:2e:8e:6f:fe:48:da:25:df:8a:78:16:0d:
         8f:7d:a1:f8:13:8c:9c:e6:b2:7a:8b:91:73:75:c1:65:c7:53:
         88:d9:0f:29:83:e8:55:00:1f:c0:37:d3:57:b3:22:cd:70:8d:
         03:2e:3d:f2:ef:72:67:0c:74:e4:f0:c3:b8:b2:cb:c4:2a:9a:
         f6:c2:f2:b6:e1:2b:26:12:01:5c:9d:24:41:6f:fb:a1:76:94:
         ea:f4:a3:43:af:c5:a6:e5
-----BEGIN CERTIFICATE-----
MIIE6TCCAtGgAwIBAgIBPDANBgkqhkiG9w0BAQUFADBTMRMwEQYKCZImiZPyLGQB
GRYDb3JnMRYwFAYKCZImiZPyLGQBGRYGbW9ucm9lMRAwDgYDVQQLDAdSb290LUNB
MRIwEAYDVQQDDAlSb290LUNBLTEwHhcNMTUxMDE5MDkyMTQwWhcNMTcxMDE4MDky
MTQwWjBuMRMwEQYKCZImiZPyLGQBGRYDb3JnMRYwFAYKCZImiZPyLGQBGRYGbW9u
cm9lMQ8wDQYDVQQKDAZQT0xJVE8xEzARBgNVBAsMCkNvbXBvbmVudHMxGTAXBgNV
BAMMEE1vbnJvZV9Ob2RlXzM0MzQwggEiMA0GCSqGSIb3DQEBAQUAA4IBDwAwggEK
AoIBAQCpIm8ewquyX9exSwfgWdAIUFsAV3KofyEPyKOW4Vj9CZflraJc0sdne+pv
VlXpgT820ahu/wilF3PRQD9YOTA+7+RFHmYvseZr2/fFpcf1E6KbTCpIkBUAPapN
kZweCDmOJNzZsedBzobr25XRkQzNhgsTQ7pgpbA5RX35uawAtfOWZpcZ0NknECUW
bnfdqykBNjKjrSbvOeQvAGOLnwZKwpiWw624IJhN9vB2I36Lo6mNQrMaKMvqcYtv
nbCwGFvX9CgAkOGDwftqQ1Z1YyMu59BzSVaFy/XmFdiO5/fij5DQoF7owyZeORCm
ZbQi1aDKwpWi4b3Ofw+mSh44YneHAgMBAAGjgawwgakwDgYDVR0PAQH/BAQDAgWg
MAkGA1UdEwQCMAAwHQYDVR0lBBYwFAYIKwYBBQUHAwEGCCsGAQUFBwMCMB0GA1Ud
DgQWBBT4b4kL+jgD6stVrw4mT9qRsgQ5sTAfBgNVHSMEGDAWgBTY6Bw30NT3JCyE
VuAXCucjqZTKlDAtBgNVHREEJjAkgiJNb25yb2VfTm9kZV8zNDM0LlBPTElUTy5t
b25yb2Uub3JnMA0GCSqGSIb3DQEBBQUAA4ICAQCewLk+Zt+YRiRe6R2AtpwcCuvZ
lhZqDWaFeBzMdGa7wgil41L4co00a6CSmW2UmMJJYqi+eHxe4f6ET98v0pFHT0z3
/tXCcRyTrwHJ58iH3o45qxQdoIALwxG2UwBwIMAlBKljZdVhUF6Z3qxRF+nWvgnc
nwmDOGARXuZKp0xGV4w1fkAhP1lJgrA1NEP5prq08O2Mz/Fkfygk5CDqhy9ZQrez
cCKAjjOZFWAjY9ErjJaeulV9WG3X2NhWuVWVKS/WS2Qbu57BUPEgkindB5w2I0Rz
97+RVaA4VIcAEQFwvAN/TPABEUcD09RRL2DoREV+or+lfhSL4nPPV2mrVENTNGmU
Q92DaFmGx8MMih0G5Z/tf49Fxa/Qs0zSbmP3APlTUuIAwO/GzTqxPotT2BJu8k4O
0bNdQ71Ph9+rN5595cXDQ79Xq5aUbRxIAVdQiaIm8CsyJ5VM2tJ7s3gDFMFS8OfP
ULH0XWQtupEQek+Thwx6bZ07hnKI2R0AossqgkPOzcWMx0vTiAGgHXreuP4aWfct
tuW4jkoNVJIl3si+xtshb6Mujm/+SNol34p4Fg2PfaH4E4yc5rJ6i5FzdcFlx1OI
2Q8pg+hVAB/AN9NXsyLNcI0DLj3y73JnDHTk8MO4ssvEKpr2wvK24SsmEgFcnSRB
b/uhdpTq9KNDr8Wm5Q==
-----END CERTIFICATE-----
