Certificate:
    Data:
        Version: 3 (0x2)
        Serial Number: 61 (0x3d)
    Signature Algorithm: sha1WithRSAEncryption
        Issuer: DC=org, DC=monroe, OU=Root-CA, CN=Root-CA-1
        Validity
            Not Before: Oct 19 09:23:48 2015 GMT
            Not After : Oct 18 09:23:48 2017 GMT
        Subject: DC=org, DC=monroe, O=POLITO, OU=Components, CN=Monroe_Node_3434
        Subject Public Key Info:
            Public Key Algorithm: rsaEncryption
                Public-Key: (2048 bit)
                Modulus:
                    00:db:7d:07:b3:9a:52:96:5d:8f:ce:5f:e1:78:3d:
                    34:c6:6f:4e:1d:6f:11:c4:4b:79:10:f7:ba:f1:eb:
                    18:56:ef:4c:d8:4b:dd:97:ab:9f:7e:79:5b:74:a2:
                    04:56:63:d8:fc:22:6a:20:06:87:66:18:8f:08:d1:
                    56:ab:f4:70:f5:d0:ea:68:a0:37:e5:3e:38:3b:49:
                    2a:94:68:50:a4:3d:e3:55:61:a9:f5:b9:7f:d4:f0:
                    0e:17:19:a6:bb:03:64:a7:54:ea:f4:50:76:de:90:
                    69:7c:bb:8a:a0:a9:9b:ac:c4:61:53:5a:1b:5e:a2:
                    48:d0:e4:91:9b:28:e6:49:7f:18:8e:d8:69:2a:66:
                    10:23:64:44:73:7b:69:95:1b:66:ca:5a:4f:4e:94:
                    e5:30:8c:99:7f:3d:70:cc:23:e9:21:d3:b6:dd:22:
                    ba:12:5d:07:95:a0:f7:c5:27:bc:fe:4b:44:eb:6e:
                    51:a7:27:48:39:92:a6:fa:6b:62:02:f5:0e:de:8b:
                    e0:b6:8b:48:85:51:4d:03:fe:d4:5d:28:05:8c:33:
                    ca:1f:1c:59:8d:d1:ae:34:2c:3a:c8:de:63:9e:05:
                    08:39:a4:d0:b8:7b:65:7b:44:2d:42:9f:4d:cd:95:
                    c6:40:cc:21:a1:b4:4b:22:d1:67:77:df:32:a8:2e:
                    86:e1
                Exponent: 65537 (0x10001)
        X509v3 extensions:
            X509v3 Key Usage: critical
                Digital Signature, Key Encipherment
            X509v3 Basic Constraints: 
                CA:FALSE
            X509v3 Extended Key Usage: 
                TLS Web Server Authentication, TLS Web Client Authentication
            X509v3 Subject Key Identifier: 
                AE:1C:E0:92:2A:C0:9F:F0:17:F4:87:9A:1C:59:DE:33:53:0F:B0:06
            X509v3 Authority Key Identifier: 
                keyid:D8:E8:1C:37:D0:D4:F7:24:2C:84:56:E0:17:0A:E7:23:A9:94:CA:94

            X509v3 Subject Alternative Name: 
                DNS:Monroe_Node_3434.POLITO.monroe.org
    Signature Algorithm: sha1WithRSAEncryption
         1d:c5:79:a8:23:0c:43:2d:9e:ca:30:5c:7d:d8:3f:bb:65:bb:
         5a:21:d9:37:ad:52:11:88:f3:a3:e6:bb:75:a7:57:83:89:17:
         d2:24:a0:14:82:f7:ca:cd:a0:76:2c:ca:03:25:f3:97:1a:48:
         d1:53:f4:df:9d:85:6f:ca:05:c7:7b:4a:3d:9c:8b:13:9f:4a:
         56:ba:88:5d:b4:0a:77:32:f0:66:7f:89:c3:6e:16:56:84:fd:
         8f:22:ac:9f:67:d6:38:f9:20:08:40:d9:9d:49:fe:5f:49:91:
         ea:56:c2:8e:52:31:2b:49:7c:9e:8a:40:b3:7d:fd:64:f9:d2:
         bf:5a:2f:1a:58:ce:27:9a:52:6d:a0:9a:fb:84:98:f4:18:99:
         1c:bc:7b:23:bd:82:f9:ea:ec:99:40:fa:52:67:b6:53:54:49:
         c4:e1:ba:ff:ab:d1:7e:f7:ed:29:84:29:0d:77:ee:32:fd:ea:
         86:1d:1e:b3:5a:ad:1c:8e:f1:d7:c8:09:09:a0:f5:20:a7:d4:
         ba:ec:e3:f9:ee:f4:c9:69:a2:3a:bd:2c:44:f9:fd:9f:78:47:
         c9:f5:42:50:1e:df:a3:32:ec:d9:93:cf:23:a2:09:86:48:08:
         56:2f:3d:b4:a6:30:49:32:17:e6:f1:7c:6f:ad:dd:96:a7:f0:
         12:f6:e1:fb:a0:9f:a2:45:96:2b:de:69:24:c9:41:2b:88:4f:
         39:52:4f:80:fe:18:31:5d:62:87:64:00:30:91:56:05:13:d8:
         6f:83:d5:bf:51:0f:6b:ca:23:a9:3a:2b:95:ab:ee:35:ad:e7:
         e6:96:58:c9:01:77:eb:d6:63:22:d3:ba:27:58:96:48:80:3f:
         99:f5:cf:6d:eb:32:a9:fa:b2:e3:2d:44:98:db:2a:29:ed:4e:
         b8:91:ce:e7:40:5d:be:41:26:5b:1b:67:c7:20:04:77:33:95:
         c1:2e:3d:b4:f8:5f:92:b1:4a:cc:e0:75:bc:be:bc:8d:7f:0b:
         0e:e9:12:02:a8:59:e4:f4:f7:72:a6:f5:e8:11:f4:10:a6:9c:
         dc:06:df:20:55:b3:6e:e1:27:7f:ed:14:b9:e3:26:cd:d9:3e:
         69:50:c1:37:75:3d:f7:31:4a:20:9a:ad:0a:ac:9b:e0:5e:6e:
         03:d0:d5:8c:1e:f0:51:6b:0c:6f:4a:67:17:8b:7d:12:5d:ad:
         14:5e:4d:8f:0d:2e:07:dc:ac:24:7b:71:19:48:e1:96:7b:6e:
         65:99:59:cf:aa:57:fc:46:cc:46:fb:7e:49:e4:07:26:3a:c0:
         97:ec:6d:11:92:39:53:8a:41:c4:e3:d1:41:ec:2f:c0:2a:36:
         c6:d9:15:de:ef:0e:d3:4b
-----BEGIN CERTIFICATE-----
MIIE6TCCAtGgAwIBAgIBPTANBgkqhkiG9w0BAQUFADBTMRMwEQYKCZImiZPyLGQB
GRYDb3JnMRYwFAYKCZImiZPyLGQBGRYGbW9ucm9lMRAwDgYDVQQLDAdSb290LUNB
MRIwEAYDVQQDDAlSb290LUNBLTEwHhcNMTUxMDE5MDkyMzQ4WhcNMTcxMDE4MDky
MzQ4WjBuMRMwEQYKCZImiZPyLGQBGRYDb3JnMRYwFAYKCZImiZPyLGQBGRYGbW9u
cm9lMQ8wDQYDVQQKDAZQT0xJVE8xEzARBgNVBAsMCkNvbXBvbmVudHMxGTAXBgNV
BAMMEE1vbnJvZV9Ob2RlXzM0MzQwggEiMA0GCSqGSIb3DQEBAQUAA4IBDwAwggEK
AoIBAQDbfQezmlKWXY/OX+F4PTTGb04dbxHES3kQ97rx6xhW70zYS92Xq59+eVt0
ogRWY9j8ImogBodmGI8I0Var9HD10OpooDflPjg7SSqUaFCkPeNVYan1uX/U8A4X
Gaa7A2SnVOr0UHbekGl8u4qgqZusxGFTWhteokjQ5JGbKOZJfxiO2GkqZhAjZERz
e2mVG2bKWk9OlOUwjJl/PXDMI+kh07bdIroSXQeVoPfFJ7z+S0TrblGnJ0g5kqb6
a2IC9Q7ei+C2i0iFUU0D/tRdKAWMM8ofHFmN0a40LDrI3mOeBQg5pNC4e2V7RC1C
n03NlcZAzCGhtEsi0Wd33zKoLobhAgMBAAGjgawwgakwDgYDVR0PAQH/BAQDAgWg
MAkGA1UdEwQCMAAwHQYDVR0lBBYwFAYIKwYBBQUHAwEGCCsGAQUFBwMCMB0GA1Ud
DgQWBBSuHOCSKsCf8Bf0h5ocWd4zUw+wBjAfBgNVHSMEGDAWgBTY6Bw30NT3JCyE
VuAXCucjqZTKlDAtBgNVHREEJjAkgiJNb25yb2VfTm9kZV8zNDM0LlBPTElUTy5t
b25yb2Uub3JnMA0GCSqGSIb3DQEBBQUAA4ICAQAdxXmoIwxDLZ7KMFx92D+7Zbta
Idk3rVIRiPOj5rt1p1eDiRfSJKAUgvfKzaB2LMoDJfOXGkjRU/TfnYVvygXHe0o9
nIsTn0pWuohdtAp3MvBmf4nDbhZWhP2PIqyfZ9Y4+SAIQNmdSf5fSZHqVsKOUjEr
SXyeikCzff1k+dK/Wi8aWM4nmlJtoJr7hJj0GJkcvHsjvYL56uyZQPpSZ7ZTVEnE
4br/q9F+9+0phCkNd+4y/eqGHR6zWq0cjvHXyAkJoPUgp9S67OP57vTJaaI6vSxE
+f2feEfJ9UJQHt+jMuzZk88jogmGSAhWLz20pjBJMhfm8Xxvrd2Wp/AS9uH7oJ+i
RZYr3mkkyUEriE85Uk+A/hgxXWKHZAAwkVYFE9hvg9W/UQ9ryiOpOiuVq+41refm
lljJAXfr1mMi07onWJZIgD+Z9c9t6zKp+rLjLUSY2yop7U64kc7nQF2+QSZbG2fH
IAR3M5XBLj20+F+SsUrM4HW8vryNfwsO6RICqFnk9PdypvXoEfQQppzcBt8gVbNu
4Sd/7RS54ybN2T5pUME3dT33MUogmq0KrJvgXm4D0NWMHvBRawxvSmcXi30SXa0U
Xk2PDS4H3Kwke3EZSOGWe25lmVnPqlf8RsxG+35J5AcmOsCX7G0RkjlTikHE49FB
7C/AKjbG2RXe7w7TSw==
-----END CERTIFICATE-----
