Certificate:
    Data:
        Version: 3 (0x2)
        Serial Number: 62 (0x3e)
    Signature Algorithm: sha1WithRSAEncryption
        Issuer: DC=org, DC=monroe, OU=Root-CA, CN=Root-CA-1
        Validity
            Not Before: Oct 19 09:24:10 2015 GMT
            Not After : Oct 18 09:24:10 2017 GMT
        Subject: DC=org, DC=monroe, O=POLITO, OU=Components, CN=Monroe_Node_3434
        Subject Public Key Info:
            Public Key Algorithm: rsaEncryption
                Public-Key: (2048 bit)
                Modulus:
                    00:e2:fc:9a:10:a2:89:93:fa:af:5c:4b:34:1d:18:
                    53:3e:55:b9:c2:64:14:68:39:19:36:3c:5b:5a:f0:
                    59:fd:eb:11:58:16:b3:18:e1:7b:d1:e5:9b:1f:09:
                    f1:33:70:5e:ec:b8:8f:94:34:17:8e:b6:4e:8b:ad:
                    04:0b:16:ac:e7:c1:4d:f7:30:ce:61:cf:bb:48:99:
                    38:69:8e:bf:07:76:74:9f:f8:a1:aa:a7:d5:e4:c9:
                    09:38:b7:f9:40:37:94:3b:71:05:b2:4b:be:bb:fe:
                    d7:db:a4:e0:b6:e8:00:c8:0f:a8:99:c8:83:6c:b8:
                    e9:2d:51:0b:16:fb:e0:80:17:6c:b9:9c:bf:78:ca:
                    3e:62:d6:46:f7:9c:38:05:fd:66:2e:cf:ef:3a:97:
                    f3:05:72:ac:d1:50:cb:46:de:4a:c6:1f:c2:30:56:
                    b9:10:fc:72:9b:bf:2c:d8:6c:69:9e:1c:24:a6:af:
                    ad:f3:17:7f:9b:fb:ee:d6:8b:db:f7:6c:b8:d0:67:
                    fd:56:fb:a4:93:43:01:72:4b:ba:eb:5f:06:56:8f:
                    81:bc:6c:95:6d:bb:2e:7b:61:aa:03:6f:fb:6a:1b:
                    a8:ff:64:0c:3f:f2:1e:63:46:f9:8f:10:19:46:97:
                    a6:2a:f7:c4:a4:b8:a5:6c:1c:62:3f:96:f3:08:0b:
                    b1:2b
                Exponent: 65537 (0x10001)
        X509v3 extensions:
            X509v3 Key Usage: critical
                Digital Signature, Key Encipherment
            X509v3 Basic Constraints: 
                CA:FALSE
            X509v3 Extended Key Usage: 
                TLS Web Server Authentication, TLS Web Client Authentication
            X509v3 Subject Key Identifier: 
                D7:B4:1A:0E:A4:3A:54:2C:82:2A:97:AF:D1:A3:BC:6A:25:EB:F9:84
            X509v3 Authority Key Identifier: 
                keyid:D8:E8:1C:37:D0:D4:F7:24:2C:84:56:E0:17:0A:E7:23:A9:94:CA:94

            X509v3 Subject Alternative Name: 
                DNS:Monroe_Node_3434.POLITO.monroe.org
    Signature Algorithm: sha1WithRSAEncryption
         2a:5a:88:98:ea:14:3e:ff:4e:dd:76:ba:f1:55:a7:fa:ee:55:
         6b:ac:bd:a7:1d:6f:42:84:4c:62:14:94:f1:c9:f2:94:6e:fd:
         3a:dc:b7:90:e9:2a:06:03:65:ba:4a:e7:c0:55:bc:21:25:fd:
         95:ea:63:27:be:f3:d6:e8:18:4c:7c:41:72:5c:af:eb:3b:60:
         31:81:66:4e:da:04:36:7c:43:4f:22:97:c9:e8:d5:4a:1a:04:
         1f:e7:63:cd:4e:b7:23:22:c7:4c:cd:1c:f9:33:db:75:20:9a:
         3e:05:8c:81:55:41:31:d2:38:e6:fa:c1:3b:26:e2:38:a7:e2:
         90:fc:26:12:2e:df:dd:b8:c0:20:6e:cd:13:3d:14:40:6c:68:
         d6:ee:b4:24:a5:1f:24:6e:7d:1e:83:b0:8e:f6:7a:0c:29:26:
         63:2d:e7:f4:b2:a8:25:bc:cc:d7:94:4c:ba:40:b0:f8:3f:81:
         e5:78:74:81:7c:72:96:b5:bd:b4:25:49:d6:54:83:ff:7d:d3:
         fc:ad:54:61:73:a7:f5:64:1d:1f:77:bc:16:50:cb:a8:a5:43:
         a8:71:06:55:28:4f:12:39:67:50:07:9e:50:ff:e5:ad:b3:aa:
         ce:d1:4a:5a:ed:97:51:04:1c:e2:27:e9:cc:74:89:36:dd:c7:
         65:c9:bb:d2:ad:43:81:07:77:e3:7e:6a:70:e8:2d:b2:01:10:
         6a:42:bd:be:7b:ca:8a:bc:a8:6b:ac:30:b1:99:6b:fa:65:50:
         fb:d5:f9:43:76:46:66:b3:49:aa:0c:1d:13:b6:0b:b9:a3:6e:
         67:24:cc:c1:56:78:1f:36:0e:3c:c1:c3:32:c7:83:3c:08:e4:
         f5:59:07:d2:a7:12:71:d2:3e:8a:66:02:f9:3a:b2:83:58:4d:
         e8:b6:1b:35:4d:d6:aa:f9:f2:20:97:b5:a2:d5:38:ac:d9:8b:
         62:d5:81:7d:8e:a2:d9:ee:ce:1a:da:7a:97:8c:c6:2c:fc:8e:
         e4:b5:af:75:8a:7c:3e:10:87:a9:04:09:96:a2:77:a6:a5:9e:
         1d:68:f5:fd:8d:12:ec:a6:0a:54:65:b1:5a:50:f9:2d:4b:dc:
         6a:2f:4d:19:33:80:aa:d5:89:a4:66:34:76:71:b8:9b:46:22:
         98:eb:ad:07:ca:af:dd:42:fd:46:1f:8a:38:95:e8:7e:c8:f5:
         bc:df:12:12:bc:2c:fe:68:fd:34:d8:cf:f9:6d:8a:8c:fc:51:
         7a:be:76:1d:23:d4:9c:4c:77:06:30:45:9c:73:45:f6:8e:59:
         41:32:e3:91:53:91:e9:a7:d1:29:60:3a:45:e2:43:92:09:41:
         3f:e8:45:cb:a5:6a:ee:b3
-----BEGIN CERTIFICATE-----
MIIE6TCCAtGgAwIBAgIBPjANBgkqhkiG9w0BAQUFADBTMRMwEQYKCZImiZPyLGQB
GRYDb3JnMRYwFAYKCZImiZPyLGQBGRYGbW9ucm9lMRAwDgYDVQQLDAdSb290LUNB
MRIwEAYDVQQDDAlSb290LUNBLTEwHhcNMTUxMDE5MDkyNDEwWhcNMTcxMDE4MDky
NDEwWjBuMRMwEQYKCZImiZPyLGQBGRYDb3JnMRYwFAYKCZImiZPyLGQBGRYGbW9u
cm9lMQ8wDQYDVQQKDAZQT0xJVE8xEzARBgNVBAsMCkNvbXBvbmVudHMxGTAXBgNV
BAMMEE1vbnJvZV9Ob2RlXzM0MzQwggEiMA0GCSqGSIb3DQEBAQUAA4IBDwAwggEK
AoIBAQDi/JoQoomT+q9cSzQdGFM+VbnCZBRoORk2PFta8Fn96xFYFrMY4XvR5Zsf
CfEzcF7suI+UNBeOtk6LrQQLFqznwU33MM5hz7tImThpjr8HdnSf+KGqp9XkyQk4
t/lAN5Q7cQWyS767/tfbpOC26ADID6iZyINsuOktUQsW++CAF2y5nL94yj5i1kb3
nDgF/WYuz+86l/MFcqzRUMtG3krGH8IwVrkQ/HKbvyzYbGmeHCSmr63zF3+b++7W
i9v3bLjQZ/1W+6STQwFyS7rrXwZWj4G8bJVtuy57YaoDb/tqG6j/ZAw/8h5jRvmP
EBlGl6Yq98SkuKVsHGI/lvMIC7ErAgMBAAGjgawwgakwDgYDVR0PAQH/BAQDAgWg
MAkGA1UdEwQCMAAwHQYDVR0lBBYwFAYIKwYBBQUHAwEGCCsGAQUFBwMCMB0GA1Ud
DgQWBBTXtBoOpDpULIIql6/Ro7xqJev5hDAfBgNVHSMEGDAWgBTY6Bw30NT3JCyE
VuAXCucjqZTKlDAtBgNVHREEJjAkgiJNb25yb2VfTm9kZV8zNDM0LlBPTElUTy5t
b25yb2Uub3JnMA0GCSqGSIb3DQEBBQUAA4ICAQAqWoiY6hQ+/07ddrrxVaf67lVr
rL2nHW9ChExiFJTxyfKUbv063LeQ6SoGA2W6SufAVbwhJf2V6mMnvvPW6BhMfEFy
XK/rO2AxgWZO2gQ2fENPIpfJ6NVKGgQf52PNTrcjIsdMzRz5M9t1IJo+BYyBVUEx
0jjm+sE7JuI4p+KQ/CYSLt/duMAgbs0TPRRAbGjW7rQkpR8kbn0eg7CO9noMKSZj
Lef0sqglvMzXlEy6QLD4P4HleHSBfHKWtb20JUnWVIP/fdP8rVRhc6f1ZB0fd7wW
UMuopUOocQZVKE8SOWdQB55Q/+Wts6rO0Upa7ZdRBBziJ+nMdIk23cdlybvSrUOB
B3fjfmpw6C2yARBqQr2+e8qKvKhrrDCxmWv6ZVD71flDdkZms0mqDB0Ttgu5o25n
JMzBVngfNg48wcMyx4M8COT1WQfSpxJx0j6KZgL5OrKDWE3oths1Tdaq+fIgl7Wi
1Tis2Yti1YF9jqLZ7s4a2nqXjMYs/I7kta91inw+EIepBAmWonempZ4daPX9jRLs
pgpUZbFaUPktS9xqL00ZM4Cq1YmkZjR2cbibRiKY660Hyq/dQv1GH4o4leh+yPW8
3xISvCz+aP002M/5bYqM/FF6vnYdI9ScTHcGMEWcc0X2jllBMuORU5Hpp9EpYDpF
4kOSCUE/6EXLpWrusw==
-----END CERTIFICATE-----
