Certificate:
    Data:
        Version: 3 (0x2)
        Serial Number: 63 (0x3f)
    Signature Algorithm: sha1WithRSAEncryption
        Issuer: DC=org, DC=monroe, OU=Root-CA, CN=Root-CA-1
        Validity
            Not Before: Oct 19 09:25:17 2015 GMT
            Not After : Oct 18 09:25:17 2017 GMT
        Subject: DC=org, DC=monroe, O=POLITO, OU=Components, CN=Monroe_Node_3434
        Subject Public Key Info:
            Public Key Algorithm: rsaEncryption
                Public-Key: (2048 bit)
                Modulus:
                    00:9b:e6:32:ec:1f:5c:39:01:d7:b9:e8:9d:6d:42:
                    58:ef:7c:1f:60:a7:25:f7:a1:d5:18:cd:31:a1:e0:
                    d4:a9:ee:67:8a:9a:7d:fe:7b:33:14:58:22:f3:64:
                    e6:4a:dd:cd:57:45:a3:1f:85:73:b6:44:9a:fc:4a:
                    e5:98:50:99:c3:a4:96:7b:90:02:d2:d7:54:2c:9b:
                    8c:59:d4:fd:83:6c:68:6d:46:b7:7c:0d:f4:a1:c9:
                    3f:6c:f0:77:5a:92:3b:e7:28:6a:c5:c6:b4:da:a2:
                    13:68:f1:89:95:7f:1c:9e:47:1c:ba:88:03:3c:0f:
                    5b:66:0d:87:97:69:aa:0c:02:e5:ae:1f:1e:97:d9:
                    c3:89:b0:e1:55:fb:cc:f6:b0:4d:b9:f1:28:5a:76:
                    64:b8:24:12:21:b5:69:90:c3:42:ac:98:2f:5b:25:
                    06:92:77:12:a6:1f:9d:80:a5:c1:47:ee:65:9e:7a:
                    2b:32:e9:62:40:f9:05:3c:f6:9d:44:17:53:71:34:
                    7c:1b:d8:34:37:88:c3:eb:2c:e6:ca:c0:05:3b:ba:
                    4f:43:cf:c2:3a:97:d3:16:5e:e2:60:98:97:dc:c6:
                    bf:10:d3:cd:0a:6e:fb:14:04:3c:e6:eb:22:85:40:
                    c3:d0:b8:4a:54:8d:53:83:d4:a6:dc:7c:2e:d3:b5:
                    c2:ff
                Exponent: 65537 (0x10001)
        X509v3 extensions:
            X509v3 Key Usage: critical
                Digital Signature, Key Encipherment
            X509v3 Basic Constraints: 
                CA:FALSE
            X509v3 Extended Key Usage: 
                TLS Web Server Authentication, TLS Web Client Authentication
            X509v3 Subject Key Identifier: 
                AE:3B:17:4F:AC:A7:1B:B5:7A:18:82:9C:62:E0:1A:1E:CC:A2:74:E0
            X509v3 Authority Key Identifier: 
                keyid:D8:E8:1C:37:D0:D4:F7:24:2C:84:56:E0:17:0A:E7:23:A9:94:CA:94

            X509v3 Subject Alternative Name: 
                DNS:Monroe_Node_3434.POLITO.monroe.org
    Signature Algorithm: sha1WithRSAEncryption
         67:6e:b9:b4:2e:87:2d:1f:9d:1a:2e:a9:a0:60:f3:5b:18:9d:
         41:29:bb:04:b0:20:b1:f7:56:70:a7:d3:84:bb:da:80:1f:d5:
         9e:f6:03:0c:9a:45:25:23:76:c1:ae:35:ad:6d:8d:7e:e9:28:
         ad:5a:05:0b:f4:78:aa:54:bd:a5:d2:62:b3:f2:b6:5e:7f:17:
         53:cb:2e:34:6e:0a:5f:40:2a:0d:89:5a:e8:58:db:56:37:80:
         9a:eb:5f:3c:a4:32:76:b5:36:ae:51:68:03:ea:55:9a:b0:ef:
         35:2c:ca:68:88:77:f3:b9:5a:65:a9:a7:f1:6e:cd:d2:4a:b8:
         e9:af:b1:49:a7:1a:31:e0:73:30:7c:e7:c6:9f:25:d6:dc:e8:
         f8:c3:3d:65:c9:8e:63:25:87:21:9c:07:4a:39:78:a4:23:d0:
         37:f4:d1:35:5d:9d:6a:b2:2e:3c:46:71:21:c3:d6:29:0b:06:
         6f:6f:15:e9:37:30:4d:f1:6c:15:e8:71:dd:0e:14:66:c5:99:
         91:52:50:ef:73:30:ad:0c:18:74:c5:cd:7b:3d:4a:f2:46:a7:
         48:05:46:02:22:aa:18:8d:15:f2:e1:8c:e0:9c:94:3a:24:c6:
         bf:07:ac:53:45:8b:ba:8e:d3:3c:38:a7:86:1f:b9:f8:14:10:
         dc:cd:5e:5b:df:dd:25:cf:59:a5:6c:ef:7f:2d:d8:7e:20:8a:
         37:3c:fc:4d:e7:6c:11:f3:68:c1:6d:df:68:ae:19:c1:c9:dc:
         e0:59:1e:22:96:ea:dd:10:c8:70:d2:ed:48:e3:05:de:5a:9a:
         dc:af:75:bc:dd:8d:13:01:31:73:25:dc:96:f3:41:d6:83:00:
         c8:49:2c:e2:41:7e:3a:72:88:c7:1b:22:fc:64:9f:b7:79:43:
         b3:01:fd:5c:5d:75:a0:cd:05:88:ff:34:bf:97:f1:91:d8:3c:
         8e:2f:de:17:cf:e8:e4:3f:21:36:14:2f:bb:80:eb:f5:47:a8:
         43:64:80:fd:73:72:85:9d:3f:6c:54:3e:01:77:37:71:1a:1a:
         d7:78:1b:54:08:f7:5c:8e:39:c2:58:72:8f:ac:11:48:4c:0f:
         60:13:47:35:b6:15:c5:a0:a8:a7:d9:f3:c6:c0:2f:e0:c3:01:
         f3:f2:43:18:ef:84:8a:22:0a:04:24:1c:6e:34:fe:6f:33:c3:
         a5:24:7f:be:ab:3c:5a:a7:07:0a:00:06:65:4d:05:3d:58:40:
         d0:d5:37:a0:c9:4b:51:9f:5f:b9:2f:0d:61:f5:de:4a:5e:e9:
         7c:8b:91:7e:ae:c1:39:89:24:26:58:95:f1:08:0d:3d:11:47:
         59:3e:eb:22:25:6b:98:ac
-----BEGIN CERTIFICATE-----
MIIE6TCCAtGgAwIBAgIBPzANBgkqhkiG9w0BAQUFADBTMRMwEQYKCZImiZPyLGQB
GRYDb3JnMRYwFAYKCZImiZPyLGQBGRYGbW9ucm9lMRAwDgYDVQQLDAdSb290LUNB
MRIwEAYDVQQDDAlSb290LUNBLTEwHhcNMTUxMDE5MDkyNTE3WhcNMTcxMDE4MDky
NTE3WjBuMRMwEQYKCZImiZPyLGQBGRYDb3JnMRYwFAYKCZImiZPyLGQBGRYGbW9u
cm9lMQ8wDQYDVQQKDAZQT0xJVE8xEzARBgNVBAsMCkNvbXBvbmVudHMxGTAXBgNV
BAMMEE1vbnJvZV9Ob2RlXzM0MzQwggEiMA0GCSqGSIb3DQEBAQUAA4IBDwAwggEK
AoIBAQCb5jLsH1w5Ade56J1tQljvfB9gpyX3odUYzTGh4NSp7meKmn3+ezMUWCLz
ZOZK3c1XRaMfhXO2RJr8SuWYUJnDpJZ7kALS11Qsm4xZ1P2DbGhtRrd8DfShyT9s
8HdakjvnKGrFxrTaohNo8YmVfxyeRxy6iAM8D1tmDYeXaaoMAuWuHx6X2cOJsOFV
+8z2sE258ShadmS4JBIhtWmQw0KsmC9bJQaSdxKmH52ApcFH7mWeeisy6WJA+QU8
9p1EF1NxNHwb2DQ3iMPrLObKwAU7uk9Dz8I6l9MWXuJgmJfcxr8Q080KbvsUBDzm
6yKFQMPQuEpUjVOD1KbcfC7TtcL/AgMBAAGjgawwgakwDgYDVR0PAQH/BAQDAgWg
MAkGA1UdEwQCMAAwHQYDVR0lBBYwFAYIKwYBBQUHAwEGCCsGAQUFBwMCMB0GA1Ud
DgQWBBSuOxdPrKcbtXoYgpxi4BoezKJ04DAfBgNVHSMEGDAWgBTY6Bw30NT3JCyE
VuAXCucjqZTKlDAtBgNVHREEJjAkgiJNb25yb2VfTm9kZV8zNDM0LlBPTElUTy5t
b25yb2Uub3JnMA0GCSqGSIb3DQEBBQUAA4ICAQBnbrm0LoctH50aLqmgYPNbGJ1B
KbsEsCCx91Zwp9OEu9qAH9We9gMMmkUlI3bBrjWtbY1+6SitWgUL9HiqVL2l0mKz
8rZefxdTyy40bgpfQCoNiVroWNtWN4Ca6188pDJ2tTauUWgD6lWasO81LMpoiHfz
uVplqafxbs3SSrjpr7FJpxox4HMwfOfGnyXW3Oj4wz1lyY5jJYchnAdKOXikI9A3
9NE1XZ1qsi48RnEhw9YpCwZvbxXpNzBN8WwV6HHdDhRmxZmRUlDvczCtDBh0xc17
PUryRqdIBUYCIqoYjRXy4YzgnJQ6JMa/B6xTRYu6jtM8OKeGH7n4FBDczV5b390l
z1mlbO9/Ldh+IIo3PPxN52wR82jBbd9orhnBydzgWR4ilurdEMhw0u1I4wXeWprc
r3W83Y0TATFzJdyW80HWgwDISSziQX46cojHGyL8ZJ+3eUOzAf1cXXWgzQWI/zS/
l/GR2DyOL94Xz+jkPyE2FC+7gOv1R6hDZID9c3KFnT9sVD4BdzdxGhrXeBtUCPdc
jjnCWHKPrBFITA9gE0c1thXFoKin2fPGwC/gwwHz8kMY74SKIgoEJBxuNP5vM8Ol
JH++qzxapwcKAAZlTQU9WEDQ1TegyUtRn1+5Lw1h9d5KXul8i5F+rsE5iSQmWJXx
CA09EUdZPusiJWuYrA==
-----END CERTIFICATE-----
