Certificate:
    Data:
        Version: 3 (0x2)
        Serial Number: 64 (0x40)
    Signature Algorithm: sha1WithRSAEncryption
        Issuer: DC=org, DC=monroe, OU=Root-CA, CN=Root-CA-1
        Validity
            Not Before: Oct 19 09:26:50 2015 GMT
            Not After : Oct 18 09:26:50 2017 GMT
        Subject: DC=org, DC=monroe, O=POLITO, OU=Components, CN=Monroe_Node_3434
        Subject Public Key Info:
            Public Key Algorithm: rsaEncryption
                Public-Key: (2048 bit)
                Modulus:
                    00:be:e9:5c:b7:49:bc:54:0f:35:e0:94:72:3e:75:
                    1b:f7:5b:18:33:9b:f0:84:8f:8b:22:1a:2c:35:73:
                    b9:11:b6:4e:82:85:70:a6:d5:ff:5a:b6:aa:bd:69:
                    30:8f:e1:d2:c2:eb:60:d2:ba:26:11:94:0c:c8:bb:
                    91:f8:c7:e9:1a:38:33:ac:5c:85:fa:f5:b8:b3:26:
                    f0:14:68:f0:11:da:5a:ef:ed:f6:3a:f4:e7:11:89:
                    94:36:b6:ed:e4:02:d9:85:ed:02:a1:11:cc:b5:1a:
                    33:1f:90:50:04:d6:22:7c:5c:70:04:1c:82:ca:8c:
                    0d:12:5e:bc:35:4c:68:b6:63:1d:20:01:6c:e6:bb:
                    03:09:21:65:4d:13:5d:ef:f5:d8:c2:53:f7:3c:c1:
                    8c:11:11:0c:57:83:57:f1:64:42:81:58:3c:24:90:
                    22:49:d3:90:02:25:fb:ff:76:da:a4:6d:02:04:8f:
                    7f:bc:a3:6b:8b:d3:fc:3e:cd:21:ed:2a:a9:cf:88:
                    30:44:94:ea:90:97:34:56:7f:00:a0:8d:12:95:ce:
                    8a:7a:3a:95:cd:c1:8d:05:e5:98:33:79:ef:30:0d:
                    ed:33:c3:b9:f6:5f:a4:68:bd:22:2a:f9:b3:ab:34:
                    ad:12:a1:90:bd:0b:4f:09:86:09:0b:2d:06:61:8b:
                    6d:ab
                Exponent: 65537 (0x10001)
        X509v3 extensions:
            X509v3 Key Usage: critical
                Digital Signature, Key Encipherment
            X509v3 Basic Constraints: 
                CA:FALSE
            X509v3 Extended Key Usage: 
                TLS Web Server Authentication, TLS Web Client Authentication
            X509v3 Subject Key Identifier: 
                DE:78:49:35:AA:F1:D8:C4:46:3F:DF:58:39:5F:C5:3D:F9:3B:40:56
            X509v3 Authority Key Identifier: 
                keyid:D8:E8:1C:37:D0:D4:F7:24:2C:84:56:E0:17:0A:E7:23:A9:94:CA:94

            X509v3 Subject Alternative Name: 
                DNS:Monroe_Node_3434.POLITO.monroe.org
    Signature Algorithm: sha1WithRSAEncryption
         01:ec:88:fd:61:9d:bf:90:ba:b1:16:53:47:eb:e5:b3:aa:42:
         1e:e7:a0:9f:f3:7f:fe:60:33:75:f2:34:6d:37:41:fd:16:43:
         38:bb:ac:91:2a:c8:b0:33:92:21:99:ad:08:20:95:d5:2b:60:
         c1:a9:36:77:a3:23:98:a2:c2:b8:68:4c:fb:a4:f6:41:7e:69:
         be:0b:c7:16:8c:d4:08:0d:35:73:68:d5:c3:c5:bb:65:44:e4:
         ac:23:5d:70:a4:70:b4:3a:8f:08:f8:eb:33:58:c4:dd:f5:3a:
         f4:e6:a4:2d:ec:3f:9e:fb:db:1e:e2:e3:8b:81:ef:d0:11:bd:
         73:0e:d7:56:5e:07:3a:46:69:29:c9:b9:e0:ae:76:af:6c:3b:
         e2:20:a2:c3:87:63:fb:e5:48:2f:e2:eb:e1:b6:b1:79:9b:1e:
         85:df:05:84:be:1a:26:8f:2b:b0:44:d3:6b:7d:74:c4:e4:99:
         7a:4b:3e:fd:1d:21:63:74:99:e3:b5:0e:74:6f:c2:17:3e:45:
         c9:82:31:b6:c2:18:4e:a5:a3:f9:70:fc:1f:b2:14:dc:a5:c8:
         99:1a:42:87:ed:99:0e:a7:23:a6:09:b2:db:25:05:de:0e:08:
         a1:18:0b:59:ba:bf:28:44:23:8d:ab:6b:dd:1e:bc:05:0e:cb:
         b9:e8:26:b2:0f:b2:64:c0:ab:e1:b5:dd:7a:6c:c0:59:01:44:
         75:87:7e:62:88:52:bd:ed:d6:48:0e:4e:c7:0d:40:e5:c2:5c:
         72:be:b8:6d:ff:d8:40:b8:85:7e:0b:e1:39:e3:96:a6:7b:30:
         54:44:84:d1:cb:19:af:47:ae:be:7e:ea:b2:95:4f:e9:43:c4:
         56:b8:4c:fe:5d:b5:0c:c2:3d:7e:a1:5c:93:82:b8:b8:00:58:
         fa:c3:e6:56:58:6a:22:dd:49:38:91:09:db:bb:35:a1:9b:23:
         b7:36:85:6e:83:bf:b9:e1:b0:20:83:da:3d:20:f4:32:2e:36:
         25:2e:07:d4:c1:87:57:17:49:08:83:20:05:19:81:28:f9:07:
         ba:fe:27:f1:fc:83:13:5b:e8:cb:6b:66:15:af:44:c8:9a:fd:
         57:a6:6c:6b:65:75:87:ff:1a:36:24:7a:92:c5:a2:89:51:b2:
         26:12:92:8a:c3:21:60:00:c6:59:47:18:43:e6:08:23:24:e3:
         01:41:64:3f:34:94:ab:39:60:2d:11:ce:ad:0a:08:68:1f:90:
         9a:1a:41:ae:b1:23:e0:32:a0:99:5e:4b:1e:d8:30:9b:4f:9c:
         a2:3b:4e:f3:d1:24:e1:a1:dd:06:c2:cd:fc:aa:fa:ee:b3:98:
         7f:e4:e3:b7:29:62:33:81
-----BEGIN CERTIFICATE-----
MIIE6TCCAtGgAwIBAgIBQDANBgkqhkiG9w0BAQUFADBTMRMwEQYKCZImiZPyLGQB
GRYDb3JnMRYwFAYKCZImiZPyLGQBGRYGbW9ucm9lMRAwDgYDVQQLDAdSb290LUNB
MRIwEAYDVQQDDAlSb290LUNBLTEwHhcNMTUxMDE5MDkyNjUwWhcNMTcxMDE4MDky
NjUwWjBuMRMwEQYKCZImiZPyLGQBGRYDb3JnMRYwFAYKCZImiZPyLGQBGRYGbW9u
cm9lMQ8wDQYDVQQKDAZQT0xJVE8xEzARBgNVBAsMCkNvbXBvbmVudHMxGTAXBgNV
BAMMEE1vbnJvZV9Ob2RlXzM0MzQwggEiMA0GCSqGSIb3DQEBAQUAA4IBDwAwggEK
AoIBAQC+6Vy3SbxUDzXglHI+dRv3Wxgzm/CEj4siGiw1c7kRtk6ChXCm1f9atqq9
aTCP4dLC62DSuiYRlAzIu5H4x+kaODOsXIX69bizJvAUaPAR2lrv7fY69OcRiZQ2
tu3kAtmF7QKhEcy1GjMfkFAE1iJ8XHAEHILKjA0SXrw1TGi2Yx0gAWzmuwMJIWVN
E13v9djCU/c8wYwREQxXg1fxZEKBWDwkkCJJ05ACJfv/dtqkbQIEj3+8o2uL0/w+
zSHtKqnPiDBElOqQlzRWfwCgjRKVzop6OpXNwY0F5Zgzee8wDe0zw7n2X6RovSIq
+bOrNK0SoZC9C08JhgkLLQZhi22rAgMBAAGjgawwgakwDgYDVR0PAQH/BAQDAgWg
MAkGA1UdEwQCMAAwHQYDVR0lBBYwFAYIKwYBBQUHAwEGCCsGAQUFBwMCMB0GA1Ud
DgQWBBTeeEk1qvHYxEY/31g5X8U9+TtAVjAfBgNVHSMEGDAWgBTY6Bw30NT3JCyE
VuAXCucjqZTKlDAtBgNVHREEJjAkgiJNb25yb2VfTm9kZV8zNDM0LlBPTElUTy5t
b25yb2Uub3JnMA0GCSqGSIb3DQEBBQUAA4ICAQAB7Ij9YZ2/kLqxFlNH6+WzqkIe
56Cf83/+YDN18jRtN0H9FkM4u6yRKsiwM5Ihma0IIJXVK2DBqTZ3oyOYosK4aEz7
pPZBfmm+C8cWjNQIDTVzaNXDxbtlROSsI11wpHC0Oo8I+OszWMTd9Tr05qQt7D+e
+9se4uOLge/QEb1zDtdWXgc6RmkpybngrnavbDviIKLDh2P75Ugv4uvhtrF5mx6F
3wWEvhomjyuwRNNrfXTE5Jl6Sz79HSFjdJnjtQ50b8IXPkXJgjG2whhOpaP5cPwf
shTcpciZGkKH7ZkOpyOmCbLbJQXeDgihGAtZur8oRCONq2vdHrwFDsu56CayD7Jk
wKvhtd16bMBZAUR1h35iiFK97dZIDk7HDUDlwlxyvrht/9hAuIV+C+E545amezBU
RITRyxmvR66+fuqylU/pQ8RWuEz+XbUMwj1+oVyTgri4AFj6w+ZWWGoi3Uk4kQnb
uzWhmyO3NoVug7+54bAgg9o9IPQyLjYlLgfUwYdXF0kIgyAFGYEo+Qe6/ifx/IMT
W+jLa2YVr0TImv1XpmxrZXWH/xo2JHqSxaKJUbImEpKKwyFgAMZZRxhD5ggjJOMB
QWQ/NJSrOWAtEc6tCghoH5CaGkGusSPgMqCZXkse2DCbT5yiO07z0SThod0Gws38
qvrus5h/5OO3KWIzgQ==
-----END CERTIFICATE-----
