Certificate:
    Data:
        Version: 3 (0x2)
        Serial Number: 65 (0x41)
    Signature Algorithm: sha1WithRSAEncryption
        Issuer: DC=org, DC=monroe, OU=Root-CA, CN=Root-CA-1
        Validity
            Not Before: Oct 19 09:30:29 2015 GMT
            Not After : Oct 18 09:30:29 2017 GMT
        Subject: DC=org, DC=monroe, O=POLITO, OU=Components, CN=Monroe_Node_3434
        Subject Public Key Info:
            Public Key Algorithm: rsaEncryption
                Public-Key: (2048 bit)
                Modulus:
                    00:c0:1b:8d:1a:25:0f:64:66:64:34:65:db:19:1a:
                    75:42:53:65:d6:2f:a9:a9:72:48:3d:4b:b2:62:44:
                    11:64:64:1c:6f:4b:55:4d:dd:d8:92:c9:50:6a:1d:
                    fb:e8:cf:f5:21:5f:12:fe:7b:ba:f6:24:ae:d0:c6:
                    48:3d:cc:95:3e:24:9b:e4:28:4c:5b:14:8a:cc:8b:
                    93:0c:a5:7c:0b:83:ac:6c:62:f7:74:95:d3:18:01:
                    4c:08:c7:b7:3c:d4:82:cc:c2:be:e3:59:de:48:2f:
                    e7:47:24:d8:09:80:7d:e5:e6:db:5a:47:21:e5:d7:
                    b5:31:e8:dd:40:c2:5d:a4:98:37:1e:3e:f7:af:fb:
                    33:4c:0a:a1:22:b0:c4:b9:5c:c9:e7:39:d3:e4:12:
                    21:8a:d1:49:ad:62:bb:2c:19:d5:3e:29:36:cb:01:
                    e9:97:71:2c:bd:6e:85:6a:99:8a:ab:75:35:8d:14:
                    00:e2:51:1b:ff:00:24:6f:2d:a7:8e:3a:ef:de:50:
                    8d:2b:7d:99:ff:4c:0a:96:0f:ea:72:3d:2c:1a:b1:
                    5c:f9:54:9f:e6:34:60:33:a7:56:99:a1:81:aa:fc:
                    13:af:2a:30:13:5e:00:9a:7a:c1:7b:97:78:45:37:
                    13:43:e5:b4:34:3b:a5:ca:48:5d:5b:7d:6b:0a:48:
                    90:01
                Exponent: 65537 (0x10001)
        X509v3 extensions:
            X509v3 Key Usage: critical
                Digital Signature, Key Encipherment
            X509v3 Basic Constraints: 
                CA:FALSE
            X509v3 Extended Key Usage: 
                TLS Web Server Authentication, TLS Web Client Authentication
            X509v3 Subject Key Identifier: 
                3E:D3:F2:32:1A:EB:6F:AC:3C:18:6F:17:08:B1:4E:32:D3:72:58:A4
            X509v3 Authority Key Identifier: 
                keyid:D8:E8:1C:37:D0:D4:F7:24:2C:84:56:E0:17:0A:E7:23:A9:94:CA:94

            X509v3 Subject Alternative Name: 
                DNS:Monroe_Node_3434.POLITO.monroe.org
    Signature Algorithm: sha1WithRSAEncryption
         24:db:b0:fb:b9:88:34:39:84:2a:f1:e8:d2:7b:8d:ca:3a:c0:
         ce:3a:f5:e4:46:cd:a3:65:c3:6a:ae:6e:2b:c7:44:a7:d4:08:
         14:ea:e0:fa:db:9b:60:45:c7:6e:9a:aa:68:f9:3e:ae:6d:f8:
         7f:61:d0:18:37:10:1f:88:ae:ba:c4:3d:5e:60:6e:78:30:09:
         23:4e:84:96:4d:12:ca:8f:8b:ef:90:a5:d2:3d:bd:6e:23:b6:
         23:5c:d8:5e:1b:a9:42:5a:b4:65:6e:a1:5c:97:d8:30:f7:8b:
         0a:34:f8:3b:b0:95:2e:c2:a2:f1:c7:21:5e:30:fb:4e:14:07:
         b6:e7:77:13:a2:70:cb:04:36:e9:59:2d:0c:0b:74:24:97:28:
         93:f7:e0:63:85:08:53:f7:fe:9d:a3:27:61:0a:90:8c:fa:44:
         2d:89:d0:55:ab:f5:75:6f:b7:c5:b7:cf:50:9a:f2:e5:42:ba:
         98:db:bd:45:3d:30:49:ec:5e:11:92:11:b7:aa:e8:bb:f9:83:
         d8:58:76:54:4d:78:26:ce:d2:bc:06:cb:25:68:65:ee:0d:3b:
         7b:f9:bd:03:cd:fb:2d:03:23:02:f6:5d:98:e3:60:9d:93:f5:
         5e:14:54:74:09:b1:76:54:d2:04:d8:13:65:40:5b:92:39:7c:
         f2:fb:97:81:af:23:d5:a5:c8:47:cc:64:21:a3:2f:90:82:d6:
         16:0e:76:75:14:ad:75:cc:21:fa:e8:e5:e9:ad:dc:f7:0a:31:
         2e:50:78:c0:57:fe:36:02:36:e9:57:20:ec:5e:d3:68:7c:9a:
         da:3b:82:18:4d:b4:0f:0d:b3:6f:ea:1a:91:5c:e2:cd:01:1d:
         b7:2e:e8:88:79:ae:76:25:fc:a0:dc:2b:de:09:0f:e5:be:85:
         b1:7f:bf:58:12:b4:20:12:c2:fe:bd:81:f1:2d:c1:c4:90:55:
         33:31:10:11:ee:a7:35:39:ba:0c:91:aa:f9:99:62:0e:ba:93:
         64:3d:14:a6:f8:f2:0c:d9:fd:f6:95:2d:ae:6d:25:9e:23:5e:
         c0:11:2d:9e:d3:ba:0a:19:39:96:42:ff:90:15:b5:88:e6:7d:
         c3:5a:46:e6:cd:d3:00:f5:da:2f:b2:81:5e:97:77:fa:26:10:
         52:27:a0:c8:53:dc:7c:7d:c8:2c:b7:31:d1:81:d2:72:f2:bc:
         6c:e8:82:a4:81:d6:3b:7c:25:77:a2:5a:ac:22:96:0d:d3:17:
         3b:a7:2d:e0:f2:14:63:77:2e:f2:ed:98:a0:68:be:4f:c8:5d:
         72:c1:8a:31:f4:4e:01:42:d7:12:f8:58:5e:a6:d3:45:84:b4:
         f7:13:19:08:f6:91:a9:15
-----BEGIN CERTIFICATE-----
MIIE6TCCAtGgAwIBAgIBQTANBgkqhkiG9w0BAQUFADBTMRMwEQYKCZImiZPyLGQB
GRYDb3JnMRYwFAYKCZImiZPyLGQBGRYGbW9ucm9lMRAwDgYDVQQLDAdSb290LUNB
MRIwEAYDVQQDDAlSb290LUNBLTEwHhcNMTUxMDE5MDkzMDI5WhcNMTcxMDE4MDkz
MDI5WjBuMRMwEQYKCZImiZPyLGQBGRYDb3JnMRYwFAYKCZImiZPyLGQBGRYGbW9u
cm9lMQ8wDQYDVQQKDAZQT0xJVE8xEzARBgNVBAsMCkNvbXBvbmVudHMxGTAXBgNV
BAMMEE1vbnJvZV9Ob2RlXzM0MzQwggEiMA0GCSqGSIb3DQEBAQUAA4IBDwAwggEK
AoIBAQDAG40aJQ9kZmQ0ZdsZGnVCU2XWL6mpckg9S7JiRBFkZBxvS1VN3diSyVBq
Hfvoz/UhXxL+e7r2JK7Qxkg9zJU+JJvkKExbFIrMi5MMpXwLg6xsYvd0ldMYAUwI
x7c81ILMwr7jWd5IL+dHJNgJgH3l5ttaRyHl17Ux6N1Awl2kmDcePvev+zNMCqEi
sMS5XMnnOdPkEiGK0UmtYrssGdU+KTbLAemXcSy9boVqmYqrdTWNFADiURv/ACRv
LaeOOu/eUI0rfZn/TAqWD+pyPSwasVz5VJ/mNGAzp1aZoYGq/BOvKjATXgCaesF7
l3hFNxND5bQ0O6XKSF1bfWsKSJABAgMBAAGjgawwgakwDgYDVR0PAQH/BAQDAgWg
MAkGA1UdEwQCMAAwHQYDVR0lBBYwFAYIKwYBBQUHAwEGCCsGAQUFBwMCMB0GA1Ud
DgQWBBQ+0/IyGutvrDwYbxcIsU4y03JYpDAfBgNVHSMEGDAWgBTY6Bw30NT3JCyE
VuAXCucjqZTKlDAtBgNVHREEJjAkgiJNb25yb2VfTm9kZV8zNDM0LlBPTElUTy5t
b25yb2Uub3JnMA0GCSqGSIb3DQEBBQUAA4ICAQAk27D7uYg0OYQq8ejSe43KOsDO
OvXkRs2jZcNqrm4rx0Sn1AgU6uD625tgRcdumqpo+T6ubfh/YdAYNxAfiK66xD1e
YG54MAkjToSWTRLKj4vvkKXSPb1uI7YjXNheG6lCWrRlbqFcl9gw94sKNPg7sJUu
wqLxxyFeMPtOFAe253cTonDLBDbpWS0MC3QklyiT9+BjhQhT9/6doydhCpCM+kQt
idBVq/V1b7fFt89QmvLlQrqY271FPTBJ7F4RkhG3qui7+YPYWHZUTXgmztK8Bssl
aGXuDTt7+b0DzfstAyMC9l2Y42Cdk/VeFFR0CbF2VNIE2BNlQFuSOXzy+5eBryPV
pchHzGQhoy+QgtYWDnZ1FK11zCH66OXprdz3CjEuUHjAV/42AjbpVyDsXtNofJra
O4IYTbQPDbNv6hqRXOLNAR23LuiIea52Jfyg3CveCQ/lvoWxf79YErQgEsL+vYHx
LcHEkFUzMRAR7qc1OboMkar5mWIOupNkPRSm+PIM2f32lS2ubSWeI17AES2e07oK
GTmWQv+QFbWI5n3DWkbmzdMA9dovsoFel3f6JhBSJ6DIU9x8fcgstzHRgdJy8rxs
6IKkgdY7fCV3olqsIpYN0xc7py3g8hRjdy7y7ZigaL5PyF1ywYox9E4BQtcS+Fhe
ptNFhLT3ExkI9pGpFQ==
-----END CERTIFICATE-----
