Certificate:
    Data:
        Version: 3 (0x2)
        Serial Number: 66 (0x42)
    Signature Algorithm: sha1WithRSAEncryption
        Issuer: DC=org, DC=monroe, OU=Root-CA, CN=Root-CA-1
        Validity
            Not Before: Nov  4 15:08:36 2015 GMT
            Not After : Nov  3 15:08:36 2017 GMT
        Subject: DC=org, DC=monroe, O=POLITO, OU=Supervisors, CN=Monroe_Supervisor_POLITO_
        Subject Public Key Info:
            Public Key Algorithm: rsaEncryption
                Public-Key: (2048 bit)
                Modulus:
                    00:da:ec:93:96:aa:83:ac:b7:dc:c6:7e:2a:0e:e3:
                    a0:86:a0:d0:9f:d1:7f:b5:36:94:9a:99:16:b0:32:
                    61:aa:bb:c5:82:9b:4f:03:8a:c8:4a:96:46:3e:7e:
                    df:b8:a5:73:a6:52:48:2d:5f:68:05:88:20:2f:0b:
                    00:26:14:c9:88:ba:d5:87:d5:4a:74:9d:02:9a:15:
                    58:b9:4e:73:d7:66:fd:a1:9a:54:b6:f4:0a:29:25:
                    88:5b:d4:70:f3:27:94:c3:61:eb:d3:9c:f6:4a:f2:
                    07:fc:c3:ff:27:4c:4b:1a:12:16:fe:67:05:54:e3:
                    94:c4:87:94:69:54:04:00:1e:87:eb:93:4a:46:16:
                    4a:c1:15:b9:53:78:8d:01:95:ed:36:55:3f:ac:bc:
                    54:d1:0a:37:b5:9a:52:42:b1:d2:01:68:38:56:e0:
                    02:f2:4b:a9:bf:49:35:e0:07:d4:b1:59:38:85:5b:
                    97:59:93:3b:14:cf:b9:81:93:19:15:bb:64:15:0a:
                    59:07:59:62:9e:e5:0a:b5:f6:9f:21:12:30:6b:bf:
                    63:ed:01:d7:9a:d8:82:d9:90:bd:87:65:8d:61:07:
                    c4:ad:f1:28:ba:ac:d3:3d:29:df:db:56:11:20:6a:
                    04:01:70:93:d5:03:af:41:c4:fc:36:c3:16:50:de:
                    a1:01
                Exponent: 65537 (0x10001)
        X509v3 extensions:
            X509v3 Key Usage: critical
                Digital Signature, Key Encipherment
            X509v3 Basic Constraints: 
                CA:FALSE
            X509v3 Extended Key Usage: 
                TLS Web Server Authentication, TLS Web Client Authentication
            X509v3 Subject Key Identifier: 
                CB:6C:38:C7:DA:D0:25:64:54:D5:75:8B:A8:01:F4:03:DD:0A:0B:0D
            X509v3 Authority Key Identifier: 
                keyid:D8:E8:1C:37:D0:D4:F7:24:2C:84:56:E0:17:0A:E7:23:A9:94:CA:94

            X509v3 Subject Alternative Name: 
                DNS:monroe-repository.polito.it
    Signature Algorithm: sha1WithRSAEncryption
         12:f2:3f:63:e4:97:ea:50:37:8a:0f:55:bd:34:fa:c0:57:78:
         7e:6c:d7:0c:98:a1:00:77:40:0d:a7:f3:1e:b3:61:78:33:5b:
         ce:5c:ef:74:48:a5:fd:a4:6b:f4:58:f4:40:82:96:76:6f:75:
         5f:3c:41:3d:48:84:6f:cc:e6:81:7a:9f:1a:8a:3e:3d:9f:6a:
         ab:c6:7d:aa:2d:d0:a8:2a:08:9e:ea:10:d4:f3:7d:3c:43:f3:
         eb:81:d3:fb:67:b4:9a:b1:19:2d:10:77:21:09:9f:61:69:02:
         0b:bb:6f:2b:eb:11:aa:dc:36:c6:b3:b3:0f:02:3e:c8:7c:f3:
         f5:d1:e7:c6:fb:9d:af:6b:ee:df:4f:20:dd:1c:a3:4f:2c:ac:
         76:0d:f4:e1:4e:76:ff:a1:6e:a6:8b:de:3e:42:01:1c:03:63:
         fa:85:7f:56:e1:63:9f:16:f7:b4:7a:36:12:b1:d3:bc:e7:49:
         68:2b:19:c7:bf:68:76:19:c5:91:8f:1d:dc:18:46:b9:2f:48:
         95:db:69:d3:27:90:e0:f7:e7:ea:85:4b:fd:96:c4:00:78:fc:
         53:b2:22:8f:27:0b:3f:78:a9:ae:7b:aa:10:1e:48:70:eb:58:
         c4:2f:86:2e:df:db:2e:56:f9:65:1c:87:a6:5b:be:8e:5e:8c:
         15:c8:11:dd:a3:9f:59:55:f4:84:34:df:f8:61:a8:9c:db:d6:
         e6:ad:8c:49:24:18:d2:bc:5d:67:f1:99:8b:da:7d:65:36:d2:
         a4:ff:0e:62:ff:ae:89:c0:e5:ac:82:17:c9:45:ca:cb:38:1d:
         3e:a1:63:fd:30:8a:9e:50:a2:5e:ce:f2:59:19:56:58:24:fe:
         00:2a:ef:29:7d:ad:c1:55:59:96:47:4d:e1:5a:b8:08:97:02:
         9e:d8:0b:d7:3f:3b:de:89:2a:23:f5:b9:38:c5:69:8c:14:8e:
         73:e0:a9:5a:15:b3:8f:43:8d:f4:54:fd:32:93:e8:ef:35:d4:
         7c:d6:c5:07:89:09:b9:63:ea:a7:16:eb:fb:54:1f:3e:70:f8:
         63:6d:6f:91:61:19:32:f1:70:51:32:8f:d6:2c:5a:f0:b8:72:
         3b:d3:1c:22:0b:09:53:60:ec:ae:44:00:ee:70:e3:cf:8d:9a:
         8b:79:6a:a3:3d:0c:e2:db:3f:bb:8a:f2:d7:20:c1:c5:3a:b8:
         15:b0:ae:c9:65:35:e2:67:88:a0:06:1a:83:63:56:48:ba:89:
         11:4b:c5:42:67:06:07:a8:52:b3:f9:d3:98:83:93:67:06:d6:
         fa:80:02:74:8b:b1:56:fa:a4:b3:3c:d3:da:bf:35:9d:34:f8:
         34:9c:a6:c2:8a:46:4a:f1
-----BEGIN CERTIFICATE-----
MIIE7DCCAtSgAwIBAgIBQjANBgkqhkiG9w0BAQUFADBTMRMwEQYKCZImiZPyLGQB
GRYDb3JnMRYwFAYKCZImiZPyLGQBGRYGbW9ucm9lMRAwDgYDVQQLDAdSb290LUNB
MRIwEAYDVQQDDAlSb290LUNBLTEwHhcNMTUxMTA0MTUwODM2WhcNMTcxMTAzMTUw
ODM2WjB4MRMwEQYKCZImiZPyLGQBGRYDb3JnMRYwFAYKCZImiZPyLGQBGRYGbW9u
cm9lMQ8wDQYDVQQKDAZQT0xJVE8xFDASBgNVBAsMC1N1cGVydmlzb3JzMSIwIAYD
VQQDDBlNb25yb2VfU3VwZXJ2aXNvcl9QT0xJVE9fMIIBIjANBgkqhkiG9w0BAQEF
AAOCAQ8AMIIBCgKCAQEA2uyTlqqDrLfcxn4qDuOghqDQn9F/tTaUmpkWsDJhqrvF
gptPA4rISpZGPn7fuKVzplJILV9oBYggLwsAJhTJiLrVh9VKdJ0CmhVYuU5z12b9
oZpUtvQKKSWIW9Rw8yeUw2Hr05z2SvIH/MP/J0xLGhIW/mcFVOOUxIeUaVQEAB6H
65NKRhZKwRW5U3iNAZXtNlU/rLxU0Qo3tZpSQrHSAWg4VuAC8kupv0k14AfUsVk4
hVuXWZM7FM+5gZMZFbtkFQpZB1linuUKtfafIRIwa79j7QHXmtiC2ZC9h2WNYQfE
rfEouqzTPSnf21YRIGoEAXCT1QOvQcT8NsMWUN6hAQIDAQABo4GlMIGiMA4GA1Ud
DwEB/wQEAwIFoDAJBgNVHRMEAjAAMB0GA1UdJQQWMBQGCCsGAQUFBwMBBggrBgEF
BQcDAjAdBgNVHQ4EFgQUy2w4x9rQJWRU1XWLqAH0A90KCw0wHwYDVR0jBBgwFoAU
2OgcN9DU9yQshFbgFwrnI6mUypQwJgYDVR0RBB8wHYIbbW9ucm9lLXJlcG9zaXRv
cnkucG9saXRvLml0MA0GCSqGSIb3DQEBBQUAA4ICAQAS8j9j5JfqUDeKD1W9NPrA
V3h+bNcMmKEAd0ANp/Mes2F4M1vOXO90SKX9pGv0WPRAgpZ2b3VfPEE9SIRvzOaB
ep8aij49n2qrxn2qLdCoKgie6hDU8308Q/PrgdP7Z7SasRktEHchCZ9haQILu28r
6xGq3DbGs7MPAj7IfPP10efG+52va+7fTyDdHKNPLKx2DfThTnb/oW6mi94+QgEc
A2P6hX9W4WOfFve0ejYSsdO850loKxnHv2h2GcWRjx3cGEa5L0iV22nTJ5Dg9+fq
hUv9lsQAePxTsiKPJws/eKmue6oQHkhw61jEL4Yu39suVvllHIemW76OXowVyBHd
o59ZVfSENN/4Yaic29bmrYxJJBjSvF1n8ZmL2n1lNtKk/w5i/66JwOWsghfJRcrL
OB0+oWP9MIqeUKJezvJZGVZYJP4AKu8pfa3BVVmWR03hWrgIlwKe2AvXPzveiSoj
9bk4xWmMFI5z4KlaFbOPQ430VP0yk+jvNdR81sUHiQm5Y+qnFuv7VB8+cPhjbW+R
YRky8XBRMo/WLFrwuHI70xwiCwlTYOyuRADucOPPjZqLeWqjPQzi2z+7ivLXIMHF
OrgVsK7JZTXiZ4igBhqDY1ZIuokRS8VCZwYHqFKz+dOYg5NnBtb6gAJ0i7FW+qSz
PNPavzWdNPg0nKbCikZK8Q==
-----END CERTIFICATE-----
