Certificate:
    Data:
        Version: 3 (0x2)
        Serial Number: 67 (0x43)
    Signature Algorithm: sha1WithRSAEncryption
        Issuer: DC=org, DC=monroe, OU=Root-CA, CN=Root-CA-1
        Validity
            Not Before: Nov  4 15:10:19 2015 GMT
            Not After : Nov  3 15:10:19 2017 GMT
        Subject: DC=org, DC=monroe, O=POLITO, OU=Supervisors, CN=Monroe_Supervisor_POLITO_1
        Subject Public Key Info:
            Public Key Algorithm: rsaEncryption
                Public-Key: (2048 bit)
                Modulus:
                    00:af:74:c3:ac:90:53:51:49:3d:f4:eb:a1:7e:99:
                    95:c7:b3:50:7d:ef:63:fe:7b:37:f4:ea:b6:25:79:
                    53:40:df:30:af:37:05:cd:bb:9c:36:ac:92:10:74:
                    4a:ec:02:06:ea:2d:9d:c1:22:93:c9:5a:71:99:a0:
                    92:4b:10:5d:8f:ec:c7:30:c6:f7:03:82:dd:bd:25:
                    af:f0:be:58:e6:a4:29:66:58:69:b1:2d:93:9e:2a:
                    9a:49:1e:8c:ad:0e:53:c8:a7:da:82:96:2f:27:aa:
                    3f:45:eb:21:74:c0:d3:5d:aa:87:80:bb:e6:13:9a:
                    a4:ac:75:cf:a1:6e:e4:9d:8f:ba:f9:a7:5b:2f:93:
                    34:b0:67:ae:2e:84:22:90:98:b0:79:3b:cb:eb:58:
                    46:36:e7:de:8a:02:2a:92:f5:c5:04:23:30:7d:09:
                    05:6d:da:c8:2d:56:d9:06:f0:c8:87:e5:a7:54:19:
                    47:1d:b2:ef:ed:63:c1:09:b9:47:f5:cf:89:dc:57:
                    48:d2:a6:fe:f3:9d:62:20:b4:8a:6b:e8:75:74:5d:
                    3b:fe:b2:2b:f5:01:5b:8b:43:98:c7:09:2b:13:20:
                    84:23:36:fd:29:7f:22:a0:1d:30:34:6b:2e:36:ef:
                    8d:d7:2e:d4:6c:37:05:83:72:4b:ce:e4:83:16:3f:
                    d1:c9
                Exponent: 65537 (0x10001)
        X509v3 extensions:
            X509v3 Key Usage: critical
                Digital Signature, Key Encipherment
            X509v3 Basic Constraints: 
                CA:FALSE
            X509v3 Extended Key Usage: 
                TLS Web Server Authentication, TLS Web Client Authentication
            X509v3 Subject Key Identifier: 
                7A:A9:65:40:9C:43:69:DA:2A:5D:7F:9C:8A:FB:C5:83:D2:B0:11:BF
            X509v3 Authority Key Identifier: 
                keyid:D8:E8:1C:37:D0:D4:F7:24:2C:84:56:E0:17:0A:E7:23:A9:94:CA:94

            X509v3 Subject Alternative Name: 
                DNS:monroe-repository.polito.it
    Signature Algorithm: sha1WithRSAEncryption
         11:24:34:44:39:7e:c5:89:a7:87:4b:24:e5:33:f2:08:d9:3c:
         b9:e1:5c:3c:2e:5e:f9:aa:58:34:74:0a:5d:ec:cd:c1:c0:54:
         99:2f:88:8b:fa:43:2c:be:c3:e6:d2:2e:60:8a:1e:78:4b:e5:
         8b:3b:80:3e:28:bd:e6:46:ef:20:3f:0e:af:a1:f2:30:6d:b9:
         71:f8:ce:cc:19:36:3a:70:bb:55:e9:be:ac:a8:9d:3b:48:3c:
         07:37:56:44:f0:df:a7:13:3e:7a:21:d2:d1:b7:2e:ab:47:9d:
         ef:f9:bc:5e:d0:a3:c9:32:15:f3:10:68:c2:ce:c6:18:6b:91:
         8d:81:69:40:51:d7:0f:25:c7:6a:da:c5:7e:1c:72:f2:c7:a2:
         95:1c:66:5d:34:f4:0d:de:d3:7e:0d:ca:03:75:cb:cd:d3:1a:
         49:87:e8:64:e4:19:b4:ae:ed:0b:cd:90:95:27:64:e3:6b:45:
         68:12:96:47:3c:6f:67:7b:fd:d5:13:f0:92:13:7a:51:e9:00:
         19:a7:98:b1:c4:46:6e:fa:e5:90:8b:28:65:20:bd:e2:0c:43:
         9d:ba:7f:58:d5:2d:aa:f7:be:f8:fe:8b:5b:7e:d0:a9:36:08:
         81:f9:41:c0:ce:9e:a1:e5:6f:bb:21:2a:ae:1a:d7:dc:ef:b4:
         d0:81:97:05:07:3a:59:e0:80:b6:01:5e:f5:59:52:32:e3:ff:
         16:ad:54:32:22:1b:bb:1c:0e:f6:ca:58:70:77:7a:11:49:31:
         96:df:72:a1:63:11:73:8d:9b:80:0d:1c:16:45:25:32:2a:85:
         aa:7b:dd:cc:f9:e7:ba:48:0f:ad:0b:42:e6:7b:0b:c0:7a:88:
         02:03:c7:3a:23:6f:92:41:a6:86:9d:53:dd:e4:65:71:f9:d4:
         84:b7:f7:c0:e1:f6:81:b2:34:e3:df:38:f8:d7:7f:0a:39:ea:
         66:a9:07:54:4a:5e:65:13:c9:75:78:1f:ad:f5:36:c7:d1:3c:
         4e:2d:8d:c7:2d:42:e2:cf:3a:c0:af:aa:a4:d5:e6:99:fa:c9:
         e4:72:81:97:d4:a7:9a:27:58:04:bc:ab:d3:77:90:90:64:41:
         86:ae:fb:37:2a:18:f2:ec:af:48:70:dd:d8:73:ad:82:75:65:
         c7:07:5e:da:9e:15:9f:20:7d:f2:99:5e:0c:1a:77:b5:9d:b9:
         9b:d7:61:72:90:4c:e0:50:34:28:a4:c3:74:8d:78:48:ba:25:
         d9:1f:4a:ca:10:f6:02:40:9d:43:40:54:3f:3b:88:99:61:e1:
         60:0c:ca:30:0b:24:c8:40:13:6c:bf:6c:31:89:13:44:d6:d5:
         e3:84:4c:d2:61:04:1f:25
-----BEGIN CERTIFICATE-----
MIIE7TCCAtWgAwIBAgIBQzANBgkqhkiG9w0BAQUFADBTMRMwEQYKCZImiZPyLGQB
GRYDb3JnMRYwFAYKCZImiZPyLGQBGRYGbW9ucm9lMRAwDgYDVQQLDAdSb290LUNB
MRIwEAYDVQQDDAlSb290LUNBLTEwHhcNMTUxMTA0MTUxMDE5WhcNMTcxMTAzMTUx
MDE5WjB5MRMwEQYKCZImiZPyLGQBGRYDb3JnMRYwFAYKCZImiZPyLGQBGRYGbW9u
cm9lMQ8wDQYDVQQKDAZQT0xJVE8xFDASBgNVBAsMC1N1cGVydmlzb3JzMSMwIQYD
VQQDDBpNb25yb2VfU3VwZXJ2aXNvcl9QT0xJVE9fMTCCASIwDQYJKoZIhvcNAQEB
BQADggEPADCCAQoCggEBAK90w6yQU1FJPfTroX6ZlcezUH3vY/57N/TqtiV5U0Df
MK83Bc27nDaskhB0SuwCBuotncEik8lacZmgkksQXY/sxzDG9wOC3b0lr/C+WOak
KWZYabEtk54qmkkejK0OU8in2oKWLyeqP0XrIXTA012qh4C75hOapKx1z6Fu5J2P
uvmnWy+TNLBnri6EIpCYsHk7y+tYRjbn3ooCKpL1xQQjMH0JBW3ayC1W2QbwyIfl
p1QZRx2y7+1jwQm5R/XPidxXSNKm/vOdYiC0imvodXRdO/6yK/UBW4tDmMcJKxMg
hCM2/Sl/IqAdMDRrLjbvjdcu1Gw3BYNyS87kgxY/0ckCAwEAAaOBpTCBojAOBgNV
HQ8BAf8EBAMCBaAwCQYDVR0TBAIwADAdBgNVHSUEFjAUBggrBgEFBQcDAQYIKwYB
BQUHAwIwHQYDVR0OBBYEFHqpZUCcQ2naKl1/nIr7xYPSsBG/MB8GA1UdIwQYMBaA
FNjoHDfQ1PckLIRW4BcK5yOplMqUMCYGA1UdEQQfMB2CG21vbnJvZS1yZXBvc2l0
b3J5LnBvbGl0by5pdDANBgkqhkiG9w0BAQUFAAOCAgEAESQ0RDl+xYmnh0sk5TPy
CNk8ueFcPC5e+apYNHQKXezNwcBUmS+Ii/pDLL7D5tIuYIoeeEvlizuAPii95kbv
ID8Or6HyMG25cfjOzBk2OnC7Vem+rKidO0g8BzdWRPDfpxM+eiHS0bcuq0ed7/m8
XtCjyTIV8xBows7GGGuRjYFpQFHXDyXHatrFfhxy8seilRxmXTT0Dd7Tfg3KA3XL
zdMaSYfoZOQZtK7tC82QlSdk42tFaBKWRzxvZ3v91RPwkhN6UekAGaeYscRGbvrl
kIsoZSC94gxDnbp/WNUtqve++P6LW37QqTYIgflBwM6eoeVvuyEqrhrX3O+00IGX
BQc6WeCAtgFe9VlSMuP/Fq1UMiIbuxwO9spYcHd6EUkxlt9yoWMRc42bgA0cFkUl
MiqFqnvdzPnnukgPrQtC5nsLwHqIAgPHOiNvkkGmhp1T3eRlcfnUhLf3wOH2gbI0
4984+Nd/CjnqZqkHVEpeZRPJdXgfrfU2x9E8Ti2Nxy1C4s86wK+qpNXmmfrJ5HKB
l9SnmidYBLyr03eQkGRBhq77NyoY8uyvSHDd2HOtgnVlxwde2p4VnyB98pleDBp3
tZ25m9dhcpBM4FA0KKTDdI14SLol2R9KyhD2AkCdQ0BUPzuImWHhYAzKMAskyEAT
bL9sMYkTRNbV44RM0mEEHyU=
-----END CERTIFICATE-----
