Certificate:
    Data:
        Version: 3 (0x2)
        Serial Number: 68 (0x44)
    Signature Algorithm: sha1WithRSAEncryption
        Issuer: DC=org, DC=monroe, OU=Root-CA, CN=Root-CA-1
        Validity
            Not Before: Nov  4 15:13:11 2015 GMT
            Not After : Nov  3 15:13:11 2017 GMT
        Subject: DC=org, DC=monroe, O=POLITO, OU=Supervisors, CN=Monroe_Supervisor_POLITO_1
        Subject Public Key Info:
            Public Key Algorithm: rsaEncryption
                Public-Key: (2048 bit)
                Modulus:
                    00:d1:da:da:b8:15:4d:dd:85:9e:93:65:69:52:a7:
                    3a:65:35:68:e3:51:38:4e:ca:c5:1b:ba:66:7d:bd:
                    e6:fb:6a:b5:44:05:f9:89:4d:8a:dc:0e:17:d3:99:
                    e4:69:65:a2:12:0a:16:99:5f:9b:c1:a1:2a:be:71:
                    04:30:3b:5b:5a:bd:37:55:ee:89:c8:71:00:13:43:
                    a8:49:95:13:6e:8f:58:02:a1:f0:9b:f4:26:13:6c:
                    a4:31:8d:62:24:26:51:fa:43:c5:0b:bf:0e:a4:d3:
                    9f:8d:01:d1:e9:a3:a8:b9:25:cd:d8:eb:ca:0a:bc:
                    56:44:1d:a4:6b:28:25:71:27:77:8a:c6:8b:8a:24:
                    e6:16:64:40:9c:a3:0b:a2:76:e2:84:81:46:e4:aa:
                    03:5b:ef:b5:76:7e:8d:de:8f:14:70:49:f7:dc:ff:
                    51:d3:88:8d:c5:d2:8e:81:ed:3d:e7:d3:86:bf:ef:
                    aa:a7:dd:a6:2b:d1:1e:2a:89:ae:79:cc:bc:9e:70:
                    0b:67:e2:9d:df:42:44:fe:d1:f3:07:bf:e4:23:93:
                    b9:f7:f6:ff:b1:b7:0e:72:d0:ab:70:08:95:e6:a2:
                    dc:16:2f:f6:8b:7a:da:5b:61:60:79:2c:eb:1f:eb:
                    c3:b4:51:41:d9:ef:61:b3:ed:f0:bd:b8:75:b6:64:
                    05:67
                Exponent: 65537 (0x10001)
        X509v3 extensions:
            X509v3 Key Usage: critical
                Digital Signature, Key Encipherment
            X509v3 Basic Constraints: 
                CA:FALSE
            X509v3 Extended Key Usage: 
                TLS Web Server Authentication, TLS Web Client Authentication
            X509v3 Subject Key Identifier: 
                C7:BF:8A:4E:C1:E1:02:9B:F6:4D:35:FD:E2:E1:9A:AC:4A:75:33:AE
            X509v3 Authority Key Identifier: 
                keyid:D8:E8:1C:37:D0:D4:F7:24:2C:84:56:E0:17:0A:E7:23:A9:94:CA:94

            X509v3 Subject Alternative Name: 
                DNS:monroe-repository.polito.it
    Signature Algorithm: sha1WithRSAEncryption
         b4:67:c3:21:44:f3:bb:a2:84:fb:97:9f:37:10:08:95:9e:ee:
         cb:82:1c:ae:a8:e3:a9:4d:5a:24:a7:4c:c4:fd:14:e3:56:77:
         8c:e4:3a:25:5b:93:37:a1:d6:19:28:f7:53:dd:a2:73:ac:d5:
         54:cc:51:03:3d:36:dd:f8:a5:e1:56:d0:c8:08:7a:c4:60:62:
         e3:cb:4d:a3:04:0f:65:48:27:d3:13:4c:1e:63:75:38:c7:cf:
         87:5c:99:d3:5f:45:f9:38:b4:19:01:12:d4:74:5b:c5:a3:37:
         2e:48:07:3e:0a:85:5c:b1:45:99:02:bc:3a:98:81:e3:b0:e1:
         47:36:26:68:8c:4e:00:7a:65:4a:e2:a6:05:6a:b9:3e:ad:e1:
         04:89:bc:05:97:3a:bf:4e:96:cb:9b:4b:fc:60:88:21:ec:cc:
         fb:28:3d:21:68:eb:e1:04:2f:51:8a:ae:4a:42:8e:ac:54:5e:
         ed:ab:9d:93:3b:99:09:14:b0:41:a6:e9:71:60:77:47:37:5f:
         f3:0e:ed:9c:c7:38:a2:18:28:7e:92:ab:d2:2d:d8:9b:5f:80:
         c5:10:b6:02:59:1d:bb:d0:cd:66:7c:08:42:b5:3c:57:e1:32:
         84:40:2b:03:b6:dd:39:fc:29:ec:3a:b8:60:2c:d4:1c:3d:b2:
         a2:58:cc:0b:06:98:90:3b:80:5e:74:ca:1a:83:b1:4b:24:26:
         c7:f2:21:8a:26:e6:2b:b4:27:82:3e:b7:db:99:f0:74:31:9c:
         c6:3f:3f:0b:44:b2:1f:15:af:c5:09:68:68:cd:b7:51:98:23:
         5c:ce:cb:bd:1f:54:30:b7:f7:71:fc:e9:a5:ef:4f:29:f1:70:
         36:43:b6:d2:ab:ad:cf:de:74:f8:3e:20:cb:0b:44:1f:f1:fc:
         ea:d4:11:fe:01:1a:36:d1:5c:65:40:bb:87:26:eb:3f:0d:5a:
         41:cb:b1:b1:be:2e:4e:f8:7f:0d:6d:cc:d4:e0:64:39:ee:4f:
         0a:2d:d2:42:f1:5d:a6:dd:50:bb:16:c8:64:e9:8c:ed:e9:4f:
         8c:66:c0:f0:5d:8e:61:af:38:89:c5:82:89:ad:85:4c:5c:77:
         e4:3b:73:56:2d:e4:f8:68:ba:da:9b:ab:ab:2f:69:3d:c9:25:
         63:d7:61:53:16:2a:78:1e:44:1e:6e:61:84:59:dd:6d:d2:11:
         06:8a:b3:51:b1:95:a3:f1:a9:b7:1f:9b:0e:1c:f4:45:58:a4:
         79:71:be:2e:5d:cd:82:84:5d:be:37:d6:c2:c4:92:06:92:5c:
         57:88:cf:57:0d:f7:3f:26:ba:2b:ca:b1:ae:87:ed:71:1e:40:
         7f:a7:39:c9:23:db:5a:4d
-----BEGIN CERTIFICATE-----
MIIE7TCCAtWgAwIBAgIBRDANBgkqhkiG9w0BAQUFADBTMRMwEQYKCZImiZPyLGQB
GRYDb3JnMRYwFAYKCZImiZPyLGQBGRYGbW9ucm9lMRAwDgYDVQQLDAdSb290LUNB
MRIwEAYDVQQDDAlSb290LUNBLTEwHhcNMTUxMTA0MTUxMzExWhcNMTcxMTAzMTUx
MzExWjB5MRMwEQYKCZImiZPyLGQBGRYDb3JnMRYwFAYKCZImiZPyLGQBGRYGbW9u
cm9lMQ8wDQYDVQQKDAZQT0xJVE8xFDASBgNVBAsMC1N1cGVydmlzb3JzMSMwIQYD
VQQDDBpNb25yb2VfU3VwZXJ2aXNvcl9QT0xJVE9fMTCCASIwDQYJKoZIhvcNAQEB
BQADggEPADCCAQoCggEBANHa2rgVTd2FnpNlaVKnOmU1aONROE7KxRu6Zn295vtq
tUQF+YlNitwOF9OZ5GllohIKFplfm8GhKr5xBDA7W1q9N1XuichxABNDqEmVE26P
WAKh8Jv0JhNspDGNYiQmUfpDxQu/DqTTn40B0emjqLklzdjrygq8VkQdpGsoJXEn
d4rGi4ok5hZkQJyjC6J24oSBRuSqA1vvtXZ+jd6PFHBJ99z/UdOIjcXSjoHtPefT
hr/vqqfdpivRHiqJrnnMvJ5wC2find9CRP7R8we/5COTuff2/7G3DnLQq3AIleai
3BYv9ot62lthYHks6x/rw7RRQdnvYbPt8L24dbZkBWcCAwEAAaOBpTCBojAOBgNV
HQ8BAf8EBAMCBaAwCQYDVR0TBAIwADAdBgNVHSUEFjAUBggrBgEFBQcDAQYIKwYB
BQUHAwIwHQYDVR0OBBYEFMe/ik7B4QKb9k01/eLhmqxKdTOuMB8GA1UdIwQYMBaA
FNjoHDfQ1PckLIRW4BcK5yOplMqUMCYGA1UdEQQfMB2CG21vbnJvZS1yZXBvc2l0
b3J5LnBvbGl0by5pdDANBgkqhkiG9w0BAQUFAAOCAgEAtGfDIUTzu6KE+5efNxAI
lZ7uy4IcrqjjqU1aJKdMxP0U41Z3jOQ6JVuTN6HWGSj3U92ic6zVVMxRAz023fil
4VbQyAh6xGBi48tNowQPZUgn0xNMHmN1OMfPh1yZ019F+Ti0GQES1HRbxaM3LkgH
PgqFXLFFmQK8OpiB47DhRzYmaIxOAHplSuKmBWq5Pq3hBIm8BZc6v06Wy5tL/GCI
IezM+yg9IWjr4QQvUYquSkKOrFRe7audkzuZCRSwQabpcWB3Rzdf8w7tnMc4ohgo
fpKr0i3Ym1+AxRC2Alkdu9DNZnwIQrU8V+EyhEArA7bdOfwp7Dq4YCzUHD2yoljM
CwaYkDuAXnTKGoOxSyQmx/IhiibmK7Qngj6325nwdDGcxj8/C0SyHxWvxQloaM23
UZgjXM7LvR9UMLf3cfzppe9PKfFwNkO20qutz950+D4gywtEH/H86tQR/gEaNtFc
ZUC7hybrPw1aQcuxsb4uTvh/DW3M1OBkOe5PCi3SQvFdpt1QuxbIZOmM7elPjGbA
8F2OYa84icWCia2FTFx35DtzVi3k+Gi62purqy9pPcklY9dhUxYqeB5EHm5hhFnd
bdIRBoqzUbGVo/Gptx+bDhz0RVikeXG+Ll3NgoRdvjfWwsSSBpJcV4jPVw33Pya6
K8qxroftcR5Af6c5ySPbWk0=
-----END CERTIFICATE-----
