Certificate:
    Data:
        Version: 3 (0x2)
        Serial Number: 71 (0x47)
    Signature Algorithm: sha1WithRSAEncryption
        Issuer: DC=org, DC=monroe, OU=Root-CA, CN=Root-CA-1
        Validity
            Not Before: Nov  5 15:57:54 2015 GMT
            Not After : Nov  4 15:57:54 2017 GMT
        Subject: DC=org, DC=monroe, O=POLITO, OU=Components, CN=Monroe_Node_110
        Subject Public Key Info:
            Public Key Algorithm: rsaEncryption
                Public-Key: (2048 bit)
                Modulus:
                    00:df:2c:84:62:0a:d4:22:f2:b6:75:5d:d8:2d:68:
                    2e:91:9a:14:4d:c9:e1:56:c7:d1:dd:46:bb:cc:e4:
                    03:73:26:69:3d:af:00:1d:d5:1b:4c:15:fe:d4:9a:
                    28:9b:c4:66:de:a7:81:cc:1f:f5:6d:be:19:65:41:
                    be:94:31:ba:c0:37:08:d7:d7:82:da:30:8d:b1:5f:
                    1a:e6:23:6b:80:6f:7e:22:99:d2:9a:38:6e:1d:4c:
                    2c:a3:26:fe:8e:2f:b8:60:e2:76:c2:b0:bb:ca:83:
                    1f:86:9f:ac:30:de:9e:d1:48:96:2b:31:10:1b:c4:
                    54:d0:f7:69:4d:13:1b:19:f2:cd:2e:27:04:05:3c:
                    ce:ef:f6:e8:cc:5d:cd:1b:17:2b:5f:b4:17:d5:7f:
                    56:98:f6:ed:3e:dd:10:60:03:30:c9:11:e2:a6:c3:
                    59:ae:8d:b2:ff:46:58:e0:a1:7a:08:c6:68:60:b2:
                    b7:69:ff:d0:41:5b:a1:94:e1:94:78:2a:1a:b4:d1:
                    ce:f7:30:d1:64:c5:3b:31:8b:c0:98:69:ab:15:92:
                    dd:48:2a:a0:7f:96:e9:d4:dd:ca:2c:05:73:10:ee:
                    49:9d:1c:70:e8:31:9a:4a:56:7d:d4:99:ce:07:0d:
                    fe:4f:d7:e1:7e:5e:dc:7e:23:21:c4:9e:40:3c:7c:
                    4d:5b
                Exponent: 65537 (0x10001)
        X509v3 extensions:
            X509v3 Key Usage: critical
                Digital Signature, Key Encipherment
            X509v3 Basic Constraints: 
                CA:FALSE
            X509v3 Extended Key Usage: 
                TLS Web Server Authentication, TLS Web Client Authentication
            X509v3 Subject Key Identifier: 
                FA:2F:FE:E8:FC:7D:D2:6F:F0:4E:07:ED:8F:7E:6E:C8:02:2E:7A:B0
            X509v3 Authority Key Identifier: 
                keyid:D8:E8:1C:37:D0:D4:F7:24:2C:84:56:E0:17:0A:E7:23:A9:94:CA:94

            X509v3 Subject Alternative Name: 
                DNS:Monroe_Node_110.POLITO.monroe.org
    Signature Algorithm: sha1WithRSAEncryption
         3a:ff:93:90:d2:a8:8c:4e:a0:dc:2a:b7:25:59:a7:88:86:12:
         84:d8:64:0f:b8:af:f8:c7:76:72:25:7c:71:a2:df:b3:26:c6:
         2b:e6:2d:69:f4:ca:1f:1d:8e:d3:5a:9a:2e:74:f3:26:55:44:
         52:ec:2b:6d:7c:b3:a7:bd:ca:2f:05:16:69:24:22:03:18:59:
         84:a8:ac:bd:e8:e1:7e:16:3e:cf:56:86:b2:62:2f:a3:c9:d4:
         79:6d:68:b1:59:82:6c:23:5e:99:dc:31:81:a6:3b:34:13:c1:
         ac:46:12:e9:cf:93:28:49:a6:82:15:ec:0a:b5:d9:cc:ad:34:
         7d:d7:40:eb:27:de:0b:df:c8:84:a4:34:72:44:ae:2b:dd:27:
         c9:4f:f0:d6:aa:f8:60:7d:da:79:0b:60:be:99:f4:ba:eb:aa:
         8b:d2:98:df:3e:7e:95:63:58:fa:57:17:fa:b5:7e:5b:51:0d:
         43:4e:9d:0a:9d:54:4d:51:90:71:de:20:5e:59:cf:79:44:62:
         d5:e4:f5:04:88:9b:01:45:22:ba:94:ee:e1:1f:77:35:26:25:
         65:fa:95:8a:d5:f2:2f:0e:f3:9d:dc:fd:7b:c2:5a:92:22:53:
         1c:2e:21:93:d9:44:9c:2e:44:2c:53:45:f2:3b:12:06:66:7e:
         ae:7c:0f:90:e8:13:70:4f:fe:0e:15:f3:4d:d1:64:e4:fa:71:
         c5:45:c0:cc:34:04:48:da:06:46:1e:de:b4:cc:39:13:c8:bf:
         b4:0c:f6:f2:24:f1:95:75:33:ee:f5:67:22:6c:8e:ab:9d:5e:
         e1:94:91:2d:7e:c7:c9:bf:e2:e2:62:d8:49:2f:d3:38:92:cc:
         d0:52:46:4c:26:85:41:8a:1f:4e:58:74:9c:a4:50:57:85:cb:
         17:72:e5:95:71:5b:bd:9b:b7:a5:f1:0d:26:30:ae:98:1f:c7:
         73:c2:ce:0b:cd:71:eb:d7:6b:56:5f:71:d6:fe:33:d2:43:d8:
         f1:95:91:1d:c7:a1:2c:d1:cb:91:db:3f:4a:a4:be:56:a9:cb:
         29:a8:c1:f7:5b:0b:66:3d:a9:72:ad:93:7c:e2:5d:1f:5e:e4:
         68:e5:91:10:32:b6:08:b1:07:91:f5:98:c8:97:01:1e:27:c2:
         6f:eb:2d:6e:27:29:0b:7a:18:2c:22:42:0b:77:5b:1f:f7:93:
         0d:0e:51:5b:2f:b7:ec:c5:bb:1c:df:05:59:89:37:9c:b0:73:
         0f:5c:6e:29:cc:79:5e:e8:49:5e:f5:c1:53:d9:b8:c3:6c:c6:
         64:6e:6a:5c:be:85:e1:95:e6:57:c5:af:e1:25:8c:4f:01:96:
         b2:55:b1:95:54:0a:31:af
-----BEGIN CERTIFICATE-----
MIIE5zCCAs+gAwIBAgIBRzANBgkqhkiG9w0BAQUFADBTMRMwEQYKCZImiZPyLGQB
GRYDb3JnMRYwFAYKCZImiZPyLGQBGRYGbW9ucm9lMRAwDgYDVQQLDAdSb290LUNB
MRIwEAYDVQQDDAlSb290LUNBLTEwHhcNMTUxMTA1MTU1NzU0WhcNMTcxMTA0MTU1
NzU0WjBtMRMwEQYKCZImiZPyLGQBGRYDb3JnMRYwFAYKCZImiZPyLGQBGRYGbW9u
cm9lMQ8wDQYDVQQKDAZQT0xJVE8xEzARBgNVBAsMCkNvbXBvbmVudHMxGDAWBgNV
BAMMD01vbnJvZV9Ob2RlXzExMDCCASIwDQYJKoZIhvcNAQEBBQADggEPADCCAQoC
ggEBAN8shGIK1CLytnVd2C1oLpGaFE3J4VbH0d1Gu8zkA3MmaT2vAB3VG0wV/tSa
KJvEZt6ngcwf9W2+GWVBvpQxusA3CNfXgtowjbFfGuYja4BvfiKZ0po4bh1MLKMm
/o4vuGDidsKwu8qDH4afrDDentFIlisxEBvEVND3aU0TGxnyzS4nBAU8zu/26Mxd
zRsXK1+0F9V/Vpj27T7dEGADMMkR4qbDWa6Nsv9GWOChegjGaGCyt2n/0EFboZTh
lHgqGrTRzvcw0WTFOzGLwJhpqxWS3UgqoH+W6dTdyiwFcxDuSZ0ccOgxmkpWfdSZ
zgcN/k/X4X5e3H4jIcSeQDx8TVsCAwEAAaOBqzCBqDAOBgNVHQ8BAf8EBAMCBaAw
CQYDVR0TBAIwADAdBgNVHSUEFjAUBggrBgEFBQcDAQYIKwYBBQUHAwIwHQYDVR0O
BBYEFPov/uj8fdJv8E4H7Y9+bsgCLnqwMB8GA1UdIwQYMBaAFNjoHDfQ1PckLIRW
4BcK5yOplMqUMCwGA1UdEQQlMCOCIU1vbnJvZV9Ob2RlXzExMC5QT0xJVE8ubW9u
cm9lLm9yZzANBgkqhkiG9w0BAQUFAAOCAgEAOv+TkNKojE6g3Cq3JVmniIYShNhk
D7iv+Md2ciV8caLfsybGK+YtafTKHx2O01qaLnTzJlVEUuwrbXyzp73KLwUWaSQi
AxhZhKisvejhfhY+z1aGsmIvo8nUeW1osVmCbCNemdwxgaY7NBPBrEYS6c+TKEmm
ghXsCrXZzK00fddA6yfeC9/IhKQ0ckSuK90nyU/w1qr4YH3aeQtgvpn0uuuqi9KY
3z5+lWNY+lcX+rV+W1ENQ06dCp1UTVGQcd4gXlnPeURi1eT1BIibAUUiupTu4R93
NSYlZfqVitXyLw7zndz9e8JakiJTHC4hk9lEnC5ELFNF8jsSBmZ+rnwPkOgTcE/+
DhXzTdFk5PpxxUXAzDQESNoGRh7etMw5E8i/tAz28iTxlXUz7vVnImyOq51e4ZSR
LX7Hyb/i4mLYSS/TOJLM0FJGTCaFQYofTlh0nKRQV4XLF3LllXFbvZu3pfENJjCu
mB/Hc8LOC81x69drVl9x1v4z0kPY8ZWRHcehLNHLkds/SqS+VqnLKajB91sLZj2p
cq2TfOJdH17kaOWREDK2CLEHkfWYyJcBHifCb+stbicpC3oYLCJCC3dbH/eTDQ5R
Wy+37MW7HN8FWYk3nLBzD1xuKcx5XuhJXvXBU9m4w2zGZG5qXL6F4ZXmV8Wv4SWM
TwGWslWxlVQKMa8=
-----END CERTIFICATE-----
