Certificate:
    Data:
        Version: 3 (0x2)
        Serial Number: 73 (0x49)
    Signature Algorithm: sha1WithRSAEncryption
        Issuer: DC=org, DC=monroe, OU=Root-CA, CN=Root-CA-1
        Validity
            Not Before: Nov 10 14:48:26 2015 GMT
            Not After : Nov  9 14:48:26 2017 GMT
        Subject: DC=org, DC=monroe, O=POLITO, OU=Components, CN=Monroe_Node_55
        Subject Public Key Info:
            Public Key Algorithm: rsaEncryption
                Public-Key: (2048 bit)
                Modulus:
                    00:cf:d6:3b:85:c6:fe:c5:22:53:19:d2:b5:e6:d3:
                    72:a1:78:c2:8b:2d:18:cf:1c:27:49:68:d4:b1:e9:
                    4b:5c:20:1e:b5:43:5c:d5:c2:78:38:44:4e:d5:2c:
                    ec:ac:e3:91:75:70:a1:d3:ed:8e:88:a2:4d:f9:85:
                    62:ea:ec:c1:79:d0:1d:aa:dd:62:d7:e5:90:2d:e8:
                    9c:54:ae:80:e8:3c:fe:19:81:ce:7d:b9:5d:37:30:
                    c9:7a:9a:b0:e7:db:50:fe:c2:20:a4:f0:8b:8f:27:
                    ea:84:71:dc:8d:eb:09:b4:dd:dd:f9:de:f8:6b:4e:
                    68:88:3c:33:77:e2:de:37:92:19:b5:37:88:e4:e4:
                    a0:25:4d:ed:2e:56:81:36:98:24:b0:e0:70:75:6e:
                    a5:7c:eb:f6:de:04:90:38:21:87:ff:d4:60:41:56:
                    6c:76:88:91:ee:01:ee:51:6c:11:df:a7:6b:b7:b8:
                    fc:4a:0e:87:e9:9e:88:42:e8:2d:6e:ec:5e:6d:80:
                    3b:5d:c1:97:4c:78:5d:4b:ee:32:3e:ed:c7:c3:e8:
                    54:e0:4b:8e:6c:ed:c8:bb:6b:1a:18:2f:5c:11:d3:
                    20:8b:40:6d:49:0b:38:4d:95:a3:15:6d:d6:c6:d0:
                    3f:f0:13:e4:57:07:aa:80:a4:0c:a1:11:34:14:2a:
                    00:9f
                Exponent: 65537 (0x10001)
        X509v3 extensions:
            X509v3 Key Usage: critical
                Digital Signature, Key Encipherment
            X509v3 Basic Constraints: 
                CA:FALSE
            X509v3 Extended Key Usage: 
                TLS Web Server Authentication, TLS Web Client Authentication
            X509v3 Subject Key Identifier: 
                62:53:84:51:DD:BD:C8:F5:30:7B:1B:06:E1:F2:4C:21:84:38:7A:4B
            X509v3 Authority Key Identifier: 
                keyid:D8:E8:1C:37:D0:D4:F7:24:2C:84:56:E0:17:0A:E7:23:A9:94:CA:94

            X509v3 Subject Alternative Name: 
                DNS:Monroe_Node_55.POLITO.monroe.org
    Signature Algorithm: sha1WithRSAEncryption
         9a:94:94:9f:f9:70:39:3e:42:82:59:4e:b5:fc:c2:09:1c:87:
         99:30:5d:95:82:a9:41:20:28:a5:97:4e:e1:7e:7f:41:db:52:
         17:d7:25:3a:75:38:1b:c3:97:89:b2:ee:3a:5d:94:e0:b0:7a:
         41:88:43:ac:ca:5e:ac:14:59:6a:03:14:27:2e:2b:5e:dc:a0:
         11:de:0c:d5:49:5d:a8:ad:e7:de:92:e1:29:51:c7:e8:d2:a2:
         0a:3d:7a:14:23:66:67:76:48:2b:da:18:55:1b:3a:66:56:e4:
         57:53:56:3f:05:87:39:12:fa:bd:da:d2:d1:cf:54:b5:b9:9b:
         56:b4:2f:79:ae:09:a5:57:11:96:67:25:67:4e:6a:5e:70:6c:
         bd:44:98:ff:78:6a:20:6e:f4:37:bc:ab:4f:87:a1:6c:6d:1f:
         8b:23:f1:2f:e9:f1:4a:d8:52:c6:4d:76:3a:1f:5c:85:5d:cc:
         4a:29:7f:63:e3:0a:18:98:1f:14:99:1e:77:ca:f5:a7:45:82:
         42:50:e7:47:06:e3:af:51:b5:6c:51:3d:ed:0c:46:4b:cb:78:
         3c:39:fb:93:5b:a4:0e:70:d6:90:75:85:5a:67:ca:eb:41:da:
         96:23:7f:ae:87:5a:d2:4e:c5:4b:42:ac:8f:40:92:99:b5:9b:
         6f:8f:ef:71:df:b7:4e:28:20:4f:4a:b1:7b:2e:29:64:34:ed:
         9d:06:57:6f:ea:73:da:be:e3:51:d2:3f:a8:3d:4f:2e:49:c6:
         88:bd:27:2b:7c:08:01:cf:5e:1e:6b:07:6c:0c:52:3b:1d:09:
         ef:b0:c8:6c:31:4d:05:e2:1f:be:35:a2:c1:0d:3a:48:62:5c:
         32:63:05:c4:03:08:89:9c:fe:98:fb:44:23:cc:7b:a2:7b:47:
         bd:a3:02:2e:fa:fc:f4:3f:30:f0:a3:52:2b:5b:e2:2a:53:a0:
         73:5f:bc:c8:cc:61:7e:8f:4d:d3:9f:b7:fb:20:0d:16:3d:7a:
         ba:73:04:86:fc:17:5c:2c:06:a6:e0:3f:28:b7:18:e3:06:8e:
         34:dc:3a:5d:a3:17:20:c0:89:2b:a6:92:73:2d:08:62:60:7c:
         41:16:25:dd:27:de:d0:cc:e2:79:f2:9c:dc:49:0f:3b:d7:52:
         29:e7:bb:9f:3a:de:dc:b8:57:56:3f:16:f5:3d:13:b8:e8:aa:
         14:00:e9:86:6a:cb:69:3e:a7:6f:44:96:ca:62:51:d8:23:ee:
         73:8b:c2:ed:61:6b:a5:cb:41:58:6d:22:1e:4e:5f:7c:07:76:
         b0:c9:06:14:18:3f:62:a2:57:0d:e8:fd:df:2d:f5:bf:41:f7:
         f6:9d:e9:d0:00:98:f5:3a
-----BEGIN CERTIFICATE-----
MIIE5TCCAs2gAwIBAgIBSTANBgkqhkiG9w0BAQUFADBTMRMwEQYKCZImiZPyLGQB
GRYDb3JnMRYwFAYKCZImiZPyLGQBGRYGbW9ucm9lMRAwDgYDVQQLDAdSb290LUNB
MRIwEAYDVQQDDAlSb290LUNBLTEwHhcNMTUxMTEwMTQ0ODI2WhcNMTcxMTA5MTQ0
ODI2WjBsMRMwEQYKCZImiZPyLGQBGRYDb3JnMRYwFAYKCZImiZPyLGQBGRYGbW9u
cm9lMQ8wDQYDVQQKDAZQT0xJVE8xEzARBgNVBAsMCkNvbXBvbmVudHMxFzAVBgNV
BAMMDk1vbnJvZV9Ob2RlXzU1MIIBIjANBgkqhkiG9w0BAQEFAAOCAQ8AMIIBCgKC
AQEAz9Y7hcb+xSJTGdK15tNyoXjCiy0YzxwnSWjUselLXCAetUNc1cJ4OERO1Szs
rOORdXCh0+2OiKJN+YVi6uzBedAdqt1i1+WQLeicVK6A6Dz+GYHOfbldNzDJepqw
59tQ/sIgpPCLjyfqhHHcjesJtN3d+d74a05oiDwzd+LeN5IZtTeI5OSgJU3tLlaB
NpgksOBwdW6lfOv23gSQOCGH/9RgQVZsdoiR7gHuUWwR36drt7j8Sg6H6Z6IQugt
buxebYA7XcGXTHhdS+4yPu3Hw+hU4EuObO3Iu2saGC9cEdMgi0BtSQs4TZWjFW3W
xtA/8BPkVweqgKQMoRE0FCoAnwIDAQABo4GqMIGnMA4GA1UdDwEB/wQEAwIFoDAJ
BgNVHRMEAjAAMB0GA1UdJQQWMBQGCCsGAQUFBwMBBggrBgEFBQcDAjAdBgNVHQ4E
FgQUYlOEUd29yPUwexsG4fJMIYQ4ekswHwYDVR0jBBgwFoAU2OgcN9DU9yQshFbg
FwrnI6mUypQwKwYDVR0RBCQwIoIgTW9ucm9lX05vZGVfNTUuUE9MSVRPLm1vbnJv
ZS5vcmcwDQYJKoZIhvcNAQEFBQADggIBAJqUlJ/5cDk+QoJZTrX8wgkch5kwXZWC
qUEgKKWXTuF+f0HbUhfXJTp1OBvDl4my7jpdlOCwekGIQ6zKXqwUWWoDFCcuK17c
oBHeDNVJXait596S4SlRx+jSogo9ehQjZmd2SCvaGFUbOmZW5FdTVj8FhzkS+r3a
0tHPVLW5m1a0L3muCaVXEZZnJWdOal5wbL1EmP94aiBu9De8q0+HoWxtH4sj8S/p
8UrYUsZNdjofXIVdzEopf2PjChiYHxSZHnfK9adFgkJQ50cG469RtWxRPe0MRkvL
eDw5+5NbpA5w1pB1hVpnyutB2pYjf66HWtJOxUtCrI9Akpm1m2+P73Hft04oIE9K
sXsuKWQ07Z0GV2/qc9q+41HSP6g9Ty5Jxoi9Jyt8CAHPXh5rB2wMUjsdCe+wyGwx
TQXiH741osENOkhiXDJjBcQDCImc/pj7RCPMe6J7R72jAi76/PQ/MPCjUitb4ipT
oHNfvMjMYX6PTdOft/sgDRY9erpzBIb8F1wsBqbgPyi3GOMGjjTcOl2jFyDAiSum
knMtCGJgfEEWJd0n3tDM4nnynNxJDzvXUinnu5863ty4V1Y/FvU9E7joqhQA6YZq
y2k+p29ElspiUdgj7nOLwu1ha6XLQVhtIh5OX3wHdrDJBhQYP2KiVw3o/d8t9b9B
9/ad6dAAmPU6
-----END CERTIFICATE-----
