Certificate:
    Data:
        Version: 3 (0x2)
        Serial Number: 74 (0x4a)
    Signature Algorithm: sha1WithRSAEncryption
        Issuer: DC=org, DC=monroe, OU=Root-CA, CN=Root-CA-1
        Validity
            Not Before: Nov 13 08:05:11 2015 GMT
            Not After : Nov 12 08:05:11 2017 GMT
        Subject: DC=org, DC=monroe, O=POLITO, OU=Components, CN=Monroe_Node_104
        Subject Public Key Info:
            Public Key Algorithm: rsaEncryption
                Public-Key: (2048 bit)
                Modulus:
                    00:be:3e:58:1a:27:72:d2:bd:96:5b:db:c0:1b:af:
                    3e:70:09:c0:a8:de:ca:80:34:21:95:c4:3a:5c:55:
                    fb:ab:fb:a3:5b:23:a0:d2:03:d0:dd:9a:e0:93:83:
                    77:6b:96:16:e9:65:48:8b:87:7e:f7:21:0a:53:17:
                    93:dd:f7:eb:4c:c0:8d:24:c1:34:3d:08:e9:7d:29:
                    25:bc:65:e0:43:7a:7c:48:d8:d3:70:b6:c7:c7:82:
                    18:49:da:32:a3:7d:a6:78:e3:38:05:91:0a:f3:61:
                    6d:2c:20:e7:ef:65:ee:44:7c:d6:6e:3e:70:7f:de:
                    d2:30:d2:b5:06:29:c4:6c:55:0d:0d:fa:1f:14:89:
                    21:f4:5b:f1:32:7a:fe:43:e0:7b:49:d5:01:21:67:
                    d1:95:4a:9d:6d:34:e1:a8:80:88:e0:f9:59:30:c3:
                    4f:0f:b1:7f:5d:cd:0c:e2:e8:07:fd:24:0b:d3:8a:
                    7b:91:e3:4e:cd:38:4f:f0:04:51:61:d9:3c:19:8b:
                    6f:94:41:d7:9a:f2:fc:c2:a5:ce:03:54:99:3a:08:
                    1f:76:d2:ab:52:a8:f5:1a:bb:88:23:2b:c5:cc:f1:
                    9d:59:c0:9d:25:31:a3:49:c6:c5:84:ce:56:1c:74:
                    ae:2c:4a:bc:da:ea:29:da:ce:d1:c5:56:e4:68:29:
                    cf:f1
                Exponent: 65537 (0x10001)
        X509v3 extensions:
            X509v3 Key Usage: critical
                Digital Signature, Key Encipherment
            X509v3 Basic Constraints: 
                CA:FALSE
            X509v3 Extended Key Usage: 
                TLS Web Server Authentication, TLS Web Client Authentication
            X509v3 Subject Key Identifier: 
                22:F1:A1:7C:57:F1:2B:9D:F8:86:E1:31:51:D1:4B:D9:71:70:94:22
            X509v3 Authority Key Identifier: 
                keyid:D8:E8:1C:37:D0:D4:F7:24:2C:84:56:E0:17:0A:E7:23:A9:94:CA:94

            X509v3 Subject Alternative Name: 
                DNS:Monroe_Node_104.POLITO.monroe.org
    Signature Algorithm: sha1WithRSAEncryption
         5c:7b:e8:96:ff:b9:66:56:fc:ad:90:c0:6c:1f:6b:0f:a6:3d:
         4e:50:7d:1b:c6:09:47:d8:ed:5a:30:eb:14:f5:23:c1:c4:a2:
         06:ad:da:3c:0f:75:af:e1:39:c5:af:ca:99:40:30:48:0f:ac:
         18:68:7a:78:9c:47:9d:6c:c8:e8:34:64:2f:fb:a3:a9:b7:dc:
         94:2c:49:18:4b:63:87:b1:9e:ec:5a:36:8c:f5:86:dc:27:c4:
         7b:cd:91:4e:f4:1a:47:ee:c5:fc:7e:34:e8:e2:92:55:a4:54:
         97:bf:96:42:28:fc:64:48:b1:11:5f:ac:4f:13:f3:19:ee:8d:
         92:b3:7e:35:07:a2:02:ae:a2:bf:5f:20:64:5b:81:77:f1:45:
         d5:68:66:84:77:d1:19:62:4d:c7:47:95:3c:a0:21:27:36:72:
         7c:09:8e:87:dd:e7:bf:b0:11:fa:a2:cc:21:6a:3b:95:ab:13:
         e1:75:ef:14:2c:43:7c:79:38:b1:9e:0f:54:e8:e7:b1:2b:c3:
         26:bf:97:e9:50:1f:f9:12:cd:e6:f5:28:77:c6:3c:a1:1f:d3:
         f2:3f:de:3e:ac:f1:21:90:cd:cf:6f:15:50:e8:be:55:35:48:
         b3:02:37:84:8a:7a:bf:80:2f:4a:3b:76:6a:b3:81:04:34:d4:
         04:3e:05:4e:45:24:e1:1f:e1:96:d2:40:33:8f:82:a5:c2:90:
         99:eb:86:3a:ad:de:2b:1c:31:72:b3:61:cc:bb:e5:ef:5c:09:
         87:9d:97:a0:67:6d:2d:b2:e3:c6:1f:50:84:ef:dc:e5:e2:de:
         7f:c5:8f:16:e6:05:44:d3:34:e1:2d:c2:0a:59:d9:1b:4b:bd:
         96:aa:ec:32:2c:fd:08:39:66:d5:aa:9a:b6:fc:17:8b:d0:8a:
         43:48:4b:fd:69:b4:60:8a:f4:b5:08:4c:08:27:2d:d5:42:56:
         df:56:68:ae:f6:2f:6d:63:81:73:90:d9:1a:0c:2c:f1:23:43:
         25:e1:2c:20:e7:b0:29:16:62:75:d9:9a:ae:27:ab:57:53:30:
         f1:d6:b5:00:1b:d3:a5:48:2e:02:ce:de:ee:a1:17:5a:68:9f:
         de:c2:93:53:93:16:21:f7:58:40:b6:f3:cf:2b:0b:b0:86:50:
         44:74:4d:86:d2:62:85:da:a9:5f:31:c3:2e:35:59:af:a7:6b:
         77:f7:4d:93:56:fa:95:36:03:26:e3:d2:78:c7:35:78:92:0e:
         fa:9d:f2:55:6f:7b:44:41:ee:e2:fe:b5:76:e2:e9:d9:33:a7:
         30:ef:51:7e:25:6a:ce:42:01:57:e2:14:7e:fa:4a:8e:7f:2e:
         15:77:b9:3a:8b:aa:fc:5f
-----BEGIN CERTIFICATE-----
MIIE5zCCAs+gAwIBAgIBSjANBgkqhkiG9w0BAQUFADBTMRMwEQYKCZImiZPyLGQB
GRYDb3JnMRYwFAYKCZImiZPyLGQBGRYGbW9ucm9lMRAwDgYDVQQLDAdSb290LUNB
MRIwEAYDVQQDDAlSb290LUNBLTEwHhcNMTUxMTEzMDgwNTExWhcNMTcxMTEyMDgw
NTExWjBtMRMwEQYKCZImiZPyLGQBGRYDb3JnMRYwFAYKCZImiZPyLGQBGRYGbW9u
cm9lMQ8wDQYDVQQKDAZQT0xJVE8xEzARBgNVBAsMCkNvbXBvbmVudHMxGDAWBgNV
BAMMD01vbnJvZV9Ob2RlXzEwNDCCASIwDQYJKoZIhvcNAQEBBQADggEPADCCAQoC
ggEBAL4+WBonctK9llvbwBuvPnAJwKjeyoA0IZXEOlxV+6v7o1sjoNID0N2a4JOD
d2uWFullSIuHfvchClMXk93360zAjSTBND0I6X0pJbxl4EN6fEjY03C2x8eCGEna
MqN9pnjjOAWRCvNhbSwg5+9l7kR81m4+cH/e0jDStQYpxGxVDQ36HxSJIfRb8TJ6
/kPge0nVASFn0ZVKnW004aiAiOD5WTDDTw+xf13NDOLoB/0kC9OKe5HjTs04T/AE
UWHZPBmLb5RB15ry/MKlzgNUmToIH3bSq1Ko9Rq7iCMrxczxnVnAnSUxo0nGxYTO
Vhx0rixKvNrqKdrO0cVW5Ggpz/ECAwEAAaOBqzCBqDAOBgNVHQ8BAf8EBAMCBaAw
CQYDVR0TBAIwADAdBgNVHSUEFjAUBggrBgEFBQcDAQYIKwYBBQUHAwIwHQYDVR0O
BBYEFCLxoXxX8Sud+IbhMVHRS9lxcJQiMB8GA1UdIwQYMBaAFNjoHDfQ1PckLIRW
4BcK5yOplMqUMCwGA1UdEQQlMCOCIU1vbnJvZV9Ob2RlXzEwNC5QT0xJVE8ubW9u
cm9lLm9yZzANBgkqhkiG9w0BAQUFAAOCAgEAXHvolv+5Zlb8rZDAbB9rD6Y9TlB9
G8YJR9jtWjDrFPUjwcSiBq3aPA91r+E5xa/KmUAwSA+sGGh6eJxHnWzI6DRkL/uj
qbfclCxJGEtjh7Ge7Fo2jPWG3CfEe82RTvQaR+7F/H406OKSVaRUl7+WQij8ZEix
EV+sTxPzGe6NkrN+NQeiAq6iv18gZFuBd/FF1WhmhHfRGWJNx0eVPKAhJzZyfAmO
h93nv7AR+qLMIWo7lasT4XXvFCxDfHk4sZ4PVOjnsSvDJr+X6VAf+RLN5vUod8Y8
oR/T8j/ePqzxIZDNz28VUOi+VTVIswI3hIp6v4AvSjt2arOBBDTUBD4FTkUk4R/h
ltJAM4+CpcKQmeuGOq3eKxwxcrNhzLvl71wJh52XoGdtLbLjxh9QhO/c5eLef8WP
FuYFRNM04S3CClnZG0u9lqrsMiz9CDlm1aqatvwXi9CKQ0hL/Wm0YIr0tQhMCCct
1UJW31ZorvYvbWOBc5DZGgws8SNDJeEsIOewKRZiddmarierV1Mw8da1ABvTpUgu
As7e7qEXWmif3sKTU5MWIfdYQLbzzysLsIZQRHRNhtJihdqpXzHDLjVZr6drd/dN
k1b6lTYDJuPSeMc1eJIO+p3yVW97REHu4v61duLp2TOnMO9RfiVqzkIBV+IUfvpK
jn8uFXe5Oouq/F8=
-----END CERTIFICATE-----
