Certificate:
    Data:
        Version: 3 (0x2)
        Serial Number: 75 (0x4b)
    Signature Algorithm: sha1WithRSAEncryption
        Issuer: DC=org, DC=monroe, OU=Root-CA, CN=Root-CA-1
        Validity
            Not Before: Jan 27 10:25:53 2016 GMT
            Not After : Jan 26 10:25:53 2018 GMT
        Subject: DC=org, DC=monroe, O=POLITO, OU=Components, CN=Monroe_Node_111
        Subject Public Key Info:
            Public Key Algorithm: rsaEncryption
                Public-Key: (2048 bit)
                Modulus:
                    00:ec:dd:d3:c1:8c:85:bc:e8:7b:96:9c:7f:37:8f:
                    46:94:6e:9e:4f:29:f2:23:89:fc:b8:09:44:2c:f5:
                    b1:21:ae:44:99:5c:cb:b0:71:3c:20:77:68:48:f0:
                    e5:cc:73:1e:69:7f:a8:de:5b:eb:89:ec:76:50:63:
                    87:94:27:56:d0:04:2c:f8:31:52:e9:7b:7b:4b:74:
                    a4:83:94:0f:d5:85:d9:38:f0:b8:c1:cb:bd:2a:fb:
                    4e:c7:6a:a3:71:a7:ce:2d:e0:43:3c:91:41:61:75:
                    37:54:c9:68:c2:d1:14:7e:fc:ad:91:14:40:9e:01:
                    f7:49:cf:e4:10:0f:42:6e:91:55:90:b6:7d:9a:83:
                    10:e1:d9:97:ae:56:8d:81:80:17:6b:8d:ec:ab:b6:
                    47:d9:72:2c:b0:e1:ce:e8:d1:bf:a3:be:ec:43:32:
                    ea:ec:03:e0:fa:c4:36:be:df:42:d9:3a:36:4c:15:
                    03:c4:53:97:ad:32:4c:08:0b:38:bd:5f:43:8f:9a:
                    05:f9:d7:bb:fb:c2:0a:c2:e2:e0:ef:f0:ee:ed:6d:
                    38:54:50:f5:5a:b0:88:e5:83:62:94:e9:ef:f9:a5:
                    fc:e9:0e:37:e6:a1:f7:77:45:8e:71:63:34:03:11:
                    15:f9:c3:57:58:64:e7:2a:e0:bc:8d:f6:14:42:3d:
                    d2:51
                Exponent: 65537 (0x10001)
        X509v3 extensions:
            X509v3 Key Usage: critical
                Digital Signature, Key Encipherment
            X509v3 Basic Constraints: 
                CA:FALSE
            X509v3 Extended Key Usage: 
                TLS Web Server Authentication, TLS Web Client Authentication
            X509v3 Subject Key Identifier: 
                06:B1:39:F5:A0:B1:BE:27:8F:35:18:36:DE:48:D8:6D:CB:B9:59:7A
            X509v3 Authority Key Identifier: 
                keyid:D8:E8:1C:37:D0:D4:F7:24:2C:84:56:E0:17:0A:E7:23:A9:94:CA:94

            X509v3 Subject Alternative Name: 
                DNS:Monroe_Node_111.POLITO.monroe.org
    Signature Algorithm: sha1WithRSAEncryption
         3d:70:db:fc:58:73:f1:b1:87:34:8c:1a:3a:8c:fc:a9:22:01:
         a9:05:8d:ea:f3:9c:9f:b7:d1:a3:c4:14:fa:c8:9b:18:e0:12:
         a0:e0:31:66:0e:b5:ba:54:a0:09:00:fa:87:10:55:7b:4b:13:
         c4:67:5a:81:04:3a:79:fa:88:7f:75:df:22:a8:45:b6:2d:0b:
         3a:c0:ef:37:4e:6a:c5:d5:d7:fe:8a:ff:43:ca:49:7e:01:e7:
         0f:7d:5d:02:2a:ba:72:a6:c5:c0:ea:1d:86:41:7b:eb:35:5b:
         f0:be:0b:61:1f:ab:e2:b2:1f:93:e3:7b:78:19:36:d6:6f:ef:
         57:bd:75:94:8e:5b:22:aa:55:a5:17:1a:ad:01:c8:c6:2f:52:
         14:29:32:53:12:d7:17:31:9a:c5:8a:c9:2e:ea:35:2c:61:7e:
         a2:19:11:9c:2d:a2:eb:95:46:15:e7:0a:7c:af:0f:0c:ce:73:
         ce:09:26:6a:8a:8d:1e:c1:39:45:22:38:0b:15:7e:60:e3:54:
         0c:1f:24:36:32:0d:19:65:ad:3a:4f:f0:9b:c4:2a:41:64:e1:
         88:f2:d9:28:f1:af:6d:a5:8d:0f:a3:31:66:90:59:61:13:cc:
         a0:57:cb:48:f0:dd:87:fe:de:fa:56:aa:f3:52:3a:ef:9c:5a:
         d3:f6:67:3d:78:04:09:60:64:95:f5:97:bc:e8:df:45:05:8b:
         c4:e8:f3:25:36:a8:75:19:b4:98:8b:66:4e:37:2d:4c:72:17:
         10:aa:32:89:f7:f0:6c:8c:91:9a:8a:8e:16:83:5c:8a:05:eb:
         68:ac:a0:c7:ee:78:db:a2:77:8b:77:be:7a:bc:3c:e9:48:32:
         e4:fa:47:a1:69:19:40:87:de:d6:02:0d:92:ca:92:be:5d:d0:
         f1:91:de:bc:7e:1c:d6:91:cc:95:31:74:d1:e6:c1:df:53:84:
         c5:fd:c2:6e:34:cf:de:a8:d0:2d:3d:f1:7f:95:61:4c:65:ab:
         e6:76:42:1a:bb:f3:04:1b:50:bf:eb:fc:e0:59:26:0f:1e:7a:
         e2:f7:0c:f0:ac:ae:9a:91:4c:5d:14:c9:2f:7c:9c:07:e0:8d:
         a0:72:e1:78:ab:4c:78:b0:45:cb:2e:28:b4:ef:da:bb:7d:df:
         20:30:b5:ce:71:22:26:de:f1:fe:da:94:c9:ed:73:32:94:4b:
         e2:d9:f5:4d:48:77:2d:06:02:81:c3:62:9f:bb:cc:06:fe:5f:
         56:3c:55:4a:2c:0e:b3:c9:7e:81:a1:b5:00:d6:08:23:76:61:
         25:ab:a4:28:62:f3:db:d3:f5:33:5e:22:5a:c0:33:28:36:70:
         31:38:34:bf:71:02:de:9e
-----BEGIN CERTIFICATE-----
MIIE5zCCAs+gAwIBAgIBSzANBgkqhkiG9w0BAQUFADBTMRMwEQYKCZImiZPyLGQB
GRYDb3JnMRYwFAYKCZImiZPyLGQBGRYGbW9ucm9lMRAwDgYDVQQLDAdSb290LUNB
MRIwEAYDVQQDDAlSb290LUNBLTEwHhcNMTYwMTI3MTAyNTUzWhcNMTgwMTI2MTAy
NTUzWjBtMRMwEQYKCZImiZPyLGQBGRYDb3JnMRYwFAYKCZImiZPyLGQBGRYGbW9u
cm9lMQ8wDQYDVQQKDAZQT0xJVE8xEzARBgNVBAsMCkNvbXBvbmVudHMxGDAWBgNV
BAMMD01vbnJvZV9Ob2RlXzExMTCCASIwDQYJKoZIhvcNAQEBBQADggEPADCCAQoC
ggEBAOzd08GMhbzoe5acfzePRpRunk8p8iOJ/LgJRCz1sSGuRJlcy7BxPCB3aEjw
5cxzHml/qN5b64nsdlBjh5QnVtAELPgxUul7e0t0pIOUD9WF2TjwuMHLvSr7Tsdq
o3Gnzi3gQzyRQWF1N1TJaMLRFH78rZEUQJ4B90nP5BAPQm6RVZC2fZqDEOHZl65W
jYGAF2uN7Ku2R9lyLLDhzujRv6O+7EMy6uwD4PrENr7fQtk6NkwVA8RTl60yTAgL
OL1fQ4+aBfnXu/vCCsLi4O/w7u1tOFRQ9VqwiOWDYpTp7/ml/OkON+ah93dFjnFj
NAMRFfnDV1hk5yrgvI32FEI90lECAwEAAaOBqzCBqDAOBgNVHQ8BAf8EBAMCBaAw
CQYDVR0TBAIwADAdBgNVHSUEFjAUBggrBgEFBQcDAQYIKwYBBQUHAwIwHQYDVR0O
BBYEFAaxOfWgsb4njzUYNt5I2G3LuVl6MB8GA1UdIwQYMBaAFNjoHDfQ1PckLIRW
4BcK5yOplMqUMCwGA1UdEQQlMCOCIU1vbnJvZV9Ob2RlXzExMS5QT0xJVE8ubW9u
cm9lLm9yZzANBgkqhkiG9w0BAQUFAAOCAgEAPXDb/Fhz8bGHNIwaOoz8qSIBqQWN
6vOcn7fRo8QU+sibGOASoOAxZg61ulSgCQD6hxBVe0sTxGdagQQ6efqIf3XfIqhF
ti0LOsDvN05qxdXX/or/Q8pJfgHnD31dAiq6cqbFwOodhkF76zVb8L4LYR+r4rIf
k+N7eBk21m/vV711lI5bIqpVpRcarQHIxi9SFCkyUxLXFzGaxYrJLuo1LGF+ohkR
nC2i65VGFecKfK8PDM5zzgkmaoqNHsE5RSI4CxV+YONUDB8kNjINGWWtOk/wm8Qq
QWThiPLZKPGvbaWND6MxZpBZYRPMoFfLSPDdh/7e+laq81I675xa0/ZnPXgECWBk
lfWXvOjfRQWLxOjzJTaodRm0mItmTjctTHIXEKoyiffwbIyRmoqOFoNcigXraKyg
x+5426J3i3e+erw86Ugy5PpHoWkZQIfe1gINksqSvl3Q8ZHevH4c1pHMlTF00ebB
31OExf3CbjTP3qjQLT3xf5VhTGWr5nZCGrvzBBtQv+v84FkmDx564vcM8KyumpFM
XRTJL3ycB+CNoHLheKtMeLBFyy4otO/au33fIDC1znEiJt7x/tqUye1zMpRL4tn1
TUh3LQYCgcNin7vMBv5fVjxVSiwOs8l+gaG1ANYII3ZhJaukKGLz29P1M14iWsAz
KDZwMTg0v3EC3p4=
-----END CERTIFICATE-----
