Certificate:
    Data:
        Version: 3 (0x2)
        Serial Number: 1 (0x1)
    Signature Algorithm: sha1WithRSAEncryption
        Issuer: DC=org, DC=monroe, OU=Root-CA, CN=Root-CA-1
        Validity
            Not Before: Oct  9 13:52:20 2015 GMT
            Not After : Oct  8 13:52:20 2017 GMT
        Subject: DC=org, DC=monroe, OU=Root-CA, CN=Root-CA-1
        Subject Public Key Info:
            Public Key Algorithm: rsaEncryption
                Public-Key: (4096 bit)
                Modulus:
                    00:bb:d8:1a:2f:68:ef:15:b2:ca:fc:75:ab:89:b9:
                    03:17:a5:0b:df:dc:bf:68:56:9d:97:d1:29:79:a7:
                    c0:1f:cb:c2:26:90:cc:fa:9b:30:51:34:cd:49:86:
                    b0:38:99:64:b3:01:23:ec:fc:ef:ad:d6:85:05:d2:
                    04:5f:fb:84:42:52:92:d5:ce:08:7d:cb:ba:28:17:
                    6f:04:64:28:89:0e:80:ff:5b:38:00:e9:de:64:fc:
                    c1:98:06:bd:76:68:bb:99:3e:89:31:46:65:bd:df:
                    91:6a:b6:a0:46:18:36:2f:18:0b:56:03:4f:a6:92:
                    e5:bd:10:8c:53:ec:d3:6b:67:4e:36:21:b4:1e:1a:
                    8b:d4:d5:44:46:19:9d:55:17:29:c2:07:55:be:99:
                    e3:5a:af:0f:a7:fd:10:9f:35:0d:51:5f:13:66:8f:
                    d6:c5:35:33:8f:ac:b9:b1:80:13:29:ed:f0:a7:48:
                    ae:71:b7:40:f5:37:4d:4c:e7:13:8d:ca:34:25:cf:
                    a1:cc:ed:61:7a:9f:7f:e0:76:1f:8a:41:87:a2:6b:
                    85:ba:53:99:f0:67:8a:01:25:fe:d9:ba:eb:18:e7:
                    ef:ac:ed:99:fd:e6:87:bf:85:34:52:3d:5b:be:86:
                    f7:e6:8a:f3:bc:5d:f7:7e:5d:6b:8a:b5:23:7f:0c:
                    e2:93:4a:7d:b4:87:30:8c:66:09:b0:2b:da:be:3a:
                    17:e8:bf:ce:cc:ef:35:6a:f4:60:e8:09:1e:a8:53:
                    d8:7c:70:64:90:47:68:10:4e:fe:2f:42:e3:d5:78:
                    ff:ac:eb:3c:f5:59:f4:2d:46:a1:0c:6f:39:37:ea:
                    19:d0:ae:3f:e5:4f:d7:f5:92:f1:8a:74:dd:13:d9:
                    bf:d8:c1:16:66:22:de:cb:cc:a0:94:c8:9f:9b:0c:
                    dc:5e:20:e8:e1:45:23:13:6d:33:1d:4b:50:70:f8:
                    02:5f:2b:c8:51:81:2a:03:26:85:89:58:80:b5:9b:
                    03:8b:05:29:c6:d2:d8:8d:38:5a:3b:db:19:b6:e6:
                    2e:7e:68:93:e5:a4:13:95:d8:a9:8d:53:58:cd:bb:
                    5d:9a:33:67:6f:5c:af:5d:02:48:cd:f3:9d:95:84:
                    6f:16:1a:1e:db:07:90:62:b5:f9:e6:e1:4f:6a:75:
                    e1:7d:f2:33:a9:48:91:b2:cf:18:6e:4a:47:16:c0:
                    02:2d:41:18:69:e9:bd:f3:06:2e:b4:a0:db:ae:8d:
                    73:d9:c0:76:4d:0e:99:31:2d:20:94:f5:3b:27:4c:
                    cf:ec:58:0f:d5:2d:77:e8:3c:94:9e:73:cc:9e:eb:
                    9b:49:f1:a6:32:06:cc:56:9f:35:4c:9a:cf:29:24:
                    0f:c1:1d
                Exponent: 65537 (0x10001)
        X509v3 extensions:
            X509v3 Key Usage: critical
                Certificate Sign, CRL Sign
            X509v3 Basic Constraints: critical
                CA:TRUE
            X509v3 Subject Key Identifier: 
                D8:E8:1C:37:D0:D4:F7:24:2C:84:56:E0:17:0A:E7:23:A9:94:CA:94
            X509v3 Authority Key Identifier: 
                keyid:D8:E8:1C:37:D0:D4:F7:24:2C:84:56:E0:17:0A:E7:23:A9:94:CA:94

    Signature Algorithm: sha1WithRSAEncryption
         1b:2d:a3:0b:a2:11:04:44:fa:06:07:97:8d:6d:97:48:20:9f:
         cb:5b:bd:7c:e1:fd:c6:7a:d4:01:d2:47:d5:80:1f:77:fe:6d:
         1f:80:a8:9e:bc:a5:1c:be:b8:52:f9:f2:c3:f7:f3:a4:41:ed:
         3f:84:9e:8c:6b:80:35:7c:fd:de:72:b5:36:80:cc:34:98:52:
         02:6a:1f:5e:a6:22:9c:c0:35:f0:f1:09:7f:bc:11:56:41:b3:
         66:35:bc:95:cd:1d:07:68:ae:11:b5:bc:be:1d:ee:7f:7e:6e:
         a4:b0:2d:24:f8:c4:04:d6:b4:bb:b8:55:91:57:8c:96:0a:ce:
         3b:d3:a5:ec:99:99:da:8c:04:c5:64:bd:b7:1f:69:4f:fe:c3:
         6b:d0:9d:94:01:b3:4a:93:4b:6f:b5:ed:8e:7c:53:e1:de:5f:
         46:49:a9:ca:4f:e3:2c:aa:d3:b0:d1:64:7a:e3:9f:6d:61:ce:
         f6:2a:f7:00:31:aa:6d:36:83:95:0f:98:5c:04:26:bb:1b:16:
         ed:6f:35:44:f0:4a:3d:aa:ce:39:4a:ce:41:cd:f1:81:bb:cb:
         d9:4d:ad:7b:f2:55:75:dd:b5:4a:12:0a:a2:53:bd:93:b7:89:
         b9:ca:06:4f:d3:05:08:53:76:91:91:cc:e5:da:89:70:da:0b:
         19:a2:de:38:09:3d:e4:d7:95:b2:1d:7b:1f:d9:5a:b3:af:48:
         37:17:0d:1f:7b:73:09:02:a8:90:4e:8c:fc:f9:ac:86:92:f4:
         42:04:d3:7f:e9:a7:1e:08:ab:b2:4f:55:3d:74:60:e8:94:bf:
         36:18:5c:81:be:18:9a:26:a1:d0:5d:81:6d:26:4b:43:01:38:
         e7:13:f9:77:8b:20:f3:7d:bd:aa:25:98:50:2b:3f:83:f6:9e:
         c0:fb:b7:dd:cc:be:10:63:b0:10:cc:7d:53:6f:bf:26:0b:58:
         c5:e9:10:5b:cd:44:73:1c:52:58:43:7d:56:12:99:06:39:03:
         9c:d1:81:ea:cb:67:c0:db:b4:68:e3:a3:8b:7b:c8:13:6b:07:
         59:50:3e:ea:b6:47:bd:0a:d6:b3:a1:39:8d:08:98:38:fc:7e:
         1b:b2:eb:8a:ee:9a:fd:d2:0b:38:23:57:a0:eb:cc:88:ab:f1:
         0a:f6:ac:a1:a9:dc:72:a7:82:b6:1c:0a:cc:5e:eb:4c:b8:34:
         3e:fd:eb:68:89:d2:ec:10:be:b4:d6:3c:c4:83:3a:f4:58:19:
         5f:bc:76:be:d3:c1:70:fc:dd:38:f1:80:dc:33:66:a8:4d:44:
         c7:e3:dd:34:88:50:86:6d:b7:1a:84:d3:0a:c2:16:2e:b5:45:
         ce:0e:31:90:68:06:ae:95
-----BEGIN CERTIFICATE-----
MIIFhDCCA2ygAwIBAgIBATANBgkqhkiG9w0BAQUFADBTMRMwEQYKCZImiZPyLGQB
GRYDb3JnMRYwFAYKCZImiZPyLGQBGRYGbW9ucm9lMRAwDgYDVQQLDAdSb290LUNB
MRIwEAYDVQQDDAlSb290LUNBLTEwHhcNMTUxMDA5MTM1MjIwWhcNMTcxMDA4MTM1
MjIwWjBTMRMwEQYKCZImiZPyLGQBGRYDb3JnMRYwFAYKCZImiZPyLGQBGRYGbW9u
cm9lMRAwDgYDVQQLDAdSb290LUNBMRIwEAYDVQQDDAlSb290LUNBLTEwggIiMA0G
CSqGSIb3DQEBAQUAA4ICDwAwggIKAoICAQC72BovaO8Vssr8dauJuQMXpQvf3L9o
Vp2X0Sl5p8Afy8ImkMz6mzBRNM1JhrA4mWSzASPs/O+t1oUF0gRf+4RCUpLVzgh9
y7ooF28EZCiJDoD/WzgA6d5k/MGYBr12aLuZPokxRmW935FqtqBGGDYvGAtWA0+m
kuW9EIxT7NNrZ042IbQeGovU1URGGZ1VFynCB1W+meNarw+n/RCfNQ1RXxNmj9bF
NTOPrLmxgBMp7fCnSK5xt0D1N01M5xONyjQlz6HM7WF6n3/gdh+KQYeia4W6U5nw
Z4oBJf7ZuusY5++s7Zn95oe/hTRSPVu+hvfmivO8Xfd+XWuKtSN/DOKTSn20hzCM
ZgmwK9q+Ohfov87M7zVq9GDoCR6oU9h8cGSQR2gQTv4vQuPVeP+s6zz1WfQtRqEM
bzk36hnQrj/lT9f1kvGKdN0T2b/YwRZmIt7LzKCUyJ+bDNxeIOjhRSMTbTMdS1Bw
+AJfK8hRgSoDJoWJWIC1mwOLBSnG0tiNOFo72xm25i5+aJPlpBOV2KmNU1jNu12a
M2dvXK9dAkjN852VhG8WGh7bB5Bitfnm4U9qdeF98jOpSJGyzxhuSkcWwAItQRhp
6b3zBi60oNuujXPZwHZNDpkxLSCU9TsnTM/sWA/VLXfoPJSec8ye65tJ8aYyBsxW
nzVMms8pJA/BHQIDAQABo2MwYTAOBgNVHQ8BAf8EBAMCAQYwDwYDVR0TAQH/BAUw
AwEB/zAdBgNVHQ4EFgQU2OgcN9DU9yQshFbgFwrnI6mUypQwHwYDVR0jBBgwFoAU
2OgcN9DU9yQshFbgFwrnI6mUypQwDQYJKoZIhvcNAQEFBQADggIBABstowuiEQRE
+gYHl41tl0ggn8tbvXzh/cZ61AHSR9WAH3f+bR+AqJ68pRy+uFL58sP386RB7T+E
noxrgDV8/d5ytTaAzDSYUgJqH16mIpzANfDxCX+8EVZBs2Y1vJXNHQdorhG1vL4d
7n9+bqSwLST4xATWtLu4VZFXjJYKzjvTpeyZmdqMBMVkvbcfaU/+w2vQnZQBs0qT
S2+17Y58U+HeX0ZJqcpP4yyq07DRZHrjn21hzvYq9wAxqm02g5UPmFwEJrsbFu1v
NUTwSj2qzjlKzkHN8YG7y9lNrXvyVXXdtUoSCqJTvZO3ibnKBk/TBQhTdpGRzOXa
iXDaCxmi3jgJPeTXlbIdex/ZWrOvSDcXDR97cwkCqJBOjPz5rIaS9EIE03/ppx4I
q7JPVT10YOiUvzYYXIG+GJomodBdgW0mS0MBOOcT+XeLIPN9vaolmFArP4P2nsD7
t93MvhBjsBDMfVNvvyYLWMXpEFvNRHMcUlhDfVYSmQY5A5zRgerLZ8DbtGjjo4t7
yBNrB1lQPuq2R70K1rOhOY0ImDj8fhuy64rumv3SCzgjV6DrzIir8Qr2rKGp3HKn
grYcCsxe60y4ND7962iJ0uwQvrTWPMSDOvRYGV+8dr7TwXD83TjxgNwzZqhNRMfj
3TSIUIZttxqE0wrCFi61Rc4OMZBoBq6V
-----END CERTIFICATE-----
