Certificate:
    Data:
        Version: 3 (0x2)
        Serial Number: 70 (0x46)
    Signature Algorithm: sha1WithRSAEncryption
        Issuer: DC=org, DC=monroe, OU=Root-CA, CN=Root-CA-1
        Validity
            Not Before: Nov  4 15:22:09 2015 GMT
            Not After : Nov  3 15:22:09 2017 GMT
        Subject: DC=org, DC=monroe, O=POLITO, OU=Components, CN=Monroe_Repository_1
        Subject Public Key Info:
            Public Key Algorithm: rsaEncryption
                Public-Key: (2048 bit)
                Modulus:
                    00:b3:13:6c:9a:e0:eb:f1:0f:f7:42:e6:b1:c3:26:
                    da:70:43:11:83:4d:0e:a5:6c:98:19:af:f5:54:5a:
                    da:bc:12:75:1d:91:bf:66:92:0c:2a:5f:27:53:14:
                    0d:b0:a0:45:9e:1c:17:55:51:98:dd:45:48:3f:89:
                    90:89:6d:be:71:8c:49:a0:fb:b8:3c:a7:f5:67:f1:
                    c1:be:50:19:cf:3b:68:39:60:e3:29:38:3f:5b:28:
                    71:23:80:a4:54:3d:b4:ec:1e:33:2b:75:86:55:80:
                    40:ad:dd:24:88:4a:a5:52:89:be:66:cb:08:cd:fe:
                    54:b4:37:59:f0:13:8b:c0:77:64:8d:d6:74:b3:24:
                    de:9c:3f:97:67:48:ae:40:40:41:29:a8:a2:ce:ab:
                    c3:6f:04:b9:de:e6:45:5f:b1:06:7b:37:4f:9b:d4:
                    ae:0b:3a:2d:45:8b:4e:e6:b8:62:31:74:a9:2f:1d:
                    82:b0:4f:21:bc:de:a4:ce:b1:4d:b2:bb:0d:71:dd:
                    8f:3d:eb:e6:15:e9:4f:34:f2:2c:d8:83:54:ab:c5:
                    d6:d1:ab:bb:b4:c4:2c:58:66:75:db:ce:45:bd:8c:
                    cb:17:a3:19:cc:41:e7:cd:8c:ba:4f:b5:3d:37:bb:
                    02:04:27:b6:8a:d2:4f:17:5e:7d:f7:2a:93:71:8a:
                    68:0d
                Exponent: 65537 (0x10001)
        X509v3 extensions:
            X509v3 Key Usage: critical
                Digital Signature, Key Encipherment
            X509v3 Basic Constraints: 
                CA:FALSE
            X509v3 Extended Key Usage: 
                TLS Web Server Authentication, TLS Web Client Authentication
            X509v3 Subject Key Identifier: 
                76:E1:6C:AF:7C:9B:5A:92:0B:70:23:EA:B9:34:7B:61:FE:E8:E6:1A
            X509v3 Authority Key Identifier: 
                keyid:D8:E8:1C:37:D0:D4:F7:24:2C:84:56:E0:17:0A:E7:23:A9:94:CA:94

            X509v3 Subject Alternative Name: 
                DNS:monroe-repository.polito.it
    Signature Algorithm: sha1WithRSAEncryption
         69:e0:66:d4:48:f5:5a:a0:be:fb:69:0f:2d:d8:dd:14:31:be:
         98:28:f9:6e:cf:19:e9:0d:23:aa:54:8b:13:09:1a:91:67:62:
         7e:99:7b:2b:85:90:9c:a6:d2:9c:7a:ba:c1:fb:bc:f5:da:67:
         f0:9b:ed:0b:c2:d8:61:9e:81:6b:47:16:01:ca:d2:e2:f2:52:
         45:bb:84:40:9f:ff:2f:96:7c:91:68:38:60:67:46:4b:39:e6:
         7d:9d:5d:a4:28:2e:89:c7:d4:de:51:65:a5:4c:bf:bc:78:e9:
         78:d3:68:32:d5:b4:2f:3a:c7:64:55:8f:6e:7c:28:8e:00:69:
         03:c4:71:16:c7:57:4c:ba:88:14:ca:85:96:60:46:8f:b5:38:
         ac:dd:b0:6c:20:81:e3:2e:76:7e:99:18:94:07:12:f7:99:7b:
         d4:79:6e:f9:87:d2:52:a7:b2:38:26:a2:6c:cb:a4:37:7c:d2:
         c8:fb:65:d5:a1:eb:6f:8d:34:bb:40:6a:36:80:5f:35:8d:2a:
         d7:c0:9d:32:1d:64:1e:a7:fb:5a:f2:ab:b0:56:32:1e:64:1f:
         fe:2b:f8:e8:31:a4:d5:6e:9c:53:bf:95:de:f7:0b:45:8e:fa:
         b7:6b:13:d7:9d:87:e6:5b:2f:9d:25:fd:49:8d:32:4f:4b:b2:
         1f:da:00:45:1d:b9:42:b9:9c:97:7a:92:5c:35:3e:1d:e7:9a:
         f4:24:f1:67:5d:ed:fe:77:42:79:66:84:73:4e:06:1f:15:b8:
         4b:9a:af:f5:83:ca:a6:00:41:89:90:31:ce:c2:05:65:38:26:
         40:e8:05:10:26:66:37:b2:8c:19:35:28:ca:13:86:6c:5d:cd:
         d1:ab:12:05:30:23:50:a2:05:71:73:30:1e:10:70:ec:ea:66:
         0a:8f:5c:99:89:cb:9d:7e:13:66:bf:00:f7:09:1b:4b:68:a3:
         58:a8:ec:37:16:fa:b8:64:9c:80:d5:e4:e7:94:26:0d:07:21:
         d5:c7:1b:9a:01:d2:bc:63:73:d6:e7:4e:ad:ba:6d:b1:5d:bb:
         ce:43:94:17:d9:6c:97:bf:cd:22:2f:49:46:c7:b3:f8:5a:35:
         20:c5:1e:ca:94:36:04:88:f7:12:d6:f8:d7:c7:f9:e4:26:03:
         03:10:21:b6:1b:45:d0:f9:6e:55:3e:d5:ac:75:ee:7d:59:6b:
         b2:84:37:79:41:14:b1:42:32:69:e3:8a:98:a0:08:b2:8b:16:
         30:c2:f4:6c:9e:4d:d8:f6:61:3d:ba:07:43:11:22:2c:63:b4:
         f4:32:6f:56:c3:51:0b:70:4b:00:3d:bb:97:16:a1:47:3c:d6:
         2b:94:8a:6f:da:1e:b2:99
-----BEGIN CERTIFICATE-----
MIIE5TCCAs2gAwIBAgIBRjANBgkqhkiG9w0BAQUFADBTMRMwEQYKCZImiZPyLGQB
GRYDb3JnMRYwFAYKCZImiZPyLGQBGRYGbW9ucm9lMRAwDgYDVQQLDAdSb290LUNB
MRIwEAYDVQQDDAlSb290LUNBLTEwHhcNMTUxMTA0MTUyMjA5WhcNMTcxMTAzMTUy
MjA5WjBxMRMwEQYKCZImiZPyLGQBGRYDb3JnMRYwFAYKCZImiZPyLGQBGRYGbW9u
cm9lMQ8wDQYDVQQKDAZQT0xJVE8xEzARBgNVBAsMCkNvbXBvbmVudHMxHDAaBgNV
BAMME01vbnJvZV9SZXBvc2l0b3J5XzEwggEiMA0GCSqGSIb3DQEBAQUAA4IBDwAw
ggEKAoIBAQCzE2ya4OvxD/dC5rHDJtpwQxGDTQ6lbJgZr/VUWtq8EnUdkb9mkgwq
XydTFA2woEWeHBdVUZjdRUg/iZCJbb5xjEmg+7g8p/Vn8cG+UBnPO2g5YOMpOD9b
KHEjgKRUPbTsHjMrdYZVgECt3SSISqVSib5mywjN/lS0N1nwE4vAd2SN1nSzJN6c
P5dnSK5AQEEpqKLOq8NvBLne5kVfsQZ7N0+b1K4LOi1Fi07muGIxdKkvHYKwTyG8
3qTOsU2yuw1x3Y896+YV6U808izYg1SrxdbRq7u0xCxYZnXbzkW9jMsXoxnMQefN
jLpPtT03uwIEJ7aK0k8XXn33KpNximgNAgMBAAGjgaUwgaIwDgYDVR0PAQH/BAQD
AgWgMAkGA1UdEwQCMAAwHQYDVR0lBBYwFAYIKwYBBQUHAwEGCCsGAQUFBwMCMB0G
A1UdDgQWBBR24WyvfJtakgtwI+q5NHth/ujmGjAfBgNVHSMEGDAWgBTY6Bw30NT3
JCyEVuAXCucjqZTKlDAmBgNVHREEHzAdghttb25yb2UtcmVwb3NpdG9yeS5wb2xp
dG8uaXQwDQYJKoZIhvcNAQEFBQADggIBAGngZtRI9VqgvvtpDy3Y3RQxvpgo+W7P
GekNI6pUixMJGpFnYn6ZeyuFkJym0px6usH7vPXaZ/Cb7QvC2GGegWtHFgHK0uLy
UkW7hECf/y+WfJFoOGBnRks55n2dXaQoLonH1N5RZaVMv7x46XjTaDLVtC86x2RV
j258KI4AaQPEcRbHV0y6iBTKhZZgRo+1OKzdsGwggeMudn6ZGJQHEveZe9R5bvmH
0lKnsjgmomzLpDd80sj7ZdWh62+NNLtAajaAXzWNKtfAnTIdZB6n+1ryq7BWMh5k
H/4r+OgxpNVunFO/ld73C0WO+rdrE9edh+ZbL50l/UmNMk9Lsh/aAEUduUK5nJd6
klw1Ph3nmvQk8Wdd7f53QnlmhHNOBh8VuEuar/WDyqYAQYmQMc7CBWU4JkDoBRAm
ZjeyjBk1KMoThmxdzdGrEgUwI1CiBXFzMB4QcOzqZgqPXJmJy51+E2a/APcJG0to
o1io7DcW+rhknIDV5OeUJg0HIdXHG5oB0rxjc9bnTq26bbFdu85DlBfZbJe/zSIv
SUbHs/haNSDFHsqUNgSI9xLW+NfH+eQmAwMQIbYbRdD5blU+1ax17n1Za7KEN3lB
FLFCMmnjipigCLKLFjDC9GyeTdj2YT26B0MRIixjtPQyb1bDUQtwSwA9u5cWoUc8
1iuUim/aHrKZ
-----END CERTIFICATE-----
