Certificate:
    Data:
        Version: 3 (0x2)
        Serial Number: 1 (0x1)
    Signature Algorithm: sha1WithRSAEncryption
        Issuer: DC=org, DC=mplane, O=Test PKI, OU=Test Signing CA, CN=Test Signing CA
        Validity
            Not Before: Apr 29 08:44:59 2014 GMT
            Not After : Apr 28 08:44:59 2016 GMT
        Subject: DC=org, DC=mplane, O=Test PKI, OU=Test Clients, CN=mPlane-Client
        Subject Public Key Info:
            Public Key Algorithm: rsaEncryption
                Public-Key: (1024 bit)
                Modulus:
                    00:c8:15:76:83:01:2d:0b:14:44:29:c4:ca:0e:23:
                    fb:71:22:22:e2:57:40:2a:24:5e:7e:6b:c7:63:01:
                    99:c8:82:8d:08:22:3e:00:fe:38:0f:c8:e1:24:f4:
                    39:df:da:df:06:a0:76:5c:e6:76:bb:78:d3:3e:55:
                    7e:61:4f:5b:07:b6:41:32:c0:99:1c:70:2c:ec:88:
                    cd:96:bf:fc:f5:eb:88:f4:b3:74:63:d9:c3:0a:d7:
                    2b:39:20:e1:ca:64:87:c7:20:5a:a5:61:24:4e:93:
                    72:e3:b2:06:d8:84:a0:82:3d:97:9b:61:c8:6c:8f:
                    f9:62:6c:bc:bf:0a:f6:e9:07
                Exponent: 65537 (0x10001)
        X509v3 extensions:
            X509v3 Key Usage: critical
                Digital Signature, Key Encipherment
            X509v3 Basic Constraints: 
                CA:FALSE
            X509v3 Extended Key Usage: 
                E-mail Protection, TLS Web Client Authentication
            X509v3 Subject Key Identifier: 
                69:22:5E:6C:79:CA:E4:27:4A:69:C1:DD:35:A7:0A:F5:19:CC:63:CC
            X509v3 Authority Key Identifier: 
                keyid:C4:05:E9:64:AB:83:A5:5F:74:E4:3B:20:87:69:3D:5A:D2:C6:41:A3

    Signature Algorithm: sha1WithRSAEncryption
         44:23:1d:75:5f:15:9d:62:44:e2:86:52:3b:77:cf:56:4d:a0:
         10:5e:0c:33:4e:9c:82:bd:db:79:99:1c:50:d5:16:23:01:8e:
         2a:71:f2:63:30:33:28:c3:45:a9:5e:82:83:57:fb:8a:12:78:
         b5:39:09:7f:1d:a3:b3:29:42:7e:ae:1b:f2:a2:83:80:eb:00:
         6b:8e:79:fb:00:d9:de:e6:64:6d:35:2a:5b:90:a8:ba:e7:ef:
         d2:00:ce:1f:64:42:80:dd:9a:01:4a:65:e5:36:0b:c6:d0:a7:
         4d:ed:51:df:5e:75:3f:20:90:10:7d:3d:f3:57:4f:ad:ab:80:
         b4:69:ac:7e:bd:23:87:b6:2e:7f:6e:fb:21:c5:05:10:2b:99:
         24:f3:af:b3:a8:56:6c:c5:14:69:4d:11:a4:6a:b1:8f:e8:53:
         af:b7:de:ca:0f:a0:b5:4c:85:ae:ec:71:3f:bf:f6:63:7e:0b:
         b4:8c:26:19:67:0c:8b:0c:6c:7d:ff:19:e4:89:f0:22:b5:a2:
         4b:6b:ce:86:c3:53:10:65:6e:88:ca:0e:cc:cb:3c:11:d5:a8:
         79:7c:5a:0c:0e:0d:1c:33:5f:31:2b:54:59:75:0a:0b:af:f1:
         5c:39:bd:bb:99:75:00:6f:36:67:bd:1e:90:77:b3:3c:c5:1c:
         22:a4:4d:6e
-----BEGIN CERTIFICATE-----
MIIDVjCCAj6gAwIBAgIBATANBgkqhkiG9w0BAQUFADB0MRMwEQYKCZImiZPyLGQB
GRYDb3JnMRYwFAYKCZImiZPyLGQBGRYGbXBsYW5lMREwDwYDVQQKDAhUZXN0IFBL
STEYMBYGA1UECwwPVGVzdCBTaWduaW5nIENBMRgwFgYDVQQDDA9UZXN0IFNpZ25p
bmcgQ0EwHhcNMTQwNDI5MDg0NDU5WhcNMTYwNDI4MDg0NDU5WjBvMRMwEQYKCZIm
iZPyLGQBGRYDb3JnMRYwFAYKCZImiZPyLGQBGRYGbXBsYW5lMREwDwYDVQQKDAhU
ZXN0IFBLSTEVMBMGA1UECwwMVGVzdCBDbGllbnRzMRYwFAYDVQQDDA1tUGxhbmUt
Q2xpZW50MIGfMA0GCSqGSIb3DQEBAQUAA4GNADCBiQKBgQDIFXaDAS0LFEQpxMoO
I/txIiLiV0AqJF5+a8djAZnIgo0IIj4A/jgPyOEk9Dnf2t8GoHZc5na7eNM+VX5h
T1sHtkEywJkccCzsiM2Wv/z164j0s3Rj2cMK1ys5IOHKZIfHIFqlYSROk3LjsgbY
hKCCPZebYchsj/libLy/CvbpBwIDAQABo3wwejAOBgNVHQ8BAf8EBAMCBaAwCQYD
VR0TBAIwADAdBgNVHSUEFjAUBggrBgEFBQcDBAYIKwYBBQUHAwIwHQYDVR0OBBYE
FGkiXmx5yuQnSmnB3TWnCvUZzGPMMB8GA1UdIwQYMBaAFMQF6WSrg6VfdOQ7IIdp
PVrSxkGjMA0GCSqGSIb3DQEBBQUAA4IBAQBEIx11XxWdYkTihlI7d89WTaAQXgwz
TpyCvdt5mRxQ1RYjAY4qcfJjMDMow0WpXoKDV/uKEni1OQl/HaOzKUJ+rhvyooOA
6wBrjnn7ANne5mRtNSpbkKi65+/SAM4fZEKA3ZoBSmXlNgvG0KdN7VHfXnU/IJAQ
fT3zV0+tq4C0aax+vSOHti5/bvshxQUQK5kk86+zqFZsxRRpTRGkarGP6FOvt97K
D6C1TIWu7HE/v/Zjfgu0jCYZZwyLDGx9/xnkifAitaJLa86Gw1MQZW6Iyg7MyzwR
1ah5fFoMDg0cM18xK1RZdQoLr/FcOb27mXUAbzZnvR6Qd7M8xRwipE1u
-----END CERTIFICATE-----
