Certificate:
    Data:
        Version: 3 (0x2)
        Serial Number: 2 (0x2)
    Signature Algorithm: sha1WithRSAEncryption
        Issuer: DC=org, DC=mplane, O=Test PKI, OU=Test Signing CA, CN=Test Signing CA
        Validity
            Not Before: Apr 29 08:45:39 2014 GMT
            Not After : Apr 28 08:45:39 2016 GMT
        Subject: DC=org, DC=mplane, O=Test PKI, OU=Test Servers, CN=mPlane-Server
        Subject Public Key Info:
            Public Key Algorithm: rsaEncryption
                Public-Key: (2048 bit)
                Modulus:
                    00:a5:9c:f6:e0:84:8b:d7:65:00:e9:96:c0:a0:82:
                    e7:f9:a4:35:e3:7b:80:30:f8:3c:2a:f7:5b:26:03:
                    05:4c:95:31:33:cd:e3:9e:27:74:a4:ac:16:49:75:
                    cc:d1:62:c5:d1:d4:06:22:a3:d6:af:47:66:8d:9a:
                    88:04:de:ae:23:4d:2c:c3:74:9f:bb:3c:57:2c:0b:
                    40:57:c0:24:f1:53:7b:d0:9b:ff:05:aa:4d:2c:48:
                    b9:ea:54:18:4a:5d:96:d5:1b:b7:06:15:ce:02:bc:
                    8f:52:61:9d:1f:a0:74:c6:2b:e5:79:e9:70:82:ce:
                    4d:42:f9:a7:40:43:49:bb:52:ea:de:e8:de:68:d3:
                    90:b4:c3:2d:1f:f5:e9:4a:6e:53:85:69:39:f1:81:
                    fb:7c:bf:7b:17:32:d1:15:a5:6d:bc:02:02:48:3f:
                    3c:03:88:41:76:6e:e0:41:39:c9:c6:73:74:b7:7e:
                    dc:42:73:a2:a7:0a:0c:51:d0:06:2d:d9:54:07:a0:
                    be:5c:08:b4:f9:b9:15:6d:f2:b2:5b:1b:23:18:0f:
                    3e:18:7f:b1:55:71:94:02:f3:ed:a0:55:5a:63:0f:
                    8e:f7:c6:fe:6f:be:bd:f5:82:ab:1b:44:cc:e9:94:
                    91:00:ff:d4:c8:c8:24:87:bc:86:54:16:87:04:cc:
                    c4:b3
                Exponent: 65537 (0x10001)
        X509v3 extensions:
            X509v3 Key Usage: critical
                Digital Signature, Key Encipherment
            X509v3 Basic Constraints: 
                CA:FALSE
            X509v3 Extended Key Usage: 
                TLS Web Server Authentication, TLS Web Client Authentication
            X509v3 Subject Key Identifier: 
                D4:F3:0F:F9:35:30:F5:A6:43:2D:18:27:F5:56:E7:B6:23:E9:FF:F4
            X509v3 Authority Key Identifier: 
                keyid:C4:05:E9:64:AB:83:A5:5F:74:E4:3B:20:87:69:3D:5A:D2:C6:41:A3

            X509v3 Subject Alternative Name: 
                DNS:mplane.org
    Signature Algorithm: sha1WithRSAEncryption
         85:64:ed:39:cd:47:4c:62:a4:99:a5:f3:32:27:1b:87:9a:6a:
         f8:f2:a1:98:87:70:05:2b:2a:ef:0e:a8:9b:3f:27:e2:e8:a5:
         8b:68:96:ce:ae:c6:1d:45:76:10:ba:e6:ba:1f:35:e6:3a:b8:
         3d:3b:21:3f:fd:41:a4:72:ee:c2:34:61:3c:25:a5:8c:aa:a8:
         71:ac:31:a3:c2:fc:a7:e1:ac:cd:c9:00:ef:11:a1:77:9a:23:
         7a:51:cc:29:97:2b:98:81:3e:e3:a2:5f:25:d3:f4:a2:d6:f7:
         ea:b9:35:87:f2:31:5d:4b:30:ee:aa:b4:48:48:06:73:35:7f:
         32:0d:92:6f:82:bf:2d:1e:f8:46:74:fd:d4:e9:1c:7e:08:21:
         36:6b:3d:0d:ba:32:6e:8d:2b:91:75:43:61:b0:38:9b:c8:51:
         4b:29:1d:8b:d7:1a:c7:aa:03:e8:94:52:7b:da:fc:bd:5b:1b:
         6f:32:97:bd:92:ef:c2:73:73:4b:6e:b3:06:16:f5:25:d4:29:
         e6:09:64:53:cf:15:04:28:6a:45:e2:91:3e:2b:d6:1c:f9:fe:
         41:4a:33:07:f4:5b:66:d5:3e:52:0b:5e:5a:d4:dc:7b:41:89:
         60:ec:f0:44:35:00:03:ff:d0:3e:ea:ab:76:28:5e:a6:ff:be:
         b0:b3:01:c7
-----BEGIN CERTIFICATE-----
MIID8zCCAtugAwIBAgIBAjANBgkqhkiG9w0BAQUFADB0MRMwEQYKCZImiZPyLGQB
GRYDb3JnMRYwFAYKCZImiZPyLGQBGRYGbXBsYW5lMREwDwYDVQQKDAhUZXN0IFBL
STEYMBYGA1UECwwPVGVzdCBTaWduaW5nIENBMRgwFgYDVQQDDA9UZXN0IFNpZ25p
bmcgQ0EwHhcNMTQwNDI5MDg0NTM5WhcNMTYwNDI4MDg0NTM5WjBvMRMwEQYKCZIm
iZPyLGQBGRYDb3JnMRYwFAYKCZImiZPyLGQBGRYGbXBsYW5lMREwDwYDVQQKDAhU
ZXN0IFBLSTEVMBMGA1UECwwMVGVzdCBTZXJ2ZXJzMRYwFAYDVQQDDA1tUGxhbmUt
U2VydmVyMIIBIjANBgkqhkiG9w0BAQEFAAOCAQ8AMIIBCgKCAQEApZz24ISL12UA
6ZbAoILn+aQ143uAMPg8KvdbJgMFTJUxM83jnid0pKwWSXXM0WLF0dQGIqPWr0dm
jZqIBN6uI00sw3SfuzxXLAtAV8Ak8VN70Jv/BapNLEi56lQYSl2W1Ru3BhXOAryP
UmGdH6B0xivleelwgs5NQvmnQENJu1Lq3ujeaNOQtMMtH/XpSm5ThWk58YH7fL97
FzLRFaVtvAICSD88A4hBdm7gQTnJxnN0t37cQnOipwoMUdAGLdlUB6C+XAi0+bkV
bfKyWxsjGA8+GH+xVXGUAvPtoFVaYw+O98b+b7699YKrG0TM6ZSRAP/UyMgkh7yG
VBaHBMzEswIDAQABo4GUMIGRMA4GA1UdDwEB/wQEAwIFoDAJBgNVHRMEAjAAMB0G
A1UdJQQWMBQGCCsGAQUFBwMBBggrBgEFBQcDAjAdBgNVHQ4EFgQU1PMP+TUw9aZD
LRgn9VbntiPp//QwHwYDVR0jBBgwFoAUxAXpZKuDpV905Dsgh2k9WtLGQaMwFQYD
VR0RBA4wDIIKbXBsYW5lLm9yZzANBgkqhkiG9w0BAQUFAAOCAQEAhWTtOc1HTGKk
maXzMicbh5pq+PKhmIdwBSsq7w6omz8n4uili2iWzq7GHUV2ELrmuh815jq4PTsh
P/1BpHLuwjRhPCWljKqocawxo8L8p+GszckA7xGhd5ojelHMKZcrmIE+46JfJdP0
otb36rk1h/IxXUsw7qq0SEgGczV/Mg2Sb4K/LR74RnT91OkcfgghNms9Dboybo0r
kXVDYbA4m8hRSykdi9cax6oD6JRSe9r8vVsbbzKXvZLvwnNzS26zBhb1JdQp5glk
U88VBChqReKRPivWHPn+QUozB/RbZtU+UgteWtTce0GJYOzwRDUAA//QPuqrdihe
pv++sLMBxw==
-----END CERTIFICATE-----
