Certificate:
    Data:
        Version: 3 (0x2)
        Serial Number: 1 (0x1)
    Signature Algorithm: sha1WithRSAEncryption
        Issuer: DC=org, DC=mplane, O=mPlane, OU=mPlane Signing CA, CN=mPlane Signing CA
        Validity
            Not Before: Feb 24 16:55:01 2014 GMT
            Not After : Feb 24 16:55:01 2016 GMT
        Subject: DC=org, DC=mplane, DC=mplane, O=mPlane, OU=mPlane, CN=Server
        Subject Public Key Info:
            Public Key Algorithm: rsaEncryption
                Public-Key: (2048 bit)
                Modulus:
                    00:be:24:84:4b:bc:e0:7d:ef:5c:16:1a:02:36:95:
                    fc:77:0e:98:aa:79:8f:83:4f:70:59:04:5c:a6:1a:
                    55:dd:f2:03:7e:47:5f:91:a9:9a:e1:62:5d:e9:41:
                    4a:34:42:dc:fa:38:cb:4d:96:06:90:77:af:1c:51:
                    15:10:46:7d:f6:92:14:96:4e:0b:c3:30:c6:fb:fd:
                    d3:2d:bf:32:ac:2b:05:c4:f9:37:15:1f:d6:77:dd:
                    a5:60:1e:f7:53:bb:45:0c:df:a4:d5:9e:b2:e8:af:
                    03:aa:a9:25:d2:48:50:db:8f:80:9a:9f:31:d5:05:
                    72:91:e7:f7:14:83:f2:28:45:c8:23:1f:3b:30:7e:
                    17:f5:16:09:b2:12:4b:34:5c:6f:fd:82:9e:f6:88:
                    62:ac:5a:98:0f:b3:de:a4:7d:60:3e:e1:a2:12:53:
                    ee:19:9b:30:a6:07:c6:fb:06:24:ba:6b:3a:de:3d:
                    21:bf:40:51:8d:8f:25:8b:60:81:7c:3a:2d:db:53:
                    6e:16:2e:c3:0a:cf:b8:e2:92:b9:3b:a5:22:e1:1f:
                    55:ba:e1:09:04:fc:1d:d1:9a:0c:44:9e:2a:83:c0:
                    00:ee:e6:48:91:f6:e5:5c:9d:eb:0b:1e:2a:e1:05:
                    18:e2:04:8b:19:18:bc:ce:bf:ab:ac:98:a9:2b:52:
                    f3:43
                Exponent: 65537 (0x10001)
        X509v3 extensions:
            X509v3 Key Usage: critical
                Digital Signature, Key Encipherment
            X509v3 Basic Constraints: 
                CA:FALSE
            X509v3 Extended Key Usage: 
                TLS Web Server Authentication, TLS Web Client Authentication
            X509v3 Subject Key Identifier: 
                DB:0A:D6:16:CD:7E:1A:3D:48:A6:D9:10:0C:B8:19:B0:BC:BA:75:4C
            X509v3 Authority Key Identifier: 
                keyid:A5:E8:D3:21:71:D2:1A:C9:53:85:85:1D:2D:BC:87:17:2A:81:F2:F4

            X509v3 Subject Alternative Name: 
                DNS:yourdomain.tld
    Signature Algorithm: sha1WithRSAEncryption
         aa:c3:98:c0:c1:8f:4e:99:c1:57:59:f7:33:c9:50:27:0f:65:
         86:93:50:7d:df:4f:04:a5:1e:ec:47:54:d9:1b:1d:de:20:a0:
         3b:02:dd:8c:02:ac:27:c1:49:47:0f:4c:2d:f9:b0:55:29:21:
         43:70:7a:c3:58:c6:4e:09:22:dd:e8:7c:ac:45:9c:62:9a:43:
         21:f6:49:a7:23:6f:32:7f:21:11:aa:06:06:8a:36:02:ff:1f:
         1b:4e:6c:ce:9a:c9:ff:3e:7e:17:cf:c7:dc:6b:9d:90:b4:b1:
         b2:39:17:b8:2b:db:df:80:88:a1:76:dd:a8:76:4a:1c:9f:8d:
         7d:6a:01:3f:b7:50:25:1b:ba:a7:3b:35:40:4d:fa:e4:25:60:
         ee:f0:c5:c2:d2:10:78:90:18:1c:f2:2e:2a:1c:86:4a:79:52:
         b5:13:76:00:73:ec:32:83:9e:86:c1:a4:7a:69:28:13:aa:d7:
         9b:cc:ce:c3:b0:15:52:1b:ae:71:16:25:fc:27:c7:bc:33:2e:
         03:f7:2a:8a:94:5c:46:3f:18:e5:62:0a:9f:8c:6d:be:7f:81:
         69:31:a3:36:5b:6e:ac:b7:b2:e3:49:56:73:13:9d:cd:ac:92:
         81:61:7e:39:5c:a4:00:90:84:50:8c:9f:2a:7c:5c:ea:d2:64:
         59:a2:ee:10:29:d7:a1:c6:4a:b9:d6:4f:da:77:f3:ac:ca:97:
         01:3b:97:9a:2e:6e:8c:fc:41:6a:c6:57:79:2b:d5:1f:cc:e9:
         1d:bb:dd:21:16:b8:3b:cd:f0:0e:e7:06:b5:bd:c2:f5:82:fd:
         5b:8a:48:d1:f2:2c:33:fa:c9:91:95:18:f2:ac:a3:34:7e:38:
         e5:e1:74:54:e5:d1:0a:67:cc:14:ae:20:83:88:81:d8:5a:a4:
         af:70:96:91:48:b2:5e:7f:70:17:25:43:93:9d:86:21:65:55:
         ed:1e:2c:21:a8:52:9d:a1:0a:e7:d5:14:25:7c:24:5b:b4:c4:
         4c:cb:ee:5c:91:2a:be:68:81:1b:50:6b:ab:a3:f7:06:42:bf:
         f1:a5:eb:aa:80:7a:8a:d1:9b:af:6e:bd:61:21:41:99:aa:62:
         c1:39:4e:74:62:04:91:21:9c:f7:46:35:43:cd:46:a2:d6:bd:
         8a:61:e8:45:dc:7d:0a:3f:4f:cd:3d:5f:74:d1:2f:c3:1e:93:
         ec:bd:cf:72:0a:e2:44:2c:92:57:cb:d1:b3:17:75:3f:3c:17:
         c8:8a:0b:9f:6c:70:c7:b6:e5:76:0d:91:21:c0:31:f5:74:98:
         b8:86:db:6f:47:06:f3:cf:98:df:a9:ab:40:60:c0:57:36:9a:
         c5:d3:e6:5d:87:12:c0:b5
-----BEGIN CERTIFICATE-----
MIIFAjCCAuqgAwIBAgIBATANBgkqhkiG9w0BAQUFADB2MRMwEQYKCZImiZPyLGQB
GRYDb3JnMRYwFAYKCZImiZPyLGQBGRYGbXBsYW5lMQ8wDQYDVQQKDAZtUGxhbmUx
GjAYBgNVBAsMEW1QbGFuZSBTaWduaW5nIENBMRowGAYDVQQDDBFtUGxhbmUgU2ln
bmluZyBDQTAeFw0xNDAyMjQxNjU1MDFaFw0xNjAyMjQxNjU1MDFaMHgxEzARBgoJ
kiaJk/IsZAEZFgNvcmcxFjAUBgoJkiaJk/IsZAEZFgZtcGxhbmUxFjAUBgoJkiaJ
k/IsZAEZFgZtcGxhbmUxDzANBgNVBAoMBm1QbGFuZTEPMA0GA1UECwwGbVBsYW5l
MQ8wDQYDVQQDDAZTZXJ2ZXIwggEiMA0GCSqGSIb3DQEBAQUAA4IBDwAwggEKAoIB
AQC+JIRLvOB971wWGgI2lfx3DpiqeY+DT3BZBFymGlXd8gN+R1+RqZrhYl3pQUo0
Qtz6OMtNlgaQd68cURUQRn32khSWTgvDMMb7/dMtvzKsKwXE+TcVH9Z33aVgHvdT
u0UM36TVnrLorwOqqSXSSFDbj4CanzHVBXKR5/cUg/IoRcgjHzswfhf1FgmyEks0
XG/9gp72iGKsWpgPs96kfWA+4aISU+4ZmzCmB8b7BiS6azrePSG/QFGNjyWLYIF8
Oi3bU24WLsMKz7jikrk7pSLhH1W64QkE/B3RmgxEniqDwADu5kiR9uVcnesLHirh
BRjiBIsZGLzOv6usmKkrUvNDAgMBAAGjgZgwgZUwDgYDVR0PAQH/BAQDAgWgMAkG
A1UdEwQCMAAwHQYDVR0lBBYwFAYIKwYBBQUHAwEGCCsGAQUFBwMCMB0GA1UdDgQW
BBTbCtYWzX4aPUim2RAMuBmwvLp1TDAfBgNVHSMEGDAWgBSl6NMhcdIayVOFhR0t
vIcXKoHy9DAZBgNVHREEEjAQgg55b3VyZG9tYWluLnRsZDANBgkqhkiG9w0BAQUF
AAOCAgEAqsOYwMGPTpnBV1n3M8lQJw9lhpNQfd9PBKUe7EdU2Rsd3iCgOwLdjAKs
J8FJRw9MLfmwVSkhQ3B6w1jGTgki3eh8rEWcYppDIfZJpyNvMn8hEaoGBoo2Av8f
G05szprJ/z5+F8/H3GudkLSxsjkXuCvb34CIoXbdqHZKHJ+NfWoBP7dQJRu6pzs1
QE365CVg7vDFwtIQeJAYHPIuKhyGSnlStRN2AHPsMoOehsGkemkoE6rXm8zOw7AV
UhuucRYl/CfHvDMuA/cqipRcRj8Y5WIKn4xtvn+BaTGjNlturLey40lWcxOdzayS
gWF+OVykAJCEUIyfKnxc6tJkWaLuECnXocZKudZP2nfzrMqXATuXmi5ujPxBasZX
eSvVH8zpHbvdIRa4O83wDucGtb3C9YL9W4pI0fIsM/rJkZUY8qyjNH445eF0VOXR
CmfMFK4gg4iB2Fqkr3CWkUiyXn9wFyVDk52GIWVV7R4sIahSnaEK59UUJXwkW7TE
TMvuXJEqvmiBG1Brq6P3BkK/8aXrqoB6itGbr269YSFBmapiwTlOdGIEkSGc90Y1
Q81Gota9imHoRdx9Cj9PzT1fdNEvwx6T7L3PcgriRCySV8vRsxd1PzwXyIoLn2xw
x7bldg2RIcAx9XSYuIbbb0cG88+Y36mrQGDAVzaaxdPmXYcSwLU=
-----END CERTIFICATE-----
