Certificate:
    Data:
        Version: 3 (0x2)
        Serial Number: 2 (0x2)
    Signature Algorithm: sha1WithRSAEncryption
        Issuer: DC=org, DC=mplane, OU=Root-CA, CN=Root-CA-1
        Validity
            Not Before: Oct  3 11:09:32 2014 GMT
            Not After : Oct  2 11:09:32 2016 GMT
        Subject: DC=org, DC=mplane, O=SSB, OU=Clients, CN=Client-1
        Subject Public Key Info:
            Public Key Algorithm: rsaEncryption
                Public-Key: (1024 bit)
                Modulus:
                    00:ba:a4:f2:98:f2:d9:45:01:a2:86:6e:71:1c:ec:
                    e4:17:37:78:c1:3b:da:d5:b5:de:47:4a:f9:71:39:
                    c3:41:6f:bf:98:67:f9:ac:b9:01:21:01:e7:f4:07:
                    3e:a6:df:c1:61:1a:cb:45:d0:14:2f:07:b0:0a:5f:
                    59:c4:6c:d9:28:c2:91:27:9f:66:59:64:01:7c:fd:
                    91:4a:63:b3:16:4f:d8:e6:15:2b:bf:74:e4:78:4d:
                    1e:71:1a:66:b4:4c:b8:b3:53:b7:91:14:f9:db:3b:
                    8b:01:5b:26:96:7b:a5:77:d0:8e:c7:13:46:60:54:
                    58:43:eb:77:35:b2:a9:de:6d
                Exponent: 65537 (0x10001)
        X509v3 extensions:
            X509v3 Key Usage: critical
                Digital Signature, Key Encipherment
            X509v3 Basic Constraints: 
                CA:FALSE
            X509v3 Extended Key Usage: 
                E-mail Protection, TLS Web Client Authentication
            X509v3 Subject Key Identifier: 
                FE:1D:3F:0A:05:3E:13:B1:A1:27:E8:18:1F:4A:EF:1D:36:0C:66:52
            X509v3 Authority Key Identifier: 
                keyid:5B:74:DB:A9:23:6B:AF:29:24:ED:21:13:BE:34:DB:94:CB:24:62:F0

            X509v3 Subject Alternative Name: 
                DNS:Client-1.SSB.mplane.org
    Signature Algorithm: sha1WithRSAEncryption
         61:6e:d2:d2:48:f3:50:ab:4d:6c:a4:eb:ad:90:16:62:da:72:
         56:b5:f6:38:65:d7:8e:6d:48:74:d4:65:80:c5:ae:b4:74:7c:
         45:3e:2e:4b:5a:2f:aa:ac:a9:8b:45:ee:48:9d:07:f0:27:fc:
         41:a8:25:52:7e:a9:e7:0a:ea:8e:77:c4:1c:5b:5d:4a:93:d2:
         69:21:7a:d5:c2:48:a8:95:62:f2:d0:19:f8:37:84:70:1a:d0:
         c1:6e:a3:9a:61:92:3a:8a:52:6c:e3:f3:4c:4a:48:a1:57:de:
         e5:25:2a:48:81:95:be:6e:b8:f8:32:63:21:0d:11:99:b0:58:
         fb:cb:f1:6a:79:65:11:6d:3d:94:5b:8c:89:ea:43:5f:1f:d5:
         08:09:51:79:62:41:65:f1:b8:39:a5:1c:98:c9:f0:f5:7b:01:
         de:47:5f:dc:1c:ce:f5:33:1f:51:33:af:1d:62:85:55:93:5b:
         99:41:6f:0e:0a:c9:0f:8a:04:af:e9:e1:f6:97:d2:bb:63:37:
         fb:8b:a8:fd:9e:07:dd:10:cb:31:be:ab:9f:b1:e2:28:7c:34:
         b5:a2:7c:e4:ac:c4:de:a0:d4:fb:39:7b:ce:76:c7:03:f4:5b:
         cd:b6:d8:a2:cd:46:5b:8e:10:52:6d:7e:b2:68:9a:81:d6:25:
         80:d0:a9:95:92:e2:bd:33:d8:08:dc:24:38:89:67:91:78:42:
         6e:c3:01:50:5f:17:1e:cb:c6:0f:48:f3:fa:5f:e8:e7:90:1b:
         ae:4e:16:63:cc:7c:fb:ad:8e:1d:e8:f4:20:87:74:11:c5:a5:
         b8:f1:f0:b6:71:60:18:fe:61:a3:51:a5:1c:d0:c3:c1:4b:88:
         98:4f:d2:7f:f5:03:dc:86:83:2c:8f:32:c9:90:0e:09:6c:5f:
         55:38:88:8a:ed:b9:8c:f8:bf:13:40:55:bc:84:7b:46:99:7c:
         fd:9f:86:70:51:d6:6c:af:e3:84:1d:e1:0a:06:a1:0a:18:0e:
         2b:f2:b3:0e:e0:93:88:db:19:ab:e3:a4:88:6a:9d:32:e8:c1:
         38:1a:fe:b4:dc:fb:7a:0b:fa:1c:b3:44:e2:ff:eb:7b:bb:34:
         96:10:99:c8:06:8a:72:85:aa:13:e2:a1:99:2d:84:f5:74:2c:
         25:e1:ac:af:02:89:a7:57:2e:f9:37:8d:73:18:93:6e:86:73:
         08:8f:22:0b:54:d9:e3:55:3b:31:c9:26:cd:5b:aa:64:bd:b6:
         aa:f9:9f:b1:a0:98:81:99:92:25:1a:a8:5d:16:36:b1:80:52:
         ef:3a:5a:f7:39:95:89:f1:bc:70:fb:ea:77:45:e3:6b:2a:f1:
         e1:dc:81:5d:10:1e:9e:b9
-----BEGIN CERTIFICATE-----
MIIETDCCAjSgAwIBAgIBAjANBgkqhkiG9w0BAQUFADBTMRMwEQYKCZImiZPyLGQB
GRYDb3JnMRYwFAYKCZImiZPyLGQBGRYGbXBsYW5lMRAwDgYDVQQLDAdSb290LUNB
MRIwEAYDVQQDDAlSb290LUNBLTEwHhcNMTQxMDAzMTEwOTMyWhcNMTYxMDAyMTEw
OTMyWjBgMRMwEQYKCZImiZPyLGQBGRYDb3JnMRYwFAYKCZImiZPyLGQBGRYGbXBs
YW5lMQwwCgYDVQQKDANTU0IxEDAOBgNVBAsMB0NsaWVudHMxETAPBgNVBAMMCENs
aWVudC0xMIGfMA0GCSqGSIb3DQEBAQUAA4GNADCBiQKBgQC6pPKY8tlFAaKGbnEc
7OQXN3jBO9rVtd5HSvlxOcNBb7+YZ/msuQEhAef0Bz6m38FhGstF0BQvB7AKX1nE
bNkowpEnn2ZZZAF8/ZFKY7MWT9jmFSu/dOR4TR5xGma0TLizU7eRFPnbO4sBWyaW
e6V30I7HE0ZgVFhD63c1sqnebQIDAQABo4GhMIGeMA4GA1UdDwEB/wQEAwIFoDAJ
BgNVHRMEAjAAMB0GA1UdJQQWMBQGCCsGAQUFBwMEBggrBgEFBQcDAjAdBgNVHQ4E
FgQU/h0/CgU+E7GhJ+gYH0rvHTYMZlIwHwYDVR0jBBgwFoAUW3TbqSNrrykk7SET
vjTblMskYvAwIgYDVR0RBBswGYIXQ2xpZW50LTEuU1NCLm1wbGFuZS5vcmcwDQYJ
KoZIhvcNAQEFBQADggIBAGFu0tJI81CrTWyk662QFmLacla19jhl145tSHTUZYDF
rrR0fEU+LktaL6qsqYtF7kidB/An/EGoJVJ+qecK6o53xBxbXUqT0mkhetXCSKiV
YvLQGfg3hHAa0MFuo5phkjqKUmzj80xKSKFX3uUlKkiBlb5uuPgyYyENEZmwWPvL
8Wp5ZRFtPZRbjInqQ18f1QgJUXliQWXxuDmlHJjJ8PV7Ad5HX9wczvUzH1Ezrx1i
hVWTW5lBbw4KyQ+KBK/p4faX0rtjN/uLqP2eB90QyzG+q5+x4ih8NLWifOSsxN6g
1Ps5e852xwP0W8222KLNRluOEFJtfrJomoHWJYDQqZWS4r0z2AjcJDiJZ5F4Qm7D
AVBfFx7Lxg9I8/pf6OeQG65OFmPMfPutjh3o9CCHdBHFpbjx8LZxYBj+YaNRpRzQ
w8FLiJhP0n/1A9yGgyyPMsmQDglsX1U4iIrtuYz4vxNAVbyEe0aZfP2fhnBR1myv
44Qd4QoGoQoYDivysw7gk4jbGavjpIhqnTLowTga/rTc+3oL+hyzROL/63u7NJYQ
mcgGinKFqhPioZkthPV0LCXhrK8CiadXLvk3jXMYk26GcwiPIgtU2eNVOzHJJs1b
qmS9tqr5n7GgmIGZkiUaqF0WNrGAUu86Wvc5lYnxvHD76ndF42sq8eHcgV0QHp65
-----END CERTIFICATE-----
