Certificate:
    Data:
        Version: 3 (0x2)
        Serial Number: 4 (0x4)
    Signature Algorithm: sha1WithRSAEncryption
        Issuer: DC=org, DC=mplane, OU=Root-CA, CN=Root-CA-1
        Validity
            Not Before: Oct  3 11:10:39 2014 GMT
            Not After : Oct  2 11:10:39 2016 GMT
        Subject: DC=org, DC=mplane, O=SSB, OU=Components, CN=Component-1
        Subject Public Key Info:
            Public Key Algorithm: rsaEncryption
                Public-Key: (1024 bit)
                Modulus:
                    00:a4:8b:78:e0:73:fd:cf:13:91:02:9c:8f:12:62:
                    2d:74:c7:52:54:9c:20:bb:8e:ad:b8:31:df:22:df:
                    33:7b:91:eb:e2:f8:d2:90:fe:6a:a3:a7:14:cb:4c:
                    68:97:0e:d9:69:7c:d8:bc:e1:d6:04:90:79:12:96:
                    fe:94:db:65:a9:b2:cd:2e:ae:00:ef:0a:37:21:34:
                    2c:86:01:cc:e4:16:90:8c:5f:b5:c9:3f:70:f5:27:
                    4f:28:b8:19:fa:c7:fe:fc:a1:0e:dd:e5:8b:ba:b9:
                    6c:ee:d9:9e:87:cf:99:bd:93:65:38:3b:e2:8d:28:
                    36:8b:de:4c:21:bd:fb:9e:4d
                Exponent: 65537 (0x10001)
        X509v3 extensions:
            X509v3 Key Usage: critical
                Digital Signature, Key Encipherment
            X509v3 Basic Constraints: 
                CA:FALSE
            X509v3 Extended Key Usage: 
                E-mail Protection, TLS Web Client Authentication
            X509v3 Subject Key Identifier: 
                F0:A8:29:D3:9F:6E:07:25:DB:28:F0:9E:64:8D:99:32:25:6F:A2:44
            X509v3 Authority Key Identifier: 
                keyid:5B:74:DB:A9:23:6B:AF:29:24:ED:21:13:BE:34:DB:94:CB:24:62:F0

            X509v3 Subject Alternative Name: 
                DNS:Component-1.SSB.mplane.org
    Signature Algorithm: sha1WithRSAEncryption
         18:d2:c7:31:35:a9:c7:d4:aa:f5:bd:cc:ef:ed:5d:30:c5:27:
         a7:2c:ab:b6:6f:03:05:bb:84:f7:fc:f3:0b:f7:ff:97:9c:45:
         86:3e:98:f9:89:29:ce:15:6f:26:75:98:8e:fd:cb:e4:62:ba:
         68:32:9c:34:b0:64:bc:68:3f:d6:8c:b2:0d:72:81:8f:e0:89:
         b8:75:a9:ae:9d:dc:5b:c9:7e:5a:9d:13:8f:f6:52:db:4c:21:
         b9:b9:fd:69:5f:85:4c:19:76:9b:dd:05:eb:69:8a:0f:02:15:
         3e:e4:b3:32:54:ca:20:54:31:0e:e4:4c:dd:42:54:b7:b5:7c:
         90:2c:a6:df:e7:bc:9c:cb:2a:86:b6:9a:ce:d7:c3:9c:bd:0d:
         17:fb:e4:4a:cc:42:c5:bf:6c:d4:22:bc:45:6e:b6:ba:33:45:
         2c:29:2e:00:42:95:15:40:50:45:0d:84:19:32:2b:b0:3d:bd:
         23:d6:4f:71:8e:d7:71:75:7a:4e:b6:09:e3:41:6f:3a:bb:d6:
         a3:da:88:ef:00:40:08:ce:8c:62:b1:22:32:55:31:35:e4:70:
         c8:d5:1a:86:af:a9:a8:95:4d:48:c6:fc:0d:e0:25:83:ad:d8:
         53:76:a1:78:cb:d6:e7:28:d0:6d:38:f2:b7:88:aa:3b:76:f3:
         61:80:85:9a:0e:a3:67:e4:cb:d5:e5:ab:11:d0:06:b6:56:72:
         43:36:58:ae:d2:f5:3f:b3:0c:e8:f8:b2:be:73:f4:91:6c:26:
         49:91:2a:65:bc:ff:c8:df:e6:d6:b8:e0:42:67:26:b9:17:d5:
         be:49:8b:9f:e0:0c:4e:49:da:0f:c2:f5:1a:e3:12:3e:65:c3:
         07:b6:8c:87:12:88:a0:d7:69:02:bc:cb:67:32:73:a3:e9:8d:
         ce:09:8f:f8:c8:6f:51:85:bc:cb:16:8c:ca:96:ea:cf:10:59:
         5b:d0:a9:d8:56:45:46:c3:54:b2:5d:29:82:53:5c:dd:54:e3:
         11:35:89:79:f8:ef:f4:9e:c2:16:0b:a4:33:d3:05:58:9e:a8:
         48:49:36:82:e8:6a:de:a4:32:d9:d5:ac:a3:58:ac:32:7a:83:
         ec:90:08:d6:14:85:d7:83:86:b0:3d:05:05:4b:42:a0:7a:7c:
         f0:2b:cb:39:54:04:4f:fa:96:65:74:53:99:c8:6c:b8:d0:ee:
         33:a6:4f:69:d4:b3:a3:70:5c:7e:f6:df:92:e0:f0:ed:f1:76:
         46:88:4c:e2:aa:b4:a0:7f:60:ab:75:5b:0f:6d:06:47:1f:e8:
         8c:61:ec:1c:1b:5c:70:51:53:a3:98:54:98:e8:f3:e8:04:e3:
         a7:11:19:57:99:f3:a6:90
-----BEGIN CERTIFICATE-----
MIIEVTCCAj2gAwIBAgIBBDANBgkqhkiG9w0BAQUFADBTMRMwEQYKCZImiZPyLGQB
GRYDb3JnMRYwFAYKCZImiZPyLGQBGRYGbXBsYW5lMRAwDgYDVQQLDAdSb290LUNB
MRIwEAYDVQQDDAlSb290LUNBLTEwHhcNMTQxMDAzMTExMDM5WhcNMTYxMDAyMTEx
MDM5WjBmMRMwEQYKCZImiZPyLGQBGRYDb3JnMRYwFAYKCZImiZPyLGQBGRYGbXBs
YW5lMQwwCgYDVQQKDANTU0IxEzARBgNVBAsMCkNvbXBvbmVudHMxFDASBgNVBAMM
C0NvbXBvbmVudC0xMIGfMA0GCSqGSIb3DQEBAQUAA4GNADCBiQKBgQCki3jgc/3P
E5ECnI8SYi10x1JUnCC7jq24Md8i3zN7kevi+NKQ/mqjpxTLTGiXDtlpfNi84dYE
kHkSlv6U22Wpss0urgDvCjchNCyGAczkFpCMX7XJP3D1J08ouBn6x/78oQ7d5Yu6
uWzu2Z6Hz5m9k2U4O+KNKDaL3kwhvfueTQIDAQABo4GkMIGhMA4GA1UdDwEB/wQE
AwIFoDAJBgNVHRMEAjAAMB0GA1UdJQQWMBQGCCsGAQUFBwMEBggrBgEFBQcDAjAd
BgNVHQ4EFgQU8Kgp059uByXbKPCeZI2ZMiVvokQwHwYDVR0jBBgwFoAUW3TbqSNr
rykk7SETvjTblMskYvAwJQYDVR0RBB4wHIIaQ29tcG9uZW50LTEuU1NCLm1wbGFu
ZS5vcmcwDQYJKoZIhvcNAQEFBQADggIBABjSxzE1qcfUqvW9zO/tXTDFJ6csq7Zv
AwW7hPf88wv3/5ecRYY+mPmJKc4VbyZ1mI79y+RiumgynDSwZLxoP9aMsg1ygY/g
ibh1qa6d3FvJflqdE4/2UttMIbm5/WlfhUwZdpvdBetpig8CFT7kszJUyiBUMQ7k
TN1CVLe1fJAspt/nvJzLKoa2ms7Xw5y9DRf75ErMQsW/bNQivEVutrozRSwpLgBC
lRVAUEUNhBkyK7A9vSPWT3GO13F1ek62CeNBbzq71qPaiO8AQAjOjGKxIjJVMTXk
cMjVGoavqaiVTUjG/A3gJYOt2FN2oXjL1uco0G048reIqjt282GAhZoOo2fky9Xl
qxHQBrZWckM2WK7S9T+zDOj4sr5z9JFsJkmRKmW8/8jf5ta44EJnJrkX1b5Ji5/g
DE5J2g/C9RrjEj5lwwe2jIcSiKDXaQK8y2cyc6Ppjc4Jj/jIb1GFvMsWjMqW6s8Q
WVvQqdhWRUbDVLJdKYJTXN1U4xE1iXn47/SewhYLpDPTBVieqEhJNoLoat6kMtnV
rKNYrDJ6g+yQCNYUhdeDhrA9BQVLQqB6fPAryzlUBE/6lmV0U5nIbLjQ7jOmT2nU
s6NwXH7235Lg8O3xdkaITOKqtKB/YKt1Ww9tBkcf6Ixh7BwbXHBRU6OYVJjo8+gE
46cRGVeZ86aQ
-----END CERTIFICATE-----
