Certificate:
    Data:
        Version: 3 (0x2)
        Serial Number: 3 (0x3)
    Signature Algorithm: sha1WithRSAEncryption
        Issuer: DC=org, DC=mplane, OU=Root-CA, CN=Root-CA-1
        Validity
            Not Before: Oct  3 11:10:06 2014 GMT
            Not After : Oct  2 11:10:06 2016 GMT
        Subject: DC=org, DC=mplane, O=SSB, OU=Supervisors, CN=Supervisor-1
        Subject Public Key Info:
            Public Key Algorithm: rsaEncryption
                Public-Key: (2048 bit)
                Modulus:
                    00:ca:a6:0e:c2:3a:b4:3f:57:87:95:c0:e0:d7:81:
                    04:fa:bb:c5:d9:23:1d:f7:a1:7d:78:df:fd:cf:f0:
                    ab:65:f1:79:4b:c6:2d:5a:84:0a:e6:52:2c:fc:a6:
                    f0:3c:31:4d:5e:94:f1:3d:f8:69:9d:89:da:de:12:
                    4b:88:73:8b:9d:29:b6:a2:84:24:19:2d:08:0c:e5:
                    c5:19:58:2c:d2:7d:64:fa:cf:d3:da:c1:71:9f:4f:
                    65:91:fe:ec:10:1f:ea:6b:6e:3c:da:dd:58:ff:32:
                    fa:bc:3b:58:41:fc:83:70:9c:f7:51:4a:9b:05:87:
                    82:99:ac:da:8b:31:d4:62:32:ec:5b:51:6e:da:09:
                    b9:20:84:92:d1:8f:9b:6f:61:85:40:de:41:72:dc:
                    45:6a:6a:5e:21:2f:00:60:15:f7:db:ee:b0:46:74:
                    50:88:f0:f3:4c:47:d4:0e:b1:c7:a0:db:e7:5a:09:
                    3d:4d:30:0c:89:82:56:30:fe:2e:24:bd:ab:24:07:
                    e7:0e:b2:0d:f1:75:af:8f:69:78:33:0c:d7:26:4b:
                    e2:72:0c:15:79:8c:11:39:be:2d:09:37:f3:6a:7c:
                    27:01:e9:b8:5b:2f:62:3d:cf:40:5b:ee:ab:62:9f:
                    39:76:87:c1:27:a5:1b:96:dd:cd:86:57:69:68:82:
                    3d:37
                Exponent: 65537 (0x10001)
        X509v3 extensions:
            X509v3 Key Usage: critical
                Digital Signature, Key Encipherment
            X509v3 Basic Constraints: 
                CA:FALSE
            X509v3 Extended Key Usage: 
                TLS Web Server Authentication, TLS Web Client Authentication
            X509v3 Subject Key Identifier: 
                77:BA:99:91:1B:86:B1:0C:0E:6B:B2:DC:B6:B4:85:6F:F4:F2:64:08
            X509v3 Authority Key Identifier: 
                keyid:5B:74:DB:A9:23:6B:AF:29:24:ED:21:13:BE:34:DB:94:CB:24:62:F0

            X509v3 Subject Alternative Name: 
                DNS:Supervisor-1.SSB.mplane.org
    Signature Algorithm: sha1WithRSAEncryption
         5c:71:b0:63:7a:bc:44:2d:fd:7f:f3:30:e6:0d:54:03:70:fe:
         fc:69:0d:93:25:aa:5a:5f:48:bd:3a:79:89:98:27:ef:94:34:
         f5:9e:91:40:a1:eb:e9:ae:c6:be:5e:b4:55:fa:81:45:a3:4c:
         61:fb:68:5d:93:4e:a1:0f:bb:6a:e8:cd:94:94:06:87:0a:5f:
         92:08:b7:db:3a:ec:89:51:3b:1a:ae:e6:c2:48:1e:6b:62:f6:
         46:b3:b8:86:08:64:07:c6:52:04:15:35:01:05:2f:3b:f6:92:
         68:71:ea:82:10:c3:b9:03:f0:40:c4:40:34:24:ff:71:ac:e2:
         3c:cb:8f:cb:af:ef:8a:74:99:cf:c2:b6:88:34:98:bb:11:03:
         c0:22:10:38:02:b0:f2:0f:fc:ff:b4:7e:20:a1:d0:bd:6a:cd:
         0f:4f:be:5c:39:6a:d6:02:bb:3d:a2:dd:3a:b3:64:09:e1:f8:
         98:61:d1:72:d3:d1:4e:8b:1f:0a:fc:fd:8f:fb:c3:34:20:08:
         be:9a:c4:fa:7c:79:8f:a6:b4:94:85:32:1c:b3:1e:63:1f:69:
         14:0a:87:22:f7:54:c2:d6:ce:fd:f8:93:a0:df:79:c2:95:00:
         4f:e3:b5:83:c9:a0:1a:5d:fd:d7:7f:d1:f8:db:39:2d:9b:1d:
         d1:b6:02:b4:ff:be:d8:39:fa:44:d3:f0:72:f3:68:a2:dd:dc:
         8e:c3:f0:3e:d6:7f:e9:85:5d:7f:4f:ef:8d:56:21:16:aa:10:
         5c:dd:55:88:cf:43:01:38:06:df:c2:57:42:38:8e:47:35:65:
         95:37:fd:1a:1c:7b:0c:68:2c:f6:b0:12:4e:f7:da:bd:60:87:
         b3:a7:2c:21:7e:f7:ca:31:8c:46:d6:42:06:9d:cd:49:f0:87:
         be:4d:74:8e:13:7f:2f:33:e7:02:55:90:7a:77:16:f8:49:08:
         53:ed:ac:58:51:e0:53:36:db:2a:85:8f:6f:28:1c:06:56:bd:
         c6:1e:ca:dd:86:1c:b3:5f:14:b5:e1:da:fc:89:cf:eb:b2:f9:
         97:48:92:6d:7c:44:5f:0c:29:90:3c:c3:ae:7e:00:70:81:e1:
         5f:ea:2d:02:d3:0b:86:51:ff:54:35:a6:bc:a6:ef:bd:2c:bb:
         23:55:80:29:4c:99:6e:19:78:8e:f6:8e:85:70:13:2f:64:7f:
         04:4c:55:10:8a:5d:c7:1e:ac:4b:ae:7f:00:8d:79:da:66:24:
         98:d6:f5:d8:fb:89:5b:90:48:af:1b:f1:80:50:61:9a:01:21:
         7a:d8:a9:38:da:bc:5b:48:ac:96:27:54:82:7b:ea:91:b0:23:
         e5:fb:a1:36:f5:94:91:6e
-----BEGIN CERTIFICATE-----
MIIE3DCCAsSgAwIBAgIBAzANBgkqhkiG9w0BAQUFADBTMRMwEQYKCZImiZPyLGQB
GRYDb3JnMRYwFAYKCZImiZPyLGQBGRYGbXBsYW5lMRAwDgYDVQQLDAdSb290LUNB
MRIwEAYDVQQDDAlSb290LUNBLTEwHhcNMTQxMDAzMTExMDA2WhcNMTYxMDAyMTEx
MDA2WjBoMRMwEQYKCZImiZPyLGQBGRYDb3JnMRYwFAYKCZImiZPyLGQBGRYGbXBs
YW5lMQwwCgYDVQQKDANTU0IxFDASBgNVBAsMC1N1cGVydmlzb3JzMRUwEwYDVQQD
DAxTdXBlcnZpc29yLTEwggEiMA0GCSqGSIb3DQEBAQUAA4IBDwAwggEKAoIBAQDK
pg7COrQ/V4eVwODXgQT6u8XZIx33oX143/3P8Ktl8XlLxi1ahArmUiz8pvA8MU1e
lPE9+GmdidreEkuIc4udKbaihCQZLQgM5cUZWCzSfWT6z9PawXGfT2WR/uwQH+pr
bjza3Vj/Mvq8O1hB/INwnPdRSpsFh4KZrNqLMdRiMuxbUW7aCbkghJLRj5tvYYVA
3kFy3EVqal4hLwBgFffb7rBGdFCI8PNMR9QOsceg2+daCT1NMAyJglYw/i4kvask
B+cOsg3xda+PaXgzDNcmS+JyDBV5jBE5vi0JN/NqfCcB6bhbL2I9z0Bb7qtinzl2
h8EnpRuW3c2GV2logj03AgMBAAGjgaUwgaIwDgYDVR0PAQH/BAQDAgWgMAkGA1Ud
EwQCMAAwHQYDVR0lBBYwFAYIKwYBBQUHAwEGCCsGAQUFBwMCMB0GA1UdDgQWBBR3
upmRG4axDA5rsty2tIVv9PJkCDAfBgNVHSMEGDAWgBRbdNupI2uvKSTtIRO+NNuU
yyRi8DAmBgNVHREEHzAdghtTdXBlcnZpc29yLTEuU1NCLm1wbGFuZS5vcmcwDQYJ
KoZIhvcNAQEFBQADggIBAFxxsGN6vEQt/X/zMOYNVANw/vxpDZMlqlpfSL06eYmY
J++UNPWekUCh6+muxr5etFX6gUWjTGH7aF2TTqEPu2rozZSUBocKX5IIt9s67IlR
Oxqu5sJIHmti9kazuIYIZAfGUgQVNQEFLzv2kmhx6oIQw7kD8EDEQDQk/3Gs4jzL
j8uv74p0mc/Ctog0mLsRA8AiEDgCsPIP/P+0fiCh0L1qzQ9Pvlw5atYCuz2i3Tqz
ZAnh+Jhh0XLT0U6LHwr8/Y/7wzQgCL6axPp8eY+mtJSFMhyzHmMfaRQKhyL3VMLW
zv34k6DfecKVAE/jtYPJoBpd/dd/0fjbOS2bHdG2ArT/vtg5+kTT8HLzaKLd3I7D
8D7Wf+mFXX9P741WIRaqEFzdVYjPQwE4Bt/CV0I4jkc1ZZU3/RocewxoLPawEk73
2r1gh7OnLCF+98oxjEbWQgadzUnwh75NdI4Tfy8z5wJVkHp3FvhJCFPtrFhR4FM2
2yqFj28oHAZWvcYeyt2GHLNfFLXh2vyJz+uy+ZdIkm18RF8MKZA8w65+AHCB4V/q
LQLTC4ZR/1Q1prym770suyNVgClMmW4ZeI72joVwEy9kfwRMVRCKXccerEuufwCN
edpmJJjW9dj7iVuQSK8b8YBQYZoBIXrYqTjavFtIrJYnVIJ76pGwI+X7oTb1lJFu
-----END CERTIFICATE-----
